

Microchip MPLAB XC8 Assembler V2.10 build 88905656 
                                                                                               Mon May 11 22:14:54 2020

Microchip MPLAB XC8 C Compiler v2.10 (Free license) build 20190730164152 Og1 
     1                           	processor	16F887
     2                           	opt	pw 120
     3                           	opt	flic
     4                           	psect	idataBANK1,global,class=CODE,delta=2
     5                           	psect	idataBANK3,global,class=CODE,delta=2
     6                           	psect	strings,global,class=STRING,delta=2
     7                           	psect	cinit,global,class=CODE,merge=1,delta=2
     8                           	psect	bssBANK0,global,class=BANK0,space=1,delta=1
     9                           	psect	bssBANK1,global,class=BANK1,space=1,delta=1
    10                           	psect	dataBANK1,global,class=BANK1,space=1,delta=1
    11                           	psect	bssBANK3,global,class=BANK3,space=1,delta=1
    12                           	psect	dataBANK3,global,class=BANK3,space=1,delta=1
    13                           	psect	inittext,global,class=CODE,delta=2
    14                           	psect	clrtext,global,class=CODE,delta=2
    15                           	psect	cstackCOMMON,global,class=COMMON,space=1,delta=1
    16                           	psect	cstackBANK0,global,class=BANK0,space=1,delta=1
    17                           	psect	maintext,global,class=CODE,split=1,delta=2
    18                           	psect	text1,local,class=CODE,merge=1,delta=2
    19                           	psect	text2,local,class=CODE,merge=1,delta=2
    20                           	psect	text3,local,class=CODE,merge=1,delta=2
    21                           	psect	text4,local,class=CODE,merge=1,delta=2,group=1
    22                           	psect	text5,local,class=CODE,merge=1,delta=2
    23                           	psect	text6,local,class=CODE,merge=1,delta=2
    24                           	psect	text7,local,class=CODE,merge=1,delta=2
    25                           	psect	text8,local,class=CODE,merge=1,delta=2
    26                           	psect	text9,local,class=CODE,merge=1,delta=2
    27                           	psect	text10,local,class=CODE,merge=1,delta=2
    28                           	psect	text11,local,class=CODE,merge=1,delta=2
    29                           	psect	text12,local,class=CODE,merge=1,delta=2
    30                           	psect	text13,local,class=CODE,merge=1,delta=2
    31                           	psect	text14,local,class=CODE,merge=1,delta=2
    32                           	psect	text15,local,class=CODE,merge=1,delta=2
    33                           	psect	text16,local,class=CODE,merge=1,delta=2,group=2
    34                           	psect	text17,local,class=CODE,merge=1,delta=2,group=2
    35                           	psect	text18,local,class=CODE,merge=1,delta=2,group=1
    36                           	psect	text19,local,class=CODE,merge=1,delta=2,group=1
    37                           	psect	text20,local,class=CODE,merge=1,delta=2,group=1
    38                           	psect	text21,local,class=CODE,merge=1,delta=2,group=1
    39                           	psect	text22,local,class=CODE,merge=1,delta=2,group=1
    40                           	psect	text23,local,class=CODE,merge=1,delta=2,group=1
    41                           	psect	text24,local,class=CODE,merge=1,delta=2,group=1
    42                           	psect	text25,local,class=CODE,merge=1,delta=2
    43                           	psect	text26,local,class=CODE,merge=1,delta=2
    44                           	psect	text27,local,class=CODE,merge=1,delta=2
    45                           	psect	text28,local,class=CODE,merge=1,delta=2
    46                           	psect	text29,local,class=CODE,merge=1,delta=2
    47                           	psect	text30,local,class=CODE,merge=1,delta=2,group=2
    48                           	psect	text31,local,class=CODE,merge=1,delta=2
    49                           	psect	text32,local,class=CODE,merge=1,delta=2,group=1
    50                           	psect	text33,local,class=CODE,merge=1,delta=2,group=1
    51                           	psect	text34,local,class=CODE,merge=1,delta=2
    52                           	psect	text35,local,class=CODE,merge=1,delta=2
    53                           	psect	text36,local,class=CODE,merge=1,delta=2
    54                           	psect	text37,local,class=CODE,merge=1,delta=2,group=1
    55                           	dabs	1,0x7E,2
    56  0000                     
    57                           ; Version 2.10
    58                           ; Generated 31/07/2019 GMT
    59                           ; 
    60                           ; Copyright © 2019, Microchip Technology Inc. and its subsidiaries ("Microchip")
    61                           ; All rights reserved.
    62                           ; 
    63                           ; This software is developed by Microchip Technology Inc. and its subsidiaries ("Microch
      +                          ip").
    64                           ; 
    65                           ; Redistribution and use in source and binary forms, with or without modification, are
    66                           ; permitted provided that the following conditions are met:
    67                           ; 
    68                           ;     1. Redistributions of source code must retain the above copyright notice, this lis
      +                          t of
    69                           ;        conditions and the following disclaimer.
    70                           ; 
    71                           ;     2. Redistributions in binary form must reproduce the above copyright notice, this 
      +                          list
    72                           ;        of conditions and the following disclaimer in the documentation and/or other
    73                           ;        materials provided with the distribution.
    74                           ; 
    75                           ;     3. Microchip's name may not be used to endorse or promote products derived from th
      +                          is
    76                           ;        software without specific prior written permission.
    77                           ; 
    78                           ; THIS SOFTWARE IS PROVIDED BY MICROCHIP "AS IS" AND ANY EXPRESS OR IMPLIED WARRANTIES,
    79                           ; INCLUDING, BUT NOT LIMITED TO, THE IMPLIED WARRANTIES OF MERCHANTABILITY AND FITNESS F
      +                          OR
    80                           ; PURPOSE ARE DISCLAIMED.  IN NO EVENT SHALL MICROCHIP BE LIABLE FOR ANY DIRECT, INDIREC
      +                          T,
    81                           ; INCIDENTAL, SPECIAL, EXEMPLARY, OR CONSEQUENTIAL DAMAGES (INCLUDING BUT NOT LIMITED TO
    82                           ; PROCUREMENT OF SUBSTITUTE GOODS OR SERVICES; LOSS OF USE, DATA OR PROFITS; OR BUSINESS
    83                           ; INTERRUPTION) HOWSOEVER CAUSED AND ON ANY THEORY OF LIABILITY, WHETHER IN CONTRACT, ST
      +                          RICT
    84                           ; LIABILITY, OR TORT (INCLUDING NEGLIGENCE OR OTHERWISE) ARISING IN ANY WAY OUT OF THE U
      +                          SE OF
    85                           ; THIS SOFTWARE, EVEN IF ADVISED OF THE POSSIBILITY OF SUCH DAMAGE.
    86                           ; 
    87                           ; 
    88                           ; Code-generator required, PIC16F887 Definitions
    89                           ; 
    90                           ; SFR Addresses
    91  0000                     	;# 
    92  0001                     	;# 
    93  0002                     	;# 
    94  0003                     	;# 
    95  0004                     	;# 
    96  0005                     	;# 
    97  0006                     	;# 
    98  0007                     	;# 
    99  0008                     	;# 
   100  0009                     	;# 
   101  000A                     	;# 
   102  000B                     	;# 
   103  000C                     	;# 
   104  000D                     	;# 
   105  000E                     	;# 
   106  000E                     	;# 
   107  000F                     	;# 
   108  0010                     	;# 
   109  0011                     	;# 
   110  0012                     	;# 
   111  0013                     	;# 
   112  0014                     	;# 
   113  0015                     	;# 
   114  0015                     	;# 
   115  0016                     	;# 
   116  0017                     	;# 
   117  0018                     	;# 
   118  0019                     	;# 
   119  001A                     	;# 
   120  001B                     	;# 
   121  001B                     	;# 
   122  001C                     	;# 
   123  001D                     	;# 
   124  001E                     	;# 
   125  001F                     	;# 
   126  0081                     	;# 
   127  0085                     	;# 
   128  0086                     	;# 
   129  0087                     	;# 
   130  0088                     	;# 
   131  0089                     	;# 
   132  008C                     	;# 
   133  008D                     	;# 
   134  008E                     	;# 
   135  008F                     	;# 
   136  0090                     	;# 
   137  0091                     	;# 
   138  0092                     	;# 
   139  0093                     	;# 
   140  0093                     	;# 
   141  0093                     	;# 
   142  0094                     	;# 
   143  0095                     	;# 
   144  0096                     	;# 
   145  0097                     	;# 
   146  0098                     	;# 
   147  0099                     	;# 
   148  009A                     	;# 
   149  009B                     	;# 
   150  009C                     	;# 
   151  009D                     	;# 
   152  009E                     	;# 
   153  009F                     	;# 
   154  0105                     	;# 
   155  0107                     	;# 
   156  0108                     	;# 
   157  0109                     	;# 
   158  010C                     	;# 
   159  010C                     	;# 
   160  010D                     	;# 
   161  010E                     	;# 
   162  010F                     	;# 
   163  0185                     	;# 
   164  0187                     	;# 
   165  0188                     	;# 
   166  0189                     	;# 
   167  018C                     	;# 
   168  018D                     	;# 
   169  0000                     	;# 
   170  0001                     	;# 
   171  0002                     	;# 
   172  0003                     	;# 
   173  0004                     	;# 
   174  0005                     	;# 
   175  0006                     	;# 
   176  0007                     	;# 
   177  0008                     	;# 
   178  0009                     	;# 
   179  000A                     	;# 
   180  000B                     	;# 
   181  000C                     	;# 
   182  000D                     	;# 
   183  000E                     	;# 
   184  000E                     	;# 
   185  000F                     	;# 
   186  0010                     	;# 
   187  0011                     	;# 
   188  0012                     	;# 
   189  0013                     	;# 
   190  0014                     	;# 
   191  0015                     	;# 
   192  0015                     	;# 
   193  0016                     	;# 
   194  0017                     	;# 
   195  0018                     	;# 
   196  0019                     	;# 
   197  001A                     	;# 
   198  001B                     	;# 
   199  001B                     	;# 
   200  001C                     	;# 
   201  001D                     	;# 
   202  001E                     	;# 
   203  001F                     	;# 
   204  0081                     	;# 
   205  0085                     	;# 
   206  0086                     	;# 
   207  0087                     	;# 
   208  0088                     	;# 
   209  0089                     	;# 
   210  008C                     	;# 
   211  008D                     	;# 
   212  008E                     	;# 
   213  008F                     	;# 
   214  0090                     	;# 
   215  0091                     	;# 
   216  0092                     	;# 
   217  0093                     	;# 
   218  0093                     	;# 
   219  0093                     	;# 
   220  0094                     	;# 
   221  0095                     	;# 
   222  0096                     	;# 
   223  0097                     	;# 
   224  0098                     	;# 
   225  0099                     	;# 
   226  009A                     	;# 
   227  009B                     	;# 
   228  009C                     	;# 
   229  009D                     	;# 
   230  009E                     	;# 
   231  009F                     	;# 
   232  0105                     	;# 
   233  0107                     	;# 
   234  0108                     	;# 
   235  0109                     	;# 
   236  010C                     	;# 
   237  010C                     	;# 
   238  010D                     	;# 
   239  010E                     	;# 
   240  010F                     	;# 
   241  0185                     	;# 
   242  0187                     	;# 
   243  0188                     	;# 
   244  0189                     	;# 
   245  018C                     	;# 
   246  018D                     	;# 
   247  0000                     	;# 
   248  0001                     	;# 
   249  0002                     	;# 
   250  0003                     	;# 
   251  0004                     	;# 
   252  0005                     	;# 
   253  0006                     	;# 
   254  0007                     	;# 
   255  0008                     	;# 
   256  0009                     	;# 
   257  000A                     	;# 
   258  000B                     	;# 
   259  000C                     	;# 
   260  000D                     	;# 
   261  000E                     	;# 
   262  000E                     	;# 
   263  000F                     	;# 
   264  0010                     	;# 
   265  0011                     	;# 
   266  0012                     	;# 
   267  0013                     	;# 
   268  0014                     	;# 
   269  0015                     	;# 
   270  0015                     	;# 
   271  0016                     	;# 
   272  0017                     	;# 
   273  0018                     	;# 
   274  0019                     	;# 
   275  001A                     	;# 
   276  001B                     	;# 
   277  001B                     	;# 
   278  001C                     	;# 
   279  001D                     	;# 
   280  001E                     	;# 
   281  001F                     	;# 
   282  0081                     	;# 
   283  0085                     	;# 
   284  0086                     	;# 
   285  0087                     	;# 
   286  0088                     	;# 
   287  0089                     	;# 
   288  008C                     	;# 
   289  008D                     	;# 
   290  008E                     	;# 
   291  008F                     	;# 
   292  0090                     	;# 
   293  0091                     	;# 
   294  0092                     	;# 
   295  0093                     	;# 
   296  0093                     	;# 
   297  0093                     	;# 
   298  0094                     	;# 
   299  0095                     	;# 
   300  0096                     	;# 
   301  0097                     	;# 
   302  0098                     	;# 
   303  0099                     	;# 
   304  009A                     	;# 
   305  009B                     	;# 
   306  009C                     	;# 
   307  009D                     	;# 
   308  009E                     	;# 
   309  009F                     	;# 
   310  0105                     	;# 
   311  0107                     	;# 
   312  0108                     	;# 
   313  0109                     	;# 
   314  010C                     	;# 
   315  010C                     	;# 
   316  010D                     	;# 
   317  010E                     	;# 
   318  010F                     	;# 
   319  0185                     	;# 
   320  0187                     	;# 
   321  0188                     	;# 
   322  0189                     	;# 
   323  018C                     	;# 
   324  018D                     	;# 
   325                           
   326                           	psect	idataBANK1
   327  153F                     __pidataBANK1:	
   328                           
   329                           ;initializer for _temp2
   330  153F  3430               	retlw	48
   331  1540  3430               	retlw	48
   332  1541  3430               	retlw	48
   333  1542  342E               	retlw	46
   334  1543  3430               	retlw	48
   335  1544  3430               	retlw	48
   336  1545  3420               	retlw	32
   337  1546  3443               	retlw	67
   338  1547  3420               	retlw	32
   339  1548  3400               	retlw	0
   340                           
   341                           ;initializer for _pes
   342  1549  3430               	retlw	48
   343  154A  3430               	retlw	48
   344  154B  3430               	retlw	48
   345  154C  3420               	retlw	32
   346  154D  3400               	retlw	0
   347                           
   348                           ;initializer for _time
   349  154E  3430               	retlw	48
   350  154F  3430               	retlw	48
   351  1550  343A               	retlw	58
   352  1551  3430               	retlw	48
   353  1552  3430               	retlw	48
   354  1553  343A               	retlw	58
   355  1554  3430               	retlw	48
   356  1555  3430               	retlw	48
   357  1556  3420               	retlw	32
   358  1557  3450               	retlw	80
   359  1558  344D               	retlw	77
   360  1559  3400               	retlw	0
   361                           
   362                           ;initializer for _temp
   363  155A  3430               	retlw	48
   364  155B  3430               	retlw	48
   365  155C  3430               	retlw	48
   366  155D  342E               	retlw	46
   367  155E  3430               	retlw	48
   368  155F  3430               	retlw	48
   369  1560  3420               	retlw	32
   370  1561  3443               	retlw	67
   371  1562  3420               	retlw	32
   372  1563  3400               	retlw	0
   373                           
   374                           ;initializer for _pes2
   375  1564  3430               	retlw	48
   376  1565  3430               	retlw	48
   377  1566  3430               	retlw	48
   378  1567  3420               	retlw	32
   379  1568  3420               	retlw	32
   380  1569  3400               	retlw	0
   381                           
   382                           ;initializer for _dis
   383  156A  3430               	retlw	48
   384  156B  3430               	retlw	48
   385  156C  3420               	retlw	32
   386  156D  3400               	retlw	0
   387                           
   388                           ;initializer for _dis2
   389  156E  3430               	retlw	48
   390  156F  3420               	retlw	32
   391  1570  3400               	retlw	0
   392                           
   393                           	psect	idataBANK3
   394  1395                     __pidataBANK3:	
   395                           
   396                           ;initializer for _date
   397  1395  3430               	retlw	48
   398  1396  3430               	retlw	48
   399  1397  342D               	retlw	45
   400  1398  3430               	retlw	48
   401  1399  3430               	retlw	48
   402  139A  342D               	retlw	45
   403  139B  3430               	retlw	48
   404  139C  3430               	retlw	48
   405  139D  3400               	retlw	0
   406                           
   407                           	psect	strings
   408  1000                     __pstrings:	
   409  1000                     stringtab:	
   410  1000                     __stringtab:	
   411  1000                     stringcode:	
   412                           ;	String table - string pointers are 1 byte each
   413                           
   414  1000                     stringdir:	
   415  1000  3010               	movlw	high stringdir
   416  1001  008A               	movwf	10
   417  1002  0804               	movf	4,w
   418  1003  0A84               	incf	4,f
   419  1004  0782               	addwf	2,f
   420  1005                     __stringbase:	
   421  1005  3400               	retlw	0
   422  1006                     __end_of__stringtab:	
   423  1006                     exp@coeff:	
   424  1006  3400               	retlw	0
   425  1007  3400               	retlw	0
   426  1008  3480               	retlw	128
   427  1009  343F               	retlw	63
   428  100A  3418               	retlw	24
   429  100B  3472               	retlw	114
   430  100C  3431               	retlw	49
   431  100D  343F               	retlw	63
   432  100E  34F0               	retlw	240
   433  100F  34FD               	retlw	253
   434  1010  3475               	retlw	117
   435  1011  343E               	retlw	62
   436  1012  3447               	retlw	71
   437  1013  3458               	retlw	88
   438  1014  3463               	retlw	99
   439  1015  343D               	retlw	61
   440  1016  3458               	retlw	88
   441  1017  3495               	retlw	149
   442  1018  341D               	retlw	29
   443  1019  343C               	retlw	60
   444  101A  3482               	retlw	130
   445  101B  34C4               	retlw	196
   446  101C  34AE               	retlw	174
   447  101D  343A               	retlw	58
   448  101E  34A8               	retlw	168
   449  101F  3478               	retlw	120
   450  1020  3421               	retlw	33
   451  1021  3439               	retlw	57
   452  1022  34EF               	retlw	239
   453  1023  3493               	retlw	147
   454  1024  3480               	retlw	128
   455  1025  3437               	retlw	55
   456  1026  34A0               	retlw	160
   457  1027  3492               	retlw	146
   458  1028  34A7               	retlw	167
   459  1029  3435               	retlw	53
   460  102A  3446               	retlw	70
   461  102B  3456               	retlw	86
   462  102C  3415               	retlw	21
   463  102D  3434               	retlw	52
   464  102E                     __end_ofexp@coeff:	
   465  102E                     log@coeff:	
   466  102E  3400               	retlw	0
   467  102F  3400               	retlw	0
   468  1030  3400               	retlw	0
   469  1031  3400               	retlw	0
   470  1032  34C4               	retlw	196
   471  1033  34FF               	retlw	255
   472  1034  347F               	retlw	127
   473  1035  343F               	retlw	63
   474  1036  3480               	retlw	128
   475  1037  34EF               	retlw	239
   476  1038  34FF               	retlw	255
   477  1039  34BE               	retlw	190
   478  103A  3490               	retlw	144
   479  103B  34E1               	retlw	225
   480  103C  34A9               	retlw	169
   481  103D  343E               	retlw	62
   482  103E  34EC               	retlw	236
   483  103F  3482               	retlw	130
   484  1040  3476               	retlw	118
   485  1041  34BE               	retlw	190
   486  1042  3482               	retlw	130
   487  1043  34AD               	retlw	173
   488  1044  342B               	retlw	43
   489  1045  343E               	retlw	62
   490  1046  340E               	retlw	14
   491  1047  343C               	retlw	60
   492  1048  34C3               	retlw	195
   493  1049  34BD               	retlw	189
   494  104A  3487               	retlw	135
   495  104B  34D1               	retlw	209
   496  104C  3413               	retlw	19
   497  104D  343D               	retlw	61
   498  104E  3441               	retlw	65
   499  104F  3478               	retlw	120
   500  1050  34D3               	retlw	211
   501  1051  34BB               	retlw	187
   502  1052                     __end_oflog@coeff:	
   503  0013                     _SSPBUF	set	19
   504  0014                     _SSPCON	set	20
   505  0007                     _PORTCbits	set	7
   506  0006                     _PORTBbits	set	6
   507  0008                     _PORTD	set	8
   508  0006                     _PORTB	set	6
   509  0018                     _RCSTAbits	set	24
   510  0019                     _TXREG	set	25
   511  000C                     _PIR1bits	set	12
   512  0005                     _PORTAbits	set	5
   513  0008                     _PORTDbits	set	8
   514  0005                     _PORTA	set	5
   515  0091                     _SSPCON2bits	set	145
   516  0087                     _TRISCbits	set	135
   517  0094                     _SSPSTAT	set	148
   518  0093                     _SSPADD	set	147
   519  0091                     _SSPCON2	set	145
   520  0085                     _TRISA	set	133
   521  0086                     _TRISB	set	134
   522  0088                     _TRISD	set	136
   523  0086                     _TRISBbits	set	134
   524  009A                     _SPBRGH	set	154
   525  0099                     _SPBRG	set	153
   526  0098                     _TXSTAbits	set	152
   527  0188                     _ANSEL	set	392
   528  0189                     _ANSELH	set	393
   529  0187                     _BAUDCTLbits	set	391
   530  1052                     STR_1:	
   531  1052  3425               	retlw	37	;'%'
   532  1053  3464               	retlw	100	;'d'
   533  1054  3400               	retlw	0
   534                           
   535                           ; #config settings
   536  0000                     
   537                           	psect	cinit
   538  07C6                     start_initialization:	
   539  07C6                     __initialization:	
   540                           
   541                           ; Initialize objects allocated to BANK3
   542  07C6  1783               	bsf	3,7	;select IRP bank2
   543  07C7  30AD               	movlw	low (__pdataBANK3+9)
   544  07C8  00FD               	movwf	btemp+-1
   545  07C9  3013               	movlw	high __pidataBANK3
   546  07CA  00FE               	movwf	btemp
   547  07CB  3095               	movlw	low __pidataBANK3
   548  07CC  00FF               	movwf	btemp+1
   549  07CD  30A4               	movlw	low __pdataBANK3
   550  07CE  0084               	movwf	4
   551  07CF  160A  118A  23D9  120A  118A  	fcall	init_ram0
   552                           
   553                           ; Initialize objects allocated to BANK1
   554  07D4  1383               	bcf	3,7	;select IRP bank0
   555  07D5  30D2               	movlw	low (__pdataBANK1+50)
   556  07D6  00FD               	movwf	btemp+-1
   557  07D7  3015               	movlw	high __pidataBANK1
   558  07D8  00FE               	movwf	btemp
   559  07D9  303F               	movlw	low __pidataBANK1
   560  07DA  00FF               	movwf	btemp+1
   561  07DB  30A0               	movlw	low __pdataBANK1
   562  07DC  0084               	movwf	4
   563  07DD  160A  118A  23D9  120A  118A  	fcall	init_ram0
   564                           
   565                           ; Clear objects allocated to BANK3
   566  07E2  1783               	bsf	3,7	;select IRP bank2
   567  07E3  3090               	movlw	low __pbssBANK3
   568  07E4  0084               	movwf	4
   569  07E5  30A4               	movlw	low (__pbssBANK3+20)
   570  07E6  160A  118A  2372  120A  118A  	fcall	clear_ram0
   571                           
   572                           ; Clear objects allocated to BANK1
   573  07EB  1383               	bcf	3,7	;select IRP bank0
   574  07EC  30D2               	movlw	low __pbssBANK1
   575  07ED  0084               	movwf	4
   576  07EE  30F0               	movlw	low (__pbssBANK1+30)
   577  07EF  160A  118A  2372  120A  118A  	fcall	clear_ram0
   578                           
   579                           ; Clear objects allocated to BANK0
   580  07F4  305C               	movlw	low __pbssBANK0
   581  07F5  0084               	movwf	4
   582  07F6  3070               	movlw	low (__pbssBANK0+20)
   583  07F7  160A  118A  2372  120A  118A  	fcall	clear_ram0
   584  07FC                     end_of_initialization:	
   585                           ;End of C runtime variable initialization code
   586                           
   587  07FC                     __end_of__initialization:	
   588  07FC  0183               	clrf	3
   589  07FD  120A  118A  288C   	ljmp	_main	;jump to C main() function
   590                           
   591                           	psect	bssBANK0
   592  005C                     __pbssBANK0:	
   593  005C                     _c:	
   594  005C                     	ds	2
   595  005E                     _valor:	
   596  005E                     	ds	2
   597  0060                     _set:	
   598  0060                     	ds	2
   599  0062                     _set_count:	
   600  0062                     	ds	2
   601  0064                     _year:	
   602  0064                     	ds	2
   603  0066                     _month:	
   604  0066                     	ds	2
   605  0068                     _day:	
   606  0068                     	ds	2
   607  006A                     _hour:	
   608  006A                     	ds	2
   609  006C                     _minute:	
   610  006C                     	ds	2
   611  006E                     _Voldc:	
   612  006E                     	ds	1
   613  006F                     _i:	
   614  006F                     	ds	1
   615                           
   616                           	psect	bssBANK1
   617  00D2                     __pbssBANK1:	
   618  00D2                     _voltaje:	
   619  00D2                     	ds	4
   620  00D6                     _errno:	
   621  00D6                     	ds	2
   622  00D8                     _raw_temp2:	
   623  00D8                     	ds	2
   624  00DA                     _raw_temp:	
   625  00DA                     	ds	2
   626  00DC                     _valor4:	
   627  00DC                     	ds	2
   628  00DE                     _valor3:	
   629  00DE                     	ds	2
   630  00E0                     _ap:	
   631  00E0                     	ds	2
   632  00E2                     _dday:	
   633  00E2                     	ds	2
   634  00E4                     _hr:	
   635  00E4                     	ds	2
   636  00E6                     _second:	
   637  00E6                     	ds	2
   638  00E8                     _voltaje2:	
   639  00E8                     	ds	2
   640  00EA                     _Voldc2:	
   641  00EA                     	ds	2
   642  00EC                     _z:	
   643  00EC                     	ds	1
   644  00ED                     _peso:	
   645  00ED                     	ds	1
   646  00EE                     _valor2:	
   647  00EE                     	ds	1
   648  00EF                     _enviar:	
   649  00EF                     	ds	1
   650                           
   651                           	psect	dataBANK1
   652  00A0                     __pdataBANK1:	
   653  00A0                     _temp2:	
   654  00A0                     	ds	10
   655  00AA                     _pes:	
   656  00AA                     	ds	5
   657  00AF                     _time:	
   658  00AF                     	ds	12
   659  00BB                     _temp:	
   660  00BB                     	ds	10
   661  00C5                     _pes2:	
   662  00C5                     	ds	6
   663  00CB                     _dis:	
   664  00CB                     	ds	4
   665  00CF                     _dis2:	
   666  00CF                     	ds	3
   667                           
   668                           	psect	bssBANK3
   669  0190                     __pbssBANK3:	
   670  0190                     _guardar2:	
   671  0190                     	ds	10
   672  019A                     _guardar:	
   673  019A                     	ds	10
   674                           
   675                           	psect	dataBANK3
   676  01A4                     __pdataBANK3:	
   677  01A4                     _date:	
   678  01A4                     	ds	9
   679                           
   680                           	psect	inittext
   681  13D5                     init_fetch0:	
   682                           ;	Called with low address in FSR and high address in W
   683                           
   684  13D5  087E               	movf	btemp,w
   685  13D6  008A               	movwf	10
   686  13D7  087F               	movf	btemp+1,w
   687  13D8  0082               	movwf	2
   688  13D9                     init_ram0:	
   689                           ;Called with:
   690                           ;	high address of idata address in btemp 
   691                           ;	low address of idata address in btemp+1 
   692                           ;	low address of data in FSR
   693                           ;	high address + 1 of data in btemp-1
   694                           
   695  13D9  160A  118A  23D5  160A  118A  	fcall	init_fetch0
   696  13DE  0080               	movwf	0
   697  13DF  0A84               	incf	4,f
   698  13E0  0804               	movf	4,w
   699  13E1  067D               	xorwf	btemp+-1,w
   700  13E2  1903               	btfsc	3,2
   701  13E3  3400               	retlw	0
   702  13E4  0AFF               	incf	btemp+1,f
   703  13E5  1903               	btfsc	3,2
   704  13E6  0AFE               	incf	btemp,f
   705  13E7  2BD9               	goto	init_ram0
   706                           
   707                           	psect	clrtext
   708  1372                     clear_ram0:	
   709                           ;	Called with FSR containing the base address, and
   710                           ;	W with the last address+1
   711                           
   712  1372  0064               	clrwdt	;clear the watchdog before getting into this loop
   713  1373                     clrloop0:	
   714  1373  0180               	clrf	0	;clear RAM location pointed to by FSR
   715  1374  0A84               	incf	4,f	;increment pointer
   716  1375  0604               	xorwf	4,w	;XOR with final address
   717  1376  1903               	btfsc	3,2	;have we reached the end yet?
   718  1377  3400               	retlw	0	;all done for this memory range, return
   719  1378  0604               	xorwf	4,w	;XOR again to restore value
   720  1379  2B73               	goto	clrloop0	;do the next byte
   721                           
   722                           	psect	cstackCOMMON
   723  0070                     __pcstackCOMMON:	
   724  0070                     ?_I2C_Master_Start:	
   725  0070                     ??_I2C_Master_Start:	
   726                           ; 1 bytes @ 0x0
   727                           
   728  0070                     ?_I2C_Master_Write:	
   729                           ; 1 bytes @ 0x0
   730                           
   731  0070                     ?_I2C_Master_RepeatedStart:	
   732                           ; 1 bytes @ 0x0
   733                           
   734  0070                     ??_I2C_Master_RepeatedStart:	
   735                           ; 1 bytes @ 0x0
   736                           
   737  0070                     ?_I2C_Master_Stop:	
   738                           ; 1 bytes @ 0x0
   739                           
   740  0070                     ??_I2C_Master_Stop:	
   741                           ; 1 bytes @ 0x0
   742                           
   743  0070                     ?_setup:	
   744                           ; 1 bytes @ 0x0
   745                           
   746  0070                     ?_port:	
   747                           ; 1 bytes @ 0x0
   748                           
   749  0070                     ??_port:	
   750                           ; 1 bytes @ 0x0
   751                           
   752  0070                     ?_com:	
   753                           ; 1 bytes @ 0x0
   754                           
   755  0070                     ?_lcd_clear:	
   756                           ; 1 bytes @ 0x0
   757                           
   758  0070                     ?_lcd_init:	
   759                           ; 1 bytes @ 0x0
   760                           
   761  0070                     ?_letra:	
   762                           ; 1 bytes @ 0x0
   763                           
   764  0070                     ?_lee2:	
   765                           ; 1 bytes @ 0x0
   766                           
   767  0070                     ?_BCD2UpperCh:	
   768                           ; 1 bytes @ 0x0
   769                           
   770  0070                     ??_BCD2UpperCh:	
   771                           ; 1 bytes @ 0x0
   772                           
   773  0070                     ?_BCD2LowerCh:	
   774                           ; 1 bytes @ 0x0
   775                           
   776  0070                     ??_BCD2LowerCh:	
   777                           ; 1 bytes @ 0x0
   778                           
   779  0070                     ?_receive:	
   780                           ; 1 bytes @ 0x0
   781                           
   782  0070                     ??_receive:	
   783                           ; 1 bytes @ 0x0
   784                           
   785  0070                     ?_main:	
   786                           ; 1 bytes @ 0x0
   787                           
   788  0070                     ?_I2C_Master_Wait:	
   789                           ; 1 bytes @ 0x0
   790                           
   791  0070                     ??_I2C_Master_Wait:	
   792                           ; 1 bytes @ 0x0
   793                           
   794  0070                     ?_I2C_Master_Read:	
   795                           ; 1 bytes @ 0x0
   796                           
   797  0070                     ?_abs:	
   798                           ; 2 bytes @ 0x0
   799                           
   800  0070                     ?__Umul8_16:	
   801                           ; 2 bytes @ 0x0
   802                           
   803  0070                     ?___wmul:	
   804                           ; 2 bytes @ 0x0
   805                           
   806  0070                     ?___lwdiv:	
   807                           ; 2 bytes @ 0x0
   808                           
   809  0070                     ?___lwmod:	
   810                           ; 2 bytes @ 0x0
   811                           
   812  0070                     ?___lldiv:	
   813                           ; 2 bytes @ 0x0
   814                           
   815  0070                     ?___fltol:	
   816                           ; 4 bytes @ 0x0
   817                           
   818  0070                     ?___xxtofl:	
   819                           ; 4 bytes @ 0x0
   820                           
   821  0070                     port@E:	
   822                           ; 4 bytes @ 0x0
   823                           
   824  0070                     BCD2LowerCh@bcd:	
   825                           ; 1 bytes @ 0x0
   826                           
   827  0070                     __Umul8_16@multiplicand:	
   828                           ; 1 bytes @ 0x0
   829                           
   830  0070                     I2C_Master_Write@d:	
   831                           ; 1 bytes @ 0x0
   832                           
   833  0070                     I2C_Master_Read@a:	
   834                           ; 2 bytes @ 0x0
   835                           
   836  0070                     ___wmul@multiplier:	
   837                           ; 2 bytes @ 0x0
   838                           
   839  0070                     ___lwdiv@divisor:	
   840                           ; 2 bytes @ 0x0
   841                           
   842  0070                     ___lwmod@divisor:	
   843                           ; 2 bytes @ 0x0
   844                           
   845  0070                     abs@a:	
   846                           ; 2 bytes @ 0x0
   847                           
   848  0070                     ___lldiv@divisor:	
   849                           ; 2 bytes @ 0x0
   850                           
   851  0070                     ___fltol@f1:	
   852                           ; 4 bytes @ 0x0
   853                           
   854  0070                     ___xxtofl@val:	
   855                           ; 4 bytes @ 0x0
   856                           
   857                           
   858                           ; 4 bytes @ 0x0
   859  0070                     	ds	1
   860  0071                     ??_com:	
   861  0071                     ??_letra:	
   862                           ; 1 bytes @ 0x1
   863                           
   864  0071                     com@E:	
   865                           ; 1 bytes @ 0x1
   866                           
   867  0071                     BCD2UpperCh@bcd:	
   868                           ; 1 bytes @ 0x1
   869                           
   870                           
   871                           ; 1 bytes @ 0x1
   872  0071                     	ds	1
   873  0072                     ??_I2C_Master_Write:	
   874  0072                     ??_I2C_Master_Read:	
   875                           ; 1 bytes @ 0x2
   876                           
   877  0072                     ??_abs:	
   878                           ; 1 bytes @ 0x2
   879                           
   880  0072                     ??__Umul8_16:	
   881                           ; 1 bytes @ 0x2
   882                           
   883  0072                     ??_lcd_clear:	
   884                           ; 1 bytes @ 0x2
   885                           
   886  0072                     ?_cur:	
   887                           ; 1 bytes @ 0x2
   888                           
   889  0072                     ??_lcd_init:	
   890                           ; 1 bytes @ 0x2
   891                           
   892  0072                     ?_write_ds1307:	
   893                           ; 1 bytes @ 0x2
   894                           
   895  0072                     cur@b:	
   896                           ; 1 bytes @ 0x2
   897                           
   898  0072                     letra@E:	
   899                           ; 1 bytes @ 0x2
   900                           
   901  0072                     write_ds1307@address:	
   902                           ; 1 bytes @ 0x2
   903                           
   904  0072                     ___wmul@multiplicand:	
   905                           ; 2 bytes @ 0x2
   906                           
   907  0072                     ___lwdiv@dividend:	
   908                           ; 2 bytes @ 0x2
   909                           
   910  0072                     ___lwmod@dividend:	
   911                           ; 2 bytes @ 0x2
   912                           
   913                           
   914                           ; 2 bytes @ 0x2
   915  0072                     	ds	1
   916  0073                     ??_cur:	
   917  0073                     ?_word:	
   918                           ; 1 bytes @ 0x3
   919                           
   920  0073                     word@a:	
   921                           ; 1 bytes @ 0x3
   922                           
   923                           
   924                           ; 2 bytes @ 0x3
   925  0073                     	ds	1
   926  0074                     ??___wmul:	
   927  0074                     ??___fltol:	
   928                           ; 1 bytes @ 0x4
   929                           
   930  0074                     ??___lwdiv:	
   931                           ; 1 bytes @ 0x4
   932                           
   933  0074                     ??___lwmod:	
   934                           ; 1 bytes @ 0x4
   935                           
   936  0074                     ??___xxtofl:	
   937                           ; 1 bytes @ 0x4
   938                           
   939  0074                     write_ds1307@w_data:	
   940                           ; 1 bytes @ 0x4
   941                           
   942  0074                     I2C_Master_Read@temp:	
   943                           ; 2 bytes @ 0x4
   944                           
   945  0074                     ___wmul@product:	
   946                           ; 2 bytes @ 0x4
   947                           
   948  0074                     __Umul8_16@product:	
   949                           ; 2 bytes @ 0x4
   950                           
   951  0074                     ___lldiv@dividend:	
   952                           ; 2 bytes @ 0x4
   953                           
   954                           
   955                           ; 4 bytes @ 0x4
   956  0074                     	ds	1
   957  0075                     ??_word:	
   958  0075                     cur@a:	
   959                           ; 1 bytes @ 0x5
   960                           
   961  0075                     ___lwmod@counter:	
   962                           ; 1 bytes @ 0x5
   963                           
   964  0075                     ___lwdiv@quotient:	
   965                           ; 1 bytes @ 0x5
   966                           
   967                           
   968                           ; 2 bytes @ 0x5
   969  0075                     	ds	1
   970  0076                     ??_write_ds1307:	
   971  0076                     ?_read_ds1307:	
   972                           ; 1 bytes @ 0x6
   973                           
   974  0076                     ?_BCD2Binary:	
   975                           ; 2 bytes @ 0x6
   976                           
   977  0076                     ?___awdiv:	
   978                           ; 2 bytes @ 0x6
   979                           
   980  0076                     cur@tiempo:	
   981                           ; 2 bytes @ 0x6
   982                           
   983  0076                     read_ds1307@address:	
   984                           ; 1 bytes @ 0x6
   985                           
   986  0076                     BCD2Binary@a:	
   987                           ; 2 bytes @ 0x6
   988                           
   989  0076                     ___awdiv@divisor:	
   990                           ; 2 bytes @ 0x6
   991                           
   992  0076                     __Umul8_16@word_mpld:	
   993                           ; 2 bytes @ 0x6
   994                           
   995                           
   996                           ; 2 bytes @ 0x6
   997  0076                     	ds	1
   998  0077                     ___lwdiv@counter:	
   999                           
  1000                           ; 1 bytes @ 0x7
  1001  0077                     	ds	1
  1002  0078                     ?_utoa:	
  1003  0078                     ??_read_ds1307:	
  1004                           ; 1 bytes @ 0x8
  1005                           
  1006  0078                     ??_BCD2Binary:	
  1007                           ; 1 bytes @ 0x8
  1008                           
  1009  0078                     ??___lldiv:	
  1010                           ; 1 bytes @ 0x8
  1011                           
  1012  0078                     ___xxtofl@sign:	
  1013                           ; 1 bytes @ 0x8
  1014                           
  1015  0078                     __Umul8_16@multiplier:	
  1016                           ; 1 bytes @ 0x8
  1017                           
  1018  0078                     word@i:	
  1019                           ; 1 bytes @ 0x8
  1020                           
  1021  0078                     read_ds1307@r_data:	
  1022                           ; 2 bytes @ 0x8
  1023                           
  1024  0078                     BCD2Binary@r:	
  1025                           ; 2 bytes @ 0x8
  1026                           
  1027  0078                     ___awdiv@dividend:	
  1028                           ; 2 bytes @ 0x8
  1029                           
  1030  0078                     utoa@val:	
  1031                           ; 2 bytes @ 0x8
  1032                           
  1033                           
  1034                           ; 2 bytes @ 0x8
  1035  0078                     	ds	1
  1036  0079                     ___fltol@sign1:	
  1037  0079                     ___xxtofl@exp:	
  1038                           ; 1 bytes @ 0x9
  1039                           
  1040  0079                     ___lldiv@quotient:	
  1041                           ; 1 bytes @ 0x9
  1042                           
  1043                           
  1044                           ; 4 bytes @ 0x9
  1045  0079                     	ds	1
  1046  007A                     ??___awdiv:	
  1047  007A                     ___fltol@exp1:	
  1048                           ; 1 bytes @ 0xA
  1049                           
  1050  007A                     BCD2Binary@t:	
  1051                           ; 1 bytes @ 0xA
  1052                           
  1053  007A                     utoa@base:	
  1054                           ; 2 bytes @ 0xA
  1055                           
  1056  007A                     ___xxtofl@arg:	
  1057                           ; 2 bytes @ 0xA
  1058                           
  1059                           
  1060                           ; 4 bytes @ 0xA
  1061  007A                     	ds	1
  1062  007B                     ??___awmod:	
  1063                           
  1064                           ; 1 bytes @ 0xB
  1065  007B                     	ds	1
  1066  007C                     ??_utoa:	
  1067  007C                     ___awmod@counter:	
  1068                           ; 1 bytes @ 0xC
  1069                           
  1070                           
  1071                           ; 1 bytes @ 0xC
  1072  007C                     	ds	1
  1073  007D                     ??_itoa:	
  1074  007D                     ___lldiv@counter:	
  1075                           ; 1 bytes @ 0xD
  1076                           
  1077  007D                     ___awmod@sign:	
  1078                           ; 1 bytes @ 0xD
  1079                           
  1080                           
  1081                           ; 1 bytes @ 0xD
  1082  007D                     	ds	1
  1083  007E                     ??_setup:	
  1084                           
  1085                           	psect	cstackBANK0
  1086  0020                     __pcstackBANK0:	
  1087                           ; 1 bytes @ 0xE
  1088                           
  1089  0020                     ?_I2C_Master_Init:	
  1090  0020                     ?___flmul:	
  1091                           ; 1 bytes @ 0x0
  1092                           
  1093  0020                     ___awdiv@counter:	
  1094                           ; 4 bytes @ 0x0
  1095                           
  1096  0020                     utoa@v:	
  1097                           ; 1 bytes @ 0x0
  1098                           
  1099  0020                     I2C_Master_Init@c:	
  1100                           ; 2 bytes @ 0x0
  1101                           
  1102  0020                     ___flmul@b:	
  1103                           ; 4 bytes @ 0x0
  1104                           
  1105                           
  1106                           ; 4 bytes @ 0x0
  1107  0020                     	ds	1
  1108  0021                     ___awdiv@sign:	
  1109                           
  1110                           ; 1 bytes @ 0x1
  1111  0021                     	ds	1
  1112  0022                     utoa@c:	
  1113  0022                     ___awdiv@quotient:	
  1114                           ; 1 bytes @ 0x2
  1115                           
  1116                           
  1117                           ; 2 bytes @ 0x2
  1118  0022                     	ds	1
  1119  0023                     utoa@buf:	
  1120                           
  1121                           ; 1 bytes @ 0x3
  1122  0023                     	ds	1
  1123  0024                     ?_itoa:	
  1124  0024                     ??_I2C_Master_Init:	
  1125                           ; 1 bytes @ 0x4
  1126                           
  1127  0024                     ?___awmod:	
  1128                           ; 1 bytes @ 0x4
  1129                           
  1130  0024                     ___awmod@divisor:	
  1131                           ; 2 bytes @ 0x4
  1132                           
  1133  0024                     itoa@val:	
  1134                           ; 2 bytes @ 0x4
  1135                           
  1136  0024                     ___flmul@a:	
  1137                           ; 2 bytes @ 0x4
  1138                           
  1139                           
  1140                           ; 4 bytes @ 0x4
  1141  0024                     	ds	2
  1142  0026                     ___awmod@dividend:	
  1143  0026                     itoa@base:	
  1144                           ; 2 bytes @ 0x6
  1145                           
  1146                           
  1147                           ; 2 bytes @ 0x6
  1148  0026                     	ds	2
  1149  0028                     ??___flmul:	
  1150  0028                     ?_Binary2BCD:	
  1151                           ; 1 bytes @ 0x8
  1152                           
  1153  0028                     Binary2BCD@a:	
  1154                           ; 2 bytes @ 0x8
  1155                           
  1156                           
  1157                           ; 2 bytes @ 0x8
  1158  0028                     	ds	1
  1159  0029                     itoa@buf:	
  1160                           
  1161                           ; 1 bytes @ 0x9
  1162  0029                     	ds	1
  1163  002A                     ??_Binary2BCD:	
  1164                           
  1165                           ; 1 bytes @ 0xA
  1166  002A                     	ds	2
  1167  002C                     Binary2BCD@t1:	
  1168                           
  1169                           ; 2 bytes @ 0xC
  1170  002C                     	ds	1
  1171  002D                     ___flmul@sign:	
  1172                           
  1173                           ; 1 bytes @ 0xD
  1174  002D                     	ds	1
  1175  002E                     Binary2BCD@t2:	
  1176  002E                     ___flmul@grs:	
  1177                           ; 2 bytes @ 0xE
  1178                           
  1179                           
  1180                           ; 4 bytes @ 0xE
  1181  002E                     	ds	4
  1182  0032                     ___flmul@aexp:	
  1183                           
  1184                           ; 1 bytes @ 0x12
  1185  0032                     	ds	1
  1186  0033                     ___flmul@bexp:	
  1187                           
  1188                           ; 1 bytes @ 0x13
  1189  0033                     	ds	1
  1190  0034                     ___flmul@prod:	
  1191                           
  1192                           ; 4 bytes @ 0x14
  1193  0034                     	ds	4
  1194  0038                     ___flmul@temp:	
  1195                           
  1196                           ; 2 bytes @ 0x18
  1197  0038                     	ds	2
  1198  003A                     ?___fldiv:	
  1199  003A                     ___fldiv@a:	
  1200                           ; 4 bytes @ 0x1A
  1201                           
  1202                           
  1203                           ; 4 bytes @ 0x1A
  1204  003A                     	ds	4
  1205  003E                     ___fldiv@b:	
  1206                           
  1207                           ; 4 bytes @ 0x1E
  1208  003E                     	ds	4
  1209  0042                     ??___fldiv:	
  1210                           
  1211                           ; 1 bytes @ 0x22
  1212  0042                     	ds	5
  1213  0047                     ___fldiv@rem:	
  1214                           
  1215                           ; 4 bytes @ 0x27
  1216  0047                     	ds	4
  1217  004B                     ___fldiv@sign:	
  1218                           
  1219                           ; 1 bytes @ 0x2B
  1220  004B                     	ds	1
  1221  004C                     ___fldiv@new_exp:	
  1222                           
  1223                           ; 2 bytes @ 0x2C
  1224  004C                     	ds	2
  1225  004E                     ___fldiv@grs:	
  1226                           
  1227                           ; 4 bytes @ 0x2E
  1228  004E                     	ds	4
  1229  0052                     ___fldiv@bexp:	
  1230                           
  1231                           ; 1 bytes @ 0x32
  1232  0052                     	ds	1
  1233  0053                     ___fldiv@aexp:	
  1234                           
  1235                           ; 1 bytes @ 0x33
  1236  0053                     	ds	1
  1237  0054                     ??_lee2:	
  1238                           
  1239                           ; 1 bytes @ 0x34
  1240  0054                     	ds	4
  1241  0058                     lee2@coso:	
  1242                           
  1243                           ; 1 bytes @ 0x38
  1244  0058                     	ds	1
  1245  0059                     ??_main:	
  1246                           
  1247                           ; 1 bytes @ 0x39
  1248  0059                     	ds	3
  1249                           
  1250                           	psect	maintext
  1251  008C                     __pmaintext:	
  1252 ;;
  1253 ;;Main: autosize = 0, tempsize = 3, incstack = 0, save=0
  1254 ;;
  1255 ;; *************** function _main *****************
  1256 ;; Defined at:
  1257 ;;		line 209 in file "MasterPapu.c"
  1258 ;; Parameters:    Size  Location     Type
  1259 ;;		None
  1260 ;; Auto vars:     Size  Location     Type
  1261 ;;		None
  1262 ;; Return value:  Size  Location     Type
  1263 ;;                  1    wreg      void 
  1264 ;; Registers used:
  1265 ;;		wreg, fsr0l, fsr0h, status,2, status,0, btemp+1, pclath, cstack
  1266 ;; Tracked objects:
  1267 ;;		On entry : B00/0
  1268 ;;		On exit  : 0/0
  1269 ;;		Unchanged: 0/0
  1270 ;; Data sizes:     COMMON   BANK0   BANK1   BANK3   BANK2
  1271 ;;      Params:         0       0       0       0       0
  1272 ;;      Locals:         0       0       0       0       0
  1273 ;;      Temps:          0       3       0       0       0
  1274 ;;      Totals:         0       3       0       0       0
  1275 ;;Total ram usage:        3 bytes
  1276 ;; Hardware stack levels required when called:    4
  1277 ;; This function calls:
  1278 ;;		_BCD2Binary
  1279 ;;		_BCD2LowerCh
  1280 ;;		_BCD2UpperCh
  1281 ;;		_Binary2BCD
  1282 ;;		_I2C_Master_Read
  1283 ;;		_I2C_Master_Start
  1284 ;;		_I2C_Master_Stop
  1285 ;;		_I2C_Master_Write
  1286 ;;		___awdiv
  1287 ;;		___awmod
  1288 ;;		___wmul
  1289 ;;		_abs
  1290 ;;		_cur
  1291 ;;		_lcd_clear
  1292 ;;		_lcd_init
  1293 ;;		_lee2
  1294 ;;		_read_ds1307
  1295 ;;		_receive
  1296 ;;		_setup
  1297 ;;		_word
  1298 ;;		_write_ds1307
  1299 ;; This function is called by:
  1300 ;;		Startup code after reset
  1301 ;; This function uses a non-reentrant model
  1302 ;;
  1303                           
  1304                           
  1305                           ;psect for function _main
  1306  008C                     _main:	
  1307  008C                     l4004:	
  1308                           ;incstack = 0
  1309                           ; Regs used in _main: [wreg-fsr0h+status,2+status,0+btemp+1+pclath+cstack]
  1310                           
  1311                           
  1312                           ;MasterPapu.c: 210:     setup();
  1313  008C  160A  118A  23FC  120A  118A  	fcall	_setup
  1314  0091                     l4006:	
  1315                           
  1316                           ;MasterPapu.c: 211:     TXSTAbits.SYNC = 0;
  1317  0091  1683               	bsf	3,5	;RP0=1, select bank1
  1318  0092  1303               	bcf	3,6	;RP1=0, select bank1
  1319  0093  1218               	bcf	24,4	;volatile
  1320  0094                     l4008:	
  1321                           
  1322                           ;MasterPapu.c: 212:     TXSTAbits.BRGH =1;
  1323  0094  1518               	bsf	24,2	;volatile
  1324  0095                     l4010:	
  1325                           
  1326                           ;MasterPapu.c: 214:     BAUDCTLbits.BRG16 = 1;
  1327  0095  1683               	bsf	3,5	;RP0=1, select bank3
  1328  0096  1703               	bsf	3,6	;RP1=1, select bank3
  1329  0097  1587               	bsf	7,3	;volatile
  1330  0098                     l4012:	
  1331                           
  1332                           ;MasterPapu.c: 215:     SPBRG = 25;
  1333  0098  3019               	movlw	25
  1334  0099  1683               	bsf	3,5	;RP0=1, select bank1
  1335  009A  1303               	bcf	3,6	;RP1=0, select bank1
  1336  009B  0099               	movwf	25	;volatile
  1337  009C                     l4014:	
  1338                           
  1339                           ;MasterPapu.c: 216:     SPBRGH = 0;
  1340  009C  019A               	clrf	26	;volatile
  1341  009D                     l4016:	
  1342                           
  1343                           ;MasterPapu.c: 217:     RCSTAbits.SPEN = 1;
  1344  009D  1283               	bcf	3,5	;RP0=0, select bank0
  1345  009E  1303               	bcf	3,6	;RP1=0, select bank0
  1346  009F  1798               	bsf	24,7	;volatile
  1347  00A0                     l4018:	
  1348                           
  1349                           ;MasterPapu.c: 218:     RCSTAbits.RX9 = 0;
  1350  00A0  1318               	bcf	24,6	;volatile
  1351  00A1                     l4020:	
  1352                           
  1353                           ;MasterPapu.c: 219:     RCSTAbits.CREN = 1;
  1354  00A1  1618               	bsf	24,4	;volatile
  1355  00A2                     l4022:	
  1356                           
  1357                           ;MasterPapu.c: 220:     TXSTAbits.TXEN = 1;
  1358  00A2  1683               	bsf	3,5	;RP0=1, select bank1
  1359  00A3  1303               	bcf	3,6	;RP1=0, select bank1
  1360  00A4  1698               	bsf	24,5	;volatile
  1361  00A5                     l4024:	
  1362                           
  1363                           ;MasterPapu.c: 222:     TRISBbits.TRISB0 = 0;
  1364  00A5  1006               	bcf	6,0	;volatile
  1365  00A6                     l4026:	
  1366                           
  1367                           ;MasterPapu.c: 223:     TRISBbits.TRISB1 = 0;
  1368  00A6  1086               	bcf	6,1	;volatile
  1369  00A7                     l4028:	
  1370                           
  1371                           ;MasterPapu.c: 224:     TRISD = 0;
  1372  00A7  0188               	clrf	8	;volatile
  1373  00A8                     l4030:	
  1374                           
  1375                           ;MasterPapu.c: 226:     PORTB = 0;
  1376  00A8  1283               	bcf	3,5	;RP0=0, select bank0
  1377  00A9  1303               	bcf	3,6	;RP1=0, select bank0
  1378  00AA  0186               	clrf	6	;volatile
  1379  00AB                     l4032:	
  1380                           
  1381                           ;MasterPapu.c: 227:     PORTD = 0;
  1382  00AB  0188               	clrf	8	;volatile
  1383  00AC                     l4034:	
  1384                           
  1385                           ;MasterPapu.c: 229:     ANSELH = 0;
  1386  00AC  1683               	bsf	3,5	;RP0=1, select bank3
  1387  00AD  1703               	bsf	3,6	;RP1=1, select bank3
  1388  00AE  0189               	clrf	9	;volatile
  1389  00AF                     l4036:	
  1390                           
  1391                           ;MasterPapu.c: 230:     ANSEL = 0;
  1392  00AF  0188               	clrf	8	;volatile
  1393  00B0                     l4038:	
  1394                           
  1395                           ;MasterPapu.c: 236:     TRISBbits.TRISB7 = 0;
  1396  00B0  1683               	bsf	3,5	;RP0=1, select bank1
  1397  00B1  1303               	bcf	3,6	;RP1=0, select bank1
  1398  00B2  1386               	bcf	6,7	;volatile
  1399  00B3                     l4040:	
  1400                           
  1401                           ;MasterPapu.c: 237:     TRISBbits.TRISB6 = 1;
  1402  00B3  1706               	bsf	6,6	;volatile
  1403  00B4                     l4042:	
  1404                           
  1405                           ;MasterPapu.c: 239:      lcd_init();
  1406  00B4  120A  118A  200E  120A  118A  	fcall	_lcd_init
  1407  00B9                     l4044:	
  1408                           
  1409                           ;MasterPapu.c: 240:     lcd_clear();
  1410  00B9  160A  118A  23AA  120A  118A  	fcall	_lcd_clear
  1411  00BE                     l4046:	
  1412                           
  1413                           ;MasterPapu.c: 241:     _delay((unsigned long)((250)*(4000000/4000.0)));
  1414  00BE  3002               	movlw	2
  1415  00BF  1283               	bcf	3,5	;RP0=0, select bank0
  1416  00C0  1303               	bcf	3,6	;RP1=0, select bank0
  1417  00C1  00DB               	movwf	??_main+2
  1418  00C2  3045               	movlw	69
  1419  00C3  00DA               	movwf	??_main+1
  1420  00C4  30A9               	movlw	169
  1421  00C5  00D9               	movwf	??_main
  1422  00C6                     u5207:	
  1423  00C6  0BD9               	decfsz	??_main,f
  1424  00C7  28C6               	goto	u5207
  1425  00C8  0BDA               	decfsz	??_main+1,f
  1426  00C9  28C6               	goto	u5207
  1427  00CA  0BDB               	decfsz	??_main+2,f
  1428  00CB  28C6               	goto	u5207
  1429  00CC                     l4048:	
  1430                           
  1431                           ;MasterPapu.c: 243:    temp[6] = 223;
  1432  00CC  30DF               	movlw	223
  1433  00CD  1283               	bcf	3,5	;RP0=0, select bank0
  1434  00CE  1303               	bcf	3,6	;RP1=0, select bank0
  1435  00CF  00D9               	movwf	??_main
  1436  00D0  0859               	movf	??_main,w
  1437  00D1  1683               	bsf	3,5	;RP0=1, select bank1
  1438  00D2  1303               	bcf	3,6	;RP1=0, select bank1
  1439  00D3  00C1               	movwf	(_temp^(0+128)+6)
  1440  00D4                     l4050:	
  1441                           
  1442                           ;MasterPapu.c: 254:         receive();
  1443  00D4  160A  118A  2511  120A  118A  	fcall	_receive
  1444  00D9                     l4052:	
  1445                           
  1446                           ;MasterPapu.c: 255:     set = 0;
  1447  00D9  1283               	bcf	3,5	;RP0=0, select bank0
  1448  00DA  1303               	bcf	3,6	;RP1=0, select bank0
  1449  00DB  01E0               	clrf	_set
  1450  00DC  01E1               	clrf	_set+1
  1451  00DD                     l4054:	
  1452                           
  1453                           ;MasterPapu.c: 257:     if(PORTBbits.RB0 == 1)
  1454  00DD  1C06               	btfss	6,0	;volatile
  1455  00DE  28E0               	goto	u4801
  1456  00DF  28E1               	goto	u4800
  1457  00E0                     u4801:	
  1458  00E0  2902               	goto	l4064
  1459  00E1                     u4800:	
  1460  00E1                     l4056:	
  1461                           
  1462                           ;MasterPapu.c: 258:     {;MasterPapu.c: 259:       _delay((unsigned long)((100)*(4000000
      +                          /4000.0)));
  1463  00E1  3082               	movlw	130
  1464  00E2  1283               	bcf	3,5	;RP0=0, select bank0
  1465  00E3  1303               	bcf	3,6	;RP1=0, select bank0
  1466  00E4  00DA               	movwf	??_main+1
  1467  00E5  30DD               	movlw	221
  1468  00E6  00D9               	movwf	??_main
  1469  00E7                     u5217:	
  1470  00E7  0BD9               	decfsz	??_main,f
  1471  00E8  28E7               	goto	u5217
  1472  00E9  0BDA               	decfsz	??_main+1,f
  1473  00EA  28E7               	goto	u5217
  1474  00EB                     l4058:	
  1475                           
  1476                           ;MasterPapu.c: 260:       if(PORTBbits.RB0 == 1)
  1477  00EB  1283               	bcf	3,5	;RP0=0, select bank0
  1478  00EC  1303               	bcf	3,6	;RP1=0, select bank0
  1479  00ED  1C06               	btfss	6,0	;volatile
  1480  00EE  28F0               	goto	u4811
  1481  00EF  28F1               	goto	u4810
  1482  00F0                     u4811:	
  1483  00F0  2902               	goto	l4064
  1484  00F1                     u4810:	
  1485  00F1                     l4060:	
  1486                           
  1487                           ;MasterPapu.c: 261:       {;MasterPapu.c: 262:         set_count++;
  1488  00F1  3001               	movlw	1
  1489  00F2  07E2               	addwf	_set_count,f
  1490  00F3  1803               	skipnc
  1491  00F4  0AE3               	incf	_set_count+1,f
  1492  00F5  3000               	movlw	0
  1493  00F6  07E3               	addwf	_set_count+1,f
  1494                           
  1495                           ;MasterPapu.c: 263:         if(set_count >= 7)
  1496  00F7  3000               	movlw	0
  1497  00F8  0263               	subwf	_set_count+1,w
  1498  00F9  3007               	movlw	7
  1499  00FA  1903               	skipnz
  1500  00FB  0262               	subwf	_set_count,w
  1501  00FC  1C03               	skipc
  1502  00FD  28FF               	goto	u4821
  1503  00FE  2900               	goto	u4820
  1504  00FF                     u4821:	
  1505  00FF  2902               	goto	l4064
  1506  0100                     u4820:	
  1507  0100                     l4062:	
  1508                           
  1509                           ;MasterPapu.c: 264:         {;MasterPapu.c: 265:           set_count = 0;
  1510  0100  01E2               	clrf	_set_count
  1511  0101  01E3               	clrf	_set_count+1
  1512  0102                     l4064:	
  1513                           
  1514                           ;MasterPapu.c: 269:     if(set_count)
  1515  0102  0862               	movf	_set_count,w
  1516  0103  0463               	iorwf	_set_count+1,w
  1517  0104  1903               	btfsc	3,2
  1518  0105  2907               	goto	u4831
  1519  0106  2908               	goto	u4830
  1520  0107                     u4831:	
  1521  0107  2B4E               	goto	l4176
  1522  0108                     u4830:	
  1523  0108                     l4066:	
  1524                           
  1525                           ;MasterPapu.c: 270:     {;MasterPapu.c: 271:       if(PORTBbits.RB1 == 1)
  1526  0108  1C86               	btfss	6,1	;volatile
  1527  0109  290B               	goto	u4841
  1528  010A  290C               	goto	u4840
  1529  010B                     u4841:	
  1530  010B  2920               	goto	l4074
  1531  010C                     u4840:	
  1532  010C                     l4068:	
  1533                           
  1534                           ;MasterPapu.c: 272:       {;MasterPapu.c: 273:         _delay((unsigned long)((100)*(400
      +                          0000/4000.0)));
  1535  010C  3082               	movlw	130
  1536  010D  1283               	bcf	3,5	;RP0=0, select bank0
  1537  010E  1303               	bcf	3,6	;RP1=0, select bank0
  1538  010F  00DA               	movwf	??_main+1
  1539  0110  30DD               	movlw	221
  1540  0111  00D9               	movwf	??_main
  1541  0112                     u5227:	
  1542  0112  0BD9               	decfsz	??_main,f
  1543  0113  2912               	goto	u5227
  1544  0114  0BDA               	decfsz	??_main+1,f
  1545  0115  2912               	goto	u5227
  1546  0116                     l4070:	
  1547                           
  1548                           ;MasterPapu.c: 274:         if(PORTBbits.RB1== 1)
  1549  0116  1283               	bcf	3,5	;RP0=0, select bank0
  1550  0117  1303               	bcf	3,6	;RP1=0, select bank0
  1551  0118  1C86               	btfss	6,1	;volatile
  1552  0119  291B               	goto	u4851
  1553  011A  291C               	goto	u4850
  1554  011B                     u4851:	
  1555  011B  2920               	goto	l4074
  1556  011C                     u4850:	
  1557  011C                     l4072:	
  1558                           
  1559                           ;MasterPapu.c: 275:           set = 1;
  1560  011C  3001               	movlw	1
  1561  011D  00E0               	movwf	_set
  1562  011E  3000               	movlw	0
  1563  011F  00E1               	movwf	_set+1
  1564  0120                     l4074:	
  1565                           
  1566                           ;MasterPapu.c: 277:       if(PORTBbits.RB2 == 1)
  1567  0120  1D06               	btfss	6,2	;volatile
  1568  0121  2923               	goto	u4861
  1569  0122  2924               	goto	u4860
  1570  0123                     u4861:	
  1571  0123  2938               	goto	l4082
  1572  0124                     u4860:	
  1573  0124                     l4076:	
  1574                           
  1575                           ;MasterPapu.c: 278:       {;MasterPapu.c: 279:          _delay((unsigned long)((100)*(40
      +                          00000/4000.0)));
  1576  0124  3082               	movlw	130
  1577  0125  1283               	bcf	3,5	;RP0=0, select bank0
  1578  0126  1303               	bcf	3,6	;RP1=0, select bank0
  1579  0127  00DA               	movwf	??_main+1
  1580  0128  30DD               	movlw	221
  1581  0129  00D9               	movwf	??_main
  1582  012A                     u5237:	
  1583  012A  0BD9               	decfsz	??_main,f
  1584  012B  292A               	goto	u5237
  1585  012C  0BDA               	decfsz	??_main+1,f
  1586  012D  292A               	goto	u5237
  1587  012E                     l4078:	
  1588                           
  1589                           ;MasterPapu.c: 280:          if(PORTBbits.RB2 == 1)
  1590  012E  1283               	bcf	3,5	;RP0=0, select bank0
  1591  012F  1303               	bcf	3,6	;RP1=0, select bank0
  1592  0130  1D06               	btfss	6,2	;volatile
  1593  0131  2933               	goto	u4871
  1594  0132  2934               	goto	u4870
  1595  0133                     u4871:	
  1596  0133  2938               	goto	l4082
  1597  0134                     u4870:	
  1598  0134                     l4080:	
  1599                           
  1600                           ;MasterPapu.c: 281:            set = -1;
  1601  0134  30FF               	movlw	255
  1602  0135  00E0               	movwf	_set
  1603  0136  30FF               	movlw	255
  1604  0137  00E1               	movwf	_set+1
  1605  0138                     l4082:	
  1606                           
  1607                           ;MasterPapu.c: 283:       if(set_count && set)
  1608  0138  0862               	movf	_set_count,w
  1609  0139  0463               	iorwf	_set_count+1,w
  1610  013A  1903               	btfsc	3,2
  1611  013B  293D               	goto	u4881
  1612  013C  293E               	goto	u4880
  1613  013D                     u4881:	
  1614  013D  2B4E               	goto	l4176
  1615  013E                     u4880:	
  1616  013E                     l4084:	
  1617  013E  0860               	movf	_set,w
  1618  013F  0461               	iorwf	_set+1,w
  1619  0140  1903               	btfsc	3,2
  1620  0141  2943               	goto	u4891
  1621  0142  2944               	goto	u4890
  1622  0143                     u4891:	
  1623  0143  2B4E               	goto	l4176
  1624  0144                     u4890:	
  1625  0144  2B35               	goto	l4174
  1626  0145                     l4088:	
  1627                           
  1628                           ;MasterPapu.c: 288:                   hour = BCD2Binary(hour);
  1629  0145  086B               	movf	_hour+1,w
  1630  0146  00F7               	movwf	BCD2Binary@a+1
  1631  0147  086A               	movf	_hour,w
  1632  0148  00F6               	movwf	BCD2Binary@a
  1633  0149  160A  118A  2655  120A  118A  	fcall	_BCD2Binary
  1634  014E  0877               	movf	?_BCD2Binary+1,w
  1635  014F  1283               	bcf	3,5	;RP0=0, select bank0
  1636  0150  1303               	bcf	3,6	;RP1=0, select bank0
  1637  0151  00EB               	movwf	_hour+1
  1638  0152  0876               	movf	?_BCD2Binary,w
  1639  0153  00EA               	movwf	_hour
  1640  0154                     l4090:	
  1641                           
  1642                           ;MasterPapu.c: 289:                   hour = hour + set;
  1643  0154  0860               	movf	_set,w
  1644  0155  076A               	addwf	_hour,w
  1645  0156  00EA               	movwf	_hour
  1646  0157  0861               	movf	_set+1,w
  1647  0158  1803               	skipnc
  1648  0159  0A61               	incf	_set+1,w
  1649  015A  076B               	addwf	_hour+1,w
  1650  015B  00EB               	movwf	_hour+1
  1651  015C                     l4092:	
  1652                           
  1653                           ;MasterPapu.c: 290:                   hour = Binary2BCD(hour);
  1654  015C  086B               	movf	_hour+1,w
  1655  015D  00A9               	movwf	Binary2BCD@a+1
  1656  015E  086A               	movf	_hour,w
  1657  015F  00A8               	movwf	Binary2BCD@a
  1658  0160  120A  158A  2017  120A  118A  	fcall	_Binary2BCD
  1659  0165  1283               	bcf	3,5	;RP0=0, select bank0
  1660  0166  1303               	bcf	3,6	;RP1=0, select bank0
  1661  0167  0829               	movf	?_Binary2BCD+1,w
  1662  0168  00EB               	movwf	_hour+1
  1663  0169  0828               	movf	?_Binary2BCD,w
  1664  016A  00EA               	movwf	_hour
  1665  016B                     l4094:	
  1666                           
  1667                           ;MasterPapu.c: 291:                   if((hour & 0x1F) >= 0x13)
  1668  016B  301F               	movlw	31
  1669  016C  056A               	andwf	_hour,w
  1670  016D  00D9               	movwf	??_main
  1671  016E  3000               	movlw	0
  1672  016F  056B               	andwf	_hour+1,w
  1673  0170  00DA               	movwf	??_main+1
  1674  0171  085A               	movf	??_main+1,w
  1675  0172  3A80               	xorlw	128
  1676  0173  00FF               	movwf	btemp+1
  1677  0174  3080               	movlw	128
  1678  0175  027F               	subwf	btemp+1,w
  1679  0176  1D03               	skipz
  1680  0177  297A               	goto	u4905
  1681  0178  3013               	movlw	19
  1682  0179  0259               	subwf	??_main,w
  1683  017A                     u4905:	
  1684  017A  1C03               	skipc
  1685  017B  297D               	goto	u4901
  1686  017C  297E               	goto	u4900
  1687  017D                     u4901:	
  1688  017D  298D               	goto	l4098
  1689  017E                     u4900:	
  1690  017E                     l4096:	
  1691                           
  1692                           ;MasterPapu.c: 292:                   {;MasterPapu.c: 293:                     hour = ho
      +                          ur & 0b11100001;
  1693  017E  30E1               	movlw	225
  1694  017F  1283               	bcf	3,5	;RP0=0, select bank0
  1695  0180  1303               	bcf	3,6	;RP1=0, select bank0
  1696  0181  056A               	andwf	_hour,w
  1697  0182  00EA               	movwf	_hour
  1698  0183  3000               	movlw	0
  1699  0184  056B               	andwf	_hour+1,w
  1700  0185  00EB               	movwf	_hour+1
  1701                           
  1702                           ;MasterPapu.c: 294:                     hour = hour ^ 0x20;
  1703  0186  3020               	movlw	32
  1704  0187  066A               	xorwf	_hour,w
  1705  0188  00EA               	movwf	_hour
  1706  0189  3000               	movlw	0
  1707  018A  066B               	xorwf	_hour+1,w
  1708  018B  00EB               	movwf	_hour+1
  1709                           
  1710                           ;MasterPapu.c: 295:                   }
  1711  018C  29B0               	goto	l4102
  1712  018D                     l4098:	
  1713  018D  301F               	movlw	31
  1714  018E  1283               	bcf	3,5	;RP0=0, select bank0
  1715  018F  1303               	bcf	3,6	;RP1=0, select bank0
  1716  0190  056A               	andwf	_hour,w
  1717  0191  00D9               	movwf	??_main
  1718  0192  3000               	movlw	0
  1719  0193  056B               	andwf	_hour+1,w
  1720  0194  00DA               	movwf	??_main+1
  1721  0195  085A               	movf	??_main+1,w
  1722  0196  3A80               	xorlw	128
  1723  0197  00FF               	movwf	btemp+1
  1724  0198  3080               	movlw	128
  1725  0199  027F               	subwf	btemp+1,w
  1726  019A  1D03               	skipz
  1727  019B  299E               	goto	u4915
  1728  019C  3001               	movlw	1
  1729  019D  0259               	subwf	??_main,w
  1730  019E                     u4915:	
  1731  019E  1803               	skipnc
  1732  019F  29A1               	goto	u4911
  1733  01A0  29A2               	goto	u4910
  1734  01A1                     u4911:	
  1735  01A1  29B0               	goto	l4102
  1736  01A2                     u4910:	
  1737  01A2                     l4100:	
  1738                           
  1739                           ;MasterPapu.c: 297:                   {;MasterPapu.c: 298:                      hour = h
      +                          our | 0b00010010;
  1740  01A2  3012               	movlw	18
  1741  01A3  1283               	bcf	3,5	;RP0=0, select bank0
  1742  01A4  1303               	bcf	3,6	;RP1=0, select bank0
  1743  01A5  046A               	iorwf	_hour,w
  1744  01A6  00EA               	movwf	_hour
  1745  01A7  3000               	movlw	0
  1746  01A8  046B               	iorwf	_hour+1,w
  1747  01A9  00EB               	movwf	_hour+1
  1748                           
  1749                           ;MasterPapu.c: 299:                      hour = hour ^ 0x20;
  1750  01AA  3020               	movlw	32
  1751  01AB  066A               	xorwf	_hour,w
  1752  01AC  00EA               	movwf	_hour
  1753  01AD  3000               	movlw	0
  1754  01AE  066B               	xorwf	_hour+1,w
  1755  01AF  00EB               	movwf	_hour+1
  1756  01B0                     l4102:	
  1757                           
  1758                           ;MasterPapu.c: 301:                   write_ds1307(2, hour);
  1759  01B0  3002               	movlw	2
  1760  01B1  00F2               	movwf	write_ds1307@address
  1761  01B2  3000               	movlw	0
  1762  01B3  00F3               	movwf	write_ds1307@address+1
  1763  01B4  1283               	bcf	3,5	;RP0=0, select bank0
  1764  01B5  1303               	bcf	3,6	;RP1=0, select bank0
  1765  01B6  086B               	movf	_hour+1,w
  1766  01B7  00F5               	movwf	write_ds1307@w_data+1
  1767  01B8  086A               	movf	_hour,w
  1768  01B9  00F4               	movwf	write_ds1307@w_data
  1769  01BA  160A  118A  2469  120A  118A  	fcall	_write_ds1307
  1770                           
  1771                           ;MasterPapu.c: 302:                   break;
  1772  01BF  2B4E               	goto	l4176
  1773  01C0                     l4104:	
  1774                           
  1775                           ;MasterPapu.c: 304:                   minute = BCD2Binary(minute);
  1776  01C0  086D               	movf	_minute+1,w
  1777  01C1  00F7               	movwf	BCD2Binary@a+1
  1778  01C2  086C               	movf	_minute,w
  1779  01C3  00F6               	movwf	BCD2Binary@a
  1780  01C4  160A  118A  2655  120A  118A  	fcall	_BCD2Binary
  1781  01C9  0877               	movf	?_BCD2Binary+1,w
  1782  01CA  1283               	bcf	3,5	;RP0=0, select bank0
  1783  01CB  1303               	bcf	3,6	;RP1=0, select bank0
  1784  01CC  00ED               	movwf	_minute+1
  1785  01CD  0876               	movf	?_BCD2Binary,w
  1786  01CE  00EC               	movwf	_minute
  1787  01CF                     l4106:	
  1788                           
  1789                           ;MasterPapu.c: 305:                   minute = minute + set;
  1790  01CF  0860               	movf	_set,w
  1791  01D0  076C               	addwf	_minute,w
  1792  01D1  00EC               	movwf	_minute
  1793  01D2  0861               	movf	_set+1,w
  1794  01D3  1803               	skipnc
  1795  01D4  0A61               	incf	_set+1,w
  1796  01D5  076D               	addwf	_minute+1,w
  1797  01D6  00ED               	movwf	_minute+1
  1798  01D7                     l4108:	
  1799                           
  1800                           ;MasterPapu.c: 306:                   if(minute >= 60)
  1801  01D7  086D               	movf	_minute+1,w
  1802  01D8  3A80               	xorlw	128
  1803  01D9  00FF               	movwf	btemp+1
  1804  01DA  3080               	movlw	128
  1805  01DB  027F               	subwf	btemp+1,w
  1806  01DC  1D03               	skipz
  1807  01DD  29E0               	goto	u4925
  1808  01DE  303C               	movlw	60
  1809  01DF  026C               	subwf	_minute,w
  1810  01E0                     u4925:	
  1811  01E0  1C03               	skipc
  1812  01E1  29E3               	goto	u4921
  1813  01E2  29E4               	goto	u4920
  1814  01E3                     u4921:	
  1815  01E3  29E8               	goto	l4112
  1816  01E4                     u4920:	
  1817  01E4                     l4110:	
  1818                           
  1819                           ;MasterPapu.c: 307:                     minute = 0;
  1820  01E4  1283               	bcf	3,5	;RP0=0, select bank0
  1821  01E5  1303               	bcf	3,6	;RP1=0, select bank0
  1822  01E6  01EC               	clrf	_minute
  1823  01E7  01ED               	clrf	_minute+1
  1824  01E8                     l4112:	
  1825                           
  1826                           ;MasterPapu.c: 308:                   if(minute < 0)
  1827  01E8  1283               	bcf	3,5	;RP0=0, select bank0
  1828  01E9  1303               	bcf	3,6	;RP1=0, select bank0
  1829  01EA  1FED               	btfss	_minute+1,7
  1830  01EB  29ED               	goto	u4931
  1831  01EC  29EE               	goto	u4930
  1832  01ED                     u4931:	
  1833  01ED  29F2               	goto	l4116
  1834  01EE                     u4930:	
  1835  01EE                     l4114:	
  1836                           
  1837                           ;MasterPapu.c: 309:                     minute = 59;
  1838  01EE  303B               	movlw	59
  1839  01EF  00EC               	movwf	_minute
  1840  01F0  3000               	movlw	0
  1841  01F1  00ED               	movwf	_minute+1
  1842  01F2                     l4116:	
  1843                           
  1844                           ;MasterPapu.c: 310:                   minute = Binary2BCD(minute);
  1845  01F2  086D               	movf	_minute+1,w
  1846  01F3  00A9               	movwf	Binary2BCD@a+1
  1847  01F4  086C               	movf	_minute,w
  1848  01F5  00A8               	movwf	Binary2BCD@a
  1849  01F6  120A  158A  2017  120A  118A  	fcall	_Binary2BCD
  1850  01FB  1283               	bcf	3,5	;RP0=0, select bank0
  1851  01FC  1303               	bcf	3,6	;RP1=0, select bank0
  1852  01FD  0829               	movf	?_Binary2BCD+1,w
  1853  01FE  00ED               	movwf	_minute+1
  1854  01FF  0828               	movf	?_Binary2BCD,w
  1855  0200  00EC               	movwf	_minute
  1856  0201                     l4118:	
  1857                           
  1858                           ;MasterPapu.c: 311:                   write_ds1307(1, minute);
  1859  0201  3001               	movlw	1
  1860  0202  00F2               	movwf	write_ds1307@address
  1861  0203  3000               	movlw	0
  1862  0204  00F3               	movwf	write_ds1307@address+1
  1863  0205  086D               	movf	_minute+1,w
  1864  0206  00F5               	movwf	write_ds1307@w_data+1
  1865  0207  086C               	movf	_minute,w
  1866  0208  00F4               	movwf	write_ds1307@w_data
  1867  0209  160A  118A  2469  120A  118A  	fcall	_write_ds1307
  1868                           
  1869                           ;MasterPapu.c: 312:                   break;
  1870  020E  2B4E               	goto	l4176
  1871  020F                     l4120:	
  1872                           
  1873                           ;MasterPapu.c: 314:                   if(abs(set))
  1874  020F  0861               	movf	_set+1,w
  1875  0210  00F1               	movwf	abs@a+1
  1876  0211  0860               	movf	_set,w
  1877  0212  00F0               	movwf	abs@a
  1878  0213  160A  118A  23C4  120A  118A  	fcall	_abs
  1879  0218  0870               	movf	?_abs,w
  1880  0219  0471               	iorwf	?_abs+1,w
  1881  021A  1903               	btfsc	3,2
  1882  021B  2A1D               	goto	u4941
  1883  021C  2A1E               	goto	u4940
  1884  021D                     u4941:	
  1885  021D  2B4E               	goto	l245
  1886  021E                     u4940:	
  1887  021E                     l4122:	
  1888                           
  1889                           ;MasterPapu.c: 315:                   write_ds1307(0,0x00);
  1890  021E  3000               	movlw	0
  1891  021F  00F2               	movwf	write_ds1307@address
  1892  0220  00F3               	movwf	write_ds1307@address+1
  1893  0221  3000               	movlw	0
  1894  0222  00F4               	movwf	write_ds1307@w_data
  1895  0223  00F5               	movwf	write_ds1307@w_data+1
  1896  0224  160A  118A  2469  120A  118A  	fcall	_write_ds1307
  1897  0229  2B4E               	goto	l4176
  1898  022A                     l4124:	
  1899                           
  1900                           ;MasterPapu.c: 318:                   day = BCD2Binary(day);
  1901  022A  0869               	movf	_day+1,w
  1902  022B  00F7               	movwf	BCD2Binary@a+1
  1903  022C  0868               	movf	_day,w
  1904  022D  00F6               	movwf	BCD2Binary@a
  1905  022E  160A  118A  2655  120A  118A  	fcall	_BCD2Binary
  1906  0233  0877               	movf	?_BCD2Binary+1,w
  1907  0234  1283               	bcf	3,5	;RP0=0, select bank0
  1908  0235  1303               	bcf	3,6	;RP1=0, select bank0
  1909  0236  00E9               	movwf	_day+1
  1910  0237  0876               	movf	?_BCD2Binary,w
  1911  0238  00E8               	movwf	_day
  1912  0239                     l4126:	
  1913                           
  1914                           ;MasterPapu.c: 319:                   day = day + set;
  1915  0239  0860               	movf	_set,w
  1916  023A  0768               	addwf	_day,w
  1917  023B  00E8               	movwf	_day
  1918  023C  0861               	movf	_set+1,w
  1919  023D  1803               	skipnc
  1920  023E  0A61               	incf	_set+1,w
  1921  023F  0769               	addwf	_day+1,w
  1922  0240  00E9               	movwf	_day+1
  1923  0241                     l4128:	
  1924                           
  1925                           ;MasterPapu.c: 320:                   day = Binary2BCD(day);
  1926  0241  0869               	movf	_day+1,w
  1927  0242  00A9               	movwf	Binary2BCD@a+1
  1928  0243  0868               	movf	_day,w
  1929  0244  00A8               	movwf	Binary2BCD@a
  1930  0245  120A  158A  2017  120A  118A  	fcall	_Binary2BCD
  1931  024A  1283               	bcf	3,5	;RP0=0, select bank0
  1932  024B  1303               	bcf	3,6	;RP1=0, select bank0
  1933  024C  0829               	movf	?_Binary2BCD+1,w
  1934  024D  00E9               	movwf	_day+1
  1935  024E  0828               	movf	?_Binary2BCD,w
  1936  024F  00E8               	movwf	_day
  1937  0250                     l4130:	
  1938                           
  1939                           ;MasterPapu.c: 321:                   if(day >= 0x32)
  1940  0250  0869               	movf	_day+1,w
  1941  0251  3A80               	xorlw	128
  1942  0252  00FF               	movwf	btemp+1
  1943  0253  3080               	movlw	128
  1944  0254  027F               	subwf	btemp+1,w
  1945  0255  1D03               	skipz
  1946  0256  2A59               	goto	u4955
  1947  0257  3032               	movlw	50
  1948  0258  0268               	subwf	_day,w
  1949  0259                     u4955:	
  1950  0259  1C03               	skipc
  1951  025A  2A5C               	goto	u4951
  1952  025B  2A5D               	goto	u4950
  1953  025C                     u4951:	
  1954  025C  2A63               	goto	l4134
  1955  025D                     u4950:	
  1956  025D                     l4132:	
  1957                           
  1958                           ;MasterPapu.c: 322:                     day = 1;
  1959  025D  3001               	movlw	1
  1960  025E  1283               	bcf	3,5	;RP0=0, select bank0
  1961  025F  1303               	bcf	3,6	;RP1=0, select bank0
  1962  0260  00E8               	movwf	_day
  1963  0261  3000               	movlw	0
  1964  0262  00E9               	movwf	_day+1
  1965  0263                     l4134:	
  1966                           
  1967                           ;MasterPapu.c: 323:                   if(day <= 0)
  1968  0263  1283               	bcf	3,5	;RP0=0, select bank0
  1969  0264  1303               	bcf	3,6	;RP1=0, select bank0
  1970  0265  0869               	movf	_day+1,w
  1971  0266  3A80               	xorlw	128
  1972  0267  00FF               	movwf	btemp+1
  1973  0268  3080               	movlw	128
  1974  0269  027F               	subwf	btemp+1,w
  1975  026A  1D03               	skipz
  1976  026B  2A6E               	goto	u4965
  1977  026C  3001               	movlw	1
  1978  026D  0268               	subwf	_day,w
  1979  026E                     u4965:	
  1980  026E  1803               	skipnc
  1981  026F  2A71               	goto	u4961
  1982  0270  2A72               	goto	u4960
  1983  0271                     u4961:	
  1984  0271  2A78               	goto	l4138
  1985  0272                     u4960:	
  1986  0272                     l4136:	
  1987                           
  1988                           ;MasterPapu.c: 324:                     day = 0x31;
  1989  0272  3031               	movlw	49
  1990  0273  1283               	bcf	3,5	;RP0=0, select bank0
  1991  0274  1303               	bcf	3,6	;RP1=0, select bank0
  1992  0275  00E8               	movwf	_day
  1993  0276  3000               	movlw	0
  1994  0277  00E9               	movwf	_day+1
  1995  0278                     l4138:	
  1996                           
  1997                           ;MasterPapu.c: 325:                   write_ds1307(4, day);
  1998  0278  3004               	movlw	4
  1999  0279  00F2               	movwf	write_ds1307@address
  2000  027A  3000               	movlw	0
  2001  027B  00F3               	movwf	write_ds1307@address+1
  2002  027C  1283               	bcf	3,5	;RP0=0, select bank0
  2003  027D  1303               	bcf	3,6	;RP1=0, select bank0
  2004  027E  0869               	movf	_day+1,w
  2005  027F  00F5               	movwf	write_ds1307@w_data+1
  2006  0280  0868               	movf	_day,w
  2007  0281  00F4               	movwf	write_ds1307@w_data
  2008  0282  160A  118A  2469  120A  118A  	fcall	_write_ds1307
  2009                           
  2010                           ;MasterPapu.c: 326:                   break;
  2011  0287  2B4E               	goto	l4176
  2012  0288                     l4140:	
  2013                           
  2014                           ;MasterPapu.c: 328:                   month = BCD2Binary(month);
  2015  0288  0867               	movf	_month+1,w
  2016  0289  00F7               	movwf	BCD2Binary@a+1
  2017  028A  0866               	movf	_month,w
  2018  028B  00F6               	movwf	BCD2Binary@a
  2019  028C  160A  118A  2655  120A  118A  	fcall	_BCD2Binary
  2020  0291  0877               	movf	?_BCD2Binary+1,w
  2021  0292  1283               	bcf	3,5	;RP0=0, select bank0
  2022  0293  1303               	bcf	3,6	;RP1=0, select bank0
  2023  0294  00E7               	movwf	_month+1
  2024  0295  0876               	movf	?_BCD2Binary,w
  2025  0296  00E6               	movwf	_month
  2026  0297                     l4142:	
  2027                           
  2028                           ;MasterPapu.c: 329:                   month = month + set;
  2029  0297  0860               	movf	_set,w
  2030  0298  0766               	addwf	_month,w
  2031  0299  00E6               	movwf	_month
  2032  029A  0861               	movf	_set+1,w
  2033  029B  1803               	skipnc
  2034  029C  0A61               	incf	_set+1,w
  2035  029D  0767               	addwf	_month+1,w
  2036  029E  00E7               	movwf	_month+1
  2037  029F                     l4144:	
  2038                           
  2039                           ;MasterPapu.c: 330:                   month = Binary2BCD(month);
  2040  029F  0867               	movf	_month+1,w
  2041  02A0  00A9               	movwf	Binary2BCD@a+1
  2042  02A1  0866               	movf	_month,w
  2043  02A2  00A8               	movwf	Binary2BCD@a
  2044  02A3  120A  158A  2017  120A  118A  	fcall	_Binary2BCD
  2045  02A8  1283               	bcf	3,5	;RP0=0, select bank0
  2046  02A9  1303               	bcf	3,6	;RP1=0, select bank0
  2047  02AA  0829               	movf	?_Binary2BCD+1,w
  2048  02AB  00E7               	movwf	_month+1
  2049  02AC  0828               	movf	?_Binary2BCD,w
  2050  02AD  00E6               	movwf	_month
  2051  02AE                     l4146:	
  2052                           
  2053                           ;MasterPapu.c: 331:                   if(month > 0x12)
  2054  02AE  0867               	movf	_month+1,w
  2055  02AF  3A80               	xorlw	128
  2056  02B0  00FF               	movwf	btemp+1
  2057  02B1  3080               	movlw	128
  2058  02B2  027F               	subwf	btemp+1,w
  2059  02B3  1D03               	skipz
  2060  02B4  2AB7               	goto	u4975
  2061  02B5  3013               	movlw	19
  2062  02B6  0266               	subwf	_month,w
  2063  02B7                     u4975:	
  2064  02B7  1C03               	skipc
  2065  02B8  2ABA               	goto	u4971
  2066  02B9  2ABB               	goto	u4970
  2067  02BA                     u4971:	
  2068  02BA  2AC1               	goto	l4150
  2069  02BB                     u4970:	
  2070  02BB                     l4148:	
  2071                           
  2072                           ;MasterPapu.c: 332:                     month = 1;
  2073  02BB  3001               	movlw	1
  2074  02BC  1283               	bcf	3,5	;RP0=0, select bank0
  2075  02BD  1303               	bcf	3,6	;RP1=0, select bank0
  2076  02BE  00E6               	movwf	_month
  2077  02BF  3000               	movlw	0
  2078  02C0  00E7               	movwf	_month+1
  2079  02C1                     l4150:	
  2080                           
  2081                           ;MasterPapu.c: 333:                   if(month <= 0)
  2082  02C1  1283               	bcf	3,5	;RP0=0, select bank0
  2083  02C2  1303               	bcf	3,6	;RP1=0, select bank0
  2084  02C3  0867               	movf	_month+1,w
  2085  02C4  3A80               	xorlw	128
  2086  02C5  00FF               	movwf	btemp+1
  2087  02C6  3080               	movlw	128
  2088  02C7  027F               	subwf	btemp+1,w
  2089  02C8  1D03               	skipz
  2090  02C9  2ACC               	goto	u4985
  2091  02CA  3001               	movlw	1
  2092  02CB  0266               	subwf	_month,w
  2093  02CC                     u4985:	
  2094  02CC  1803               	skipnc
  2095  02CD  2ACF               	goto	u4981
  2096  02CE  2AD0               	goto	u4980
  2097  02CF                     u4981:	
  2098  02CF  2AD6               	goto	l4154
  2099  02D0                     u4980:	
  2100  02D0                     l4152:	
  2101                           
  2102                           ;MasterPapu.c: 334:                     month = 0x12;
  2103  02D0  3012               	movlw	18
  2104  02D1  1283               	bcf	3,5	;RP0=0, select bank0
  2105  02D2  1303               	bcf	3,6	;RP1=0, select bank0
  2106  02D3  00E6               	movwf	_month
  2107  02D4  3000               	movlw	0
  2108  02D5  00E7               	movwf	_month+1
  2109  02D6                     l4154:	
  2110                           
  2111                           ;MasterPapu.c: 335:                   write_ds1307(5,month);
  2112  02D6  3005               	movlw	5
  2113  02D7  00F2               	movwf	write_ds1307@address
  2114  02D8  3000               	movlw	0
  2115  02D9  00F3               	movwf	write_ds1307@address+1
  2116  02DA  1283               	bcf	3,5	;RP0=0, select bank0
  2117  02DB  1303               	bcf	3,6	;RP1=0, select bank0
  2118  02DC  0867               	movf	_month+1,w
  2119  02DD  00F5               	movwf	write_ds1307@w_data+1
  2120  02DE  0866               	movf	_month,w
  2121  02DF  00F4               	movwf	write_ds1307@w_data
  2122  02E0  160A  118A  2469  120A  118A  	fcall	_write_ds1307
  2123                           
  2124                           ;MasterPapu.c: 336:                   break;
  2125  02E5  2B4E               	goto	l4176
  2126  02E6                     l4156:	
  2127                           
  2128                           ;MasterPapu.c: 338:                   year = BCD2Binary(year);
  2129  02E6  0865               	movf	_year+1,w
  2130  02E7  00F7               	movwf	BCD2Binary@a+1
  2131  02E8  0864               	movf	_year,w
  2132  02E9  00F6               	movwf	BCD2Binary@a
  2133  02EA  160A  118A  2655  120A  118A  	fcall	_BCD2Binary
  2134  02EF  0877               	movf	?_BCD2Binary+1,w
  2135  02F0  1283               	bcf	3,5	;RP0=0, select bank0
  2136  02F1  1303               	bcf	3,6	;RP1=0, select bank0
  2137  02F2  00E5               	movwf	_year+1
  2138  02F3  0876               	movf	?_BCD2Binary,w
  2139  02F4  00E4               	movwf	_year
  2140  02F5                     l4158:	
  2141                           
  2142                           ;MasterPapu.c: 339:                   year = year + set;
  2143  02F5  0860               	movf	_set,w
  2144  02F6  0764               	addwf	_year,w
  2145  02F7  00E4               	movwf	_year
  2146  02F8  0861               	movf	_set+1,w
  2147  02F9  1803               	skipnc
  2148  02FA  0A61               	incf	_set+1,w
  2149  02FB  0765               	addwf	_year+1,w
  2150  02FC  00E5               	movwf	_year+1
  2151  02FD                     l4160:	
  2152                           
  2153                           ;MasterPapu.c: 340:                   year = Binary2BCD(year);
  2154  02FD  0865               	movf	_year+1,w
  2155  02FE  00A9               	movwf	Binary2BCD@a+1
  2156  02FF  0864               	movf	_year,w
  2157  0300  00A8               	movwf	Binary2BCD@a
  2158  0301  120A  158A  2017  120A  118A  	fcall	_Binary2BCD
  2159  0306  1283               	bcf	3,5	;RP0=0, select bank0
  2160  0307  1303               	bcf	3,6	;RP1=0, select bank0
  2161  0308  0829               	movf	?_Binary2BCD+1,w
  2162  0309  00E5               	movwf	_year+1
  2163  030A  0828               	movf	?_Binary2BCD,w
  2164  030B  00E4               	movwf	_year
  2165  030C                     l4162:	
  2166                           
  2167                           ;MasterPapu.c: 341:                   if(year <= -1)
  2168  030C  1FE5               	btfss	_year+1,7
  2169  030D  2B0F               	goto	u4991
  2170  030E  2B10               	goto	u4990
  2171  030F                     u4991:	
  2172  030F  2B14               	goto	l4166
  2173  0310                     u4990:	
  2174  0310                     l4164:	
  2175                           
  2176                           ;MasterPapu.c: 342:                     year = 0x99;
  2177  0310  3099               	movlw	153
  2178  0311  00E4               	movwf	_year
  2179  0312  3000               	movlw	0
  2180  0313  00E5               	movwf	_year+1
  2181  0314                     l4166:	
  2182                           
  2183                           ;MasterPapu.c: 343:                   if(year >= 0x50)
  2184  0314  0865               	movf	_year+1,w
  2185  0315  3A80               	xorlw	128
  2186  0316  00FF               	movwf	btemp+1
  2187  0317  3080               	movlw	128
  2188  0318  027F               	subwf	btemp+1,w
  2189  0319  1D03               	skipz
  2190  031A  2B1D               	goto	u5005
  2191  031B  3050               	movlw	80
  2192  031C  0264               	subwf	_year,w
  2193  031D                     u5005:	
  2194  031D  1C03               	skipc
  2195  031E  2B20               	goto	u5001
  2196  031F  2B21               	goto	u5000
  2197  0320                     u5001:	
  2198  0320  2B25               	goto	l4170
  2199  0321                     u5000:	
  2200  0321                     l4168:	
  2201                           
  2202                           ;MasterPapu.c: 344:                     year = 0;
  2203  0321  1283               	bcf	3,5	;RP0=0, select bank0
  2204  0322  1303               	bcf	3,6	;RP1=0, select bank0
  2205  0323  01E4               	clrf	_year
  2206  0324  01E5               	clrf	_year+1
  2207  0325                     l4170:	
  2208                           
  2209                           ;MasterPapu.c: 345:                   write_ds1307(6, year);
  2210  0325  3006               	movlw	6
  2211  0326  00F2               	movwf	write_ds1307@address
  2212  0327  3000               	movlw	0
  2213  0328  00F3               	movwf	write_ds1307@address+1
  2214  0329  1283               	bcf	3,5	;RP0=0, select bank0
  2215  032A  1303               	bcf	3,6	;RP1=0, select bank0
  2216  032B  0865               	movf	_year+1,w
  2217  032C  00F5               	movwf	write_ds1307@w_data+1
  2218  032D  0864               	movf	_year,w
  2219  032E  00F4               	movwf	write_ds1307@w_data
  2220  032F  160A  118A  2469  120A  118A  	fcall	_write_ds1307
  2221                           
  2222                           ;MasterPapu.c: 346:                   break;
  2223  0334  2B4E               	goto	l4176
  2224  0335                     l4174:	
  2225                           
  2226                           ; Switch on 2 bytes has been partitioned into a top level switch of size 1, and 1 sub-sw
      +                          itches
  2227                           ; Switch size 1, requested type "simple"
  2228                           ; Number of cases is 1, Range of values is 0 to 0
  2229                           ; switch strategies available:
  2230                           ; Name         Instructions Cycles
  2231                           ; simple_byte            4     3 (average)
  2232                           ; direct_byte           11     8 (fixed)
  2233                           ; jumptable            260     6 (fixed)
  2234                           ;	Chosen strategy is simple_byte
  2235  0335  0863               	movf	_set_count+1,w
  2236  0336  3A00               	xorlw	0	; case 0
  2237  0337  1903               	skipnz
  2238  0338  2B3A               	goto	l4372
  2239  0339  2B4E               	goto	l4176
  2240  033A                     l4372:	
  2241                           
  2242                           ; Switch size 1, requested type "simple"
  2243                           ; Number of cases is 6, Range of values is 1 to 6
  2244                           ; switch strategies available:
  2245                           ; Name         Instructions Cycles
  2246                           ; simple_byte           19    10 (average)
  2247                           ; direct_byte           29    11 (fixed)
  2248                           ; jumptable            263     9 (fixed)
  2249                           ;	Chosen strategy is simple_byte
  2250  033A  0862               	movf	_set_count,w
  2251  033B  3A01               	xorlw	1	; case 1
  2252  033C  1903               	skipnz
  2253  033D  2945               	goto	l4088
  2254  033E  3A03               	xorlw	3	; case 2
  2255  033F  1903               	skipnz
  2256  0340  29C0               	goto	l4104
  2257  0341  3A01               	xorlw	1	; case 3
  2258  0342  1903               	skipnz
  2259  0343  2A0F               	goto	l4120
  2260  0344  3A07               	xorlw	7	; case 4
  2261  0345  1903               	skipnz
  2262  0346  2A2A               	goto	l4124
  2263  0347  3A01               	xorlw	1	; case 5
  2264  0348  1903               	skipnz
  2265  0349  2A88               	goto	l4140
  2266  034A  3A03               	xorlw	3	; case 6
  2267  034B  1903               	skipnz
  2268  034C  2AE6               	goto	l4156
  2269  034D  2B4E               	goto	l4176
  2270  034E                     l245:	
  2271                           ;MasterPapu.c: 349:       }
  2272                           
  2273  034E                     l4176:	
  2274                           
  2275                           ;MasterPapu.c: 352:     second = read_ds1307(0);
  2276  034E  3000               	movlw	0
  2277  034F  00F6               	movwf	read_ds1307@address
  2278  0350  00F7               	movwf	read_ds1307@address+1
  2279  0351  160A  118A  261A  120A  118A  	fcall	_read_ds1307
  2280  0356  0877               	movf	?_read_ds1307+1,w
  2281  0357  1683               	bsf	3,5	;RP0=1, select bank1
  2282  0358  1303               	bcf	3,6	;RP1=0, select bank1
  2283  0359  00E7               	movwf	(_second+1)^(0+128)
  2284  035A  0876               	movf	?_read_ds1307,w
  2285  035B  00E6               	movwf	_second^(0+128)
  2286                           
  2287                           ;MasterPapu.c: 353:     minute = read_ds1307(1);
  2288  035C  3001               	movlw	1
  2289  035D  00F6               	movwf	read_ds1307@address
  2290  035E  3000               	movlw	0
  2291  035F  00F7               	movwf	read_ds1307@address+1
  2292  0360  160A  118A  261A  120A  118A  	fcall	_read_ds1307
  2293  0365  0877               	movf	?_read_ds1307+1,w
  2294  0366  1283               	bcf	3,5	;RP0=0, select bank0
  2295  0367  1303               	bcf	3,6	;RP1=0, select bank0
  2296  0368  00ED               	movwf	_minute+1
  2297  0369  0876               	movf	?_read_ds1307,w
  2298  036A  00EC               	movwf	_minute
  2299                           
  2300                           ;MasterPapu.c: 354:     hour = read_ds1307(2);
  2301  036B  3002               	movlw	2
  2302  036C  00F6               	movwf	read_ds1307@address
  2303  036D  3000               	movlw	0
  2304  036E  00F7               	movwf	read_ds1307@address+1
  2305  036F  160A  118A  261A  120A  118A  	fcall	_read_ds1307
  2306  0374  0877               	movf	?_read_ds1307+1,w
  2307  0375  1283               	bcf	3,5	;RP0=0, select bank0
  2308  0376  1303               	bcf	3,6	;RP1=0, select bank0
  2309  0377  00EB               	movwf	_hour+1
  2310  0378  0876               	movf	?_read_ds1307,w
  2311  0379  00EA               	movwf	_hour
  2312  037A                     l4178:	
  2313                           
  2314                           ;MasterPapu.c: 355:     hr = hour & 0b00011111;
  2315  037A  301F               	movlw	31
  2316  037B  056A               	andwf	_hour,w
  2317  037C  1683               	bsf	3,5	;RP0=1, select bank1
  2318  037D  1303               	bcf	3,6	;RP1=0, select bank1
  2319  037E  00E4               	movwf	_hr^(0+128)
  2320  037F  3000               	movlw	0
  2321  0380  1283               	bcf	3,5	;RP0=0, select bank0
  2322  0381  1303               	bcf	3,6	;RP1=0, select bank0
  2323  0382  056B               	andwf	_hour+1,w
  2324  0383  1683               	bsf	3,5	;RP0=1, select bank1
  2325  0384  1303               	bcf	3,6	;RP1=0, select bank1
  2326  0385  00E5               	movwf	(_hr+1)^(0+128)
  2327  0386                     l4180:	
  2328                           
  2329                           ;MasterPapu.c: 356:     ap = hour & 0b00100000;
  2330  0386  3020               	movlw	32
  2331  0387  1283               	bcf	3,5	;RP0=0, select bank0
  2332  0388  1303               	bcf	3,6	;RP1=0, select bank0
  2333  0389  056A               	andwf	_hour,w
  2334  038A  1683               	bsf	3,5	;RP0=1, select bank1
  2335  038B  1303               	bcf	3,6	;RP1=0, select bank1
  2336  038C  00E0               	movwf	_ap^(0+128)
  2337  038D  3000               	movlw	0
  2338  038E  1283               	bcf	3,5	;RP0=0, select bank0
  2339  038F  1303               	bcf	3,6	;RP1=0, select bank0
  2340  0390  056B               	andwf	_hour+1,w
  2341  0391  1683               	bsf	3,5	;RP0=1, select bank1
  2342  0392  1303               	bcf	3,6	;RP1=0, select bank1
  2343  0393  00E1               	movwf	(_ap+1)^(0+128)
  2344                           
  2345                           ;MasterPapu.c: 357:     day = read_ds1307(3);
  2346  0394  3003               	movlw	3
  2347  0395  00F6               	movwf	read_ds1307@address
  2348  0396  3000               	movlw	0
  2349  0397  00F7               	movwf	read_ds1307@address+1
  2350  0398  160A  118A  261A  120A  118A  	fcall	_read_ds1307
  2351  039D  0877               	movf	?_read_ds1307+1,w
  2352  039E  1283               	bcf	3,5	;RP0=0, select bank0
  2353  039F  1303               	bcf	3,6	;RP1=0, select bank0
  2354  03A0  00E9               	movwf	_day+1
  2355  03A1  0876               	movf	?_read_ds1307,w
  2356  03A2  00E8               	movwf	_day
  2357                           
  2358                           ;MasterPapu.c: 358:     day = read_ds1307(4);
  2359  03A3  3004               	movlw	4
  2360  03A4  00F6               	movwf	read_ds1307@address
  2361  03A5  3000               	movlw	0
  2362  03A6  00F7               	movwf	read_ds1307@address+1
  2363  03A7  160A  118A  261A  120A  118A  	fcall	_read_ds1307
  2364  03AC  0877               	movf	?_read_ds1307+1,w
  2365  03AD  1283               	bcf	3,5	;RP0=0, select bank0
  2366  03AE  1303               	bcf	3,6	;RP1=0, select bank0
  2367  03AF  00E9               	movwf	_day+1
  2368  03B0  0876               	movf	?_read_ds1307,w
  2369  03B1  00E8               	movwf	_day
  2370                           
  2371                           ;MasterPapu.c: 359:     month = read_ds1307(5);
  2372  03B2  3005               	movlw	5
  2373  03B3  00F6               	movwf	read_ds1307@address
  2374  03B4  3000               	movlw	0
  2375  03B5  00F7               	movwf	read_ds1307@address+1
  2376  03B6  160A  118A  261A  120A  118A  	fcall	_read_ds1307
  2377  03BB  0877               	movf	?_read_ds1307+1,w
  2378  03BC  1283               	bcf	3,5	;RP0=0, select bank0
  2379  03BD  1303               	bcf	3,6	;RP1=0, select bank0
  2380  03BE  00E7               	movwf	_month+1
  2381  03BF  0876               	movf	?_read_ds1307,w
  2382  03C0  00E6               	movwf	_month
  2383                           
  2384                           ;MasterPapu.c: 360:     year = read_ds1307(6);
  2385  03C1  3006               	movlw	6
  2386  03C2  00F6               	movwf	read_ds1307@address
  2387  03C3  3000               	movlw	0
  2388  03C4  00F7               	movwf	read_ds1307@address+1
  2389  03C5  160A  118A  261A  120A  118A  	fcall	_read_ds1307
  2390  03CA  0877               	movf	?_read_ds1307+1,w
  2391  03CB  1283               	bcf	3,5	;RP0=0, select bank0
  2392  03CC  1303               	bcf	3,6	;RP1=0, select bank0
  2393  03CD  00E5               	movwf	_year+1
  2394  03CE  0876               	movf	?_read_ds1307,w
  2395  03CF  00E4               	movwf	_year
  2396                           
  2397                           ;MasterPapu.c: 362:     time[0] = BCD2UpperCh(hr);
  2398  03D0  1683               	bsf	3,5	;RP0=1, select bank1
  2399  03D1  1303               	bcf	3,6	;RP1=0, select bank1
  2400  03D2  0864               	movf	_hr^(0+128),w
  2401  03D3  160A  118A  239E  120A  118A  	fcall	_BCD2UpperCh
  2402  03D8  1283               	bcf	3,5	;RP0=0, select bank0
  2403  03D9  1303               	bcf	3,6	;RP1=0, select bank0
  2404  03DA  00D9               	movwf	??_main
  2405  03DB  0859               	movf	??_main,w
  2406  03DC  1683               	bsf	3,5	;RP0=1, select bank1
  2407  03DD  1303               	bcf	3,6	;RP1=0, select bank1
  2408  03DE  00AF               	movwf	_time^(0+128)
  2409                           
  2410                           ;MasterPapu.c: 363:     time[1] = BCD2LowerCh(hr);
  2411  03DF  0864               	movf	_hr^(0+128),w
  2412  03E0  160A  118A  2367  120A  118A  	fcall	_BCD2LowerCh
  2413  03E5  1283               	bcf	3,5	;RP0=0, select bank0
  2414  03E6  1303               	bcf	3,6	;RP1=0, select bank0
  2415  03E7  00D9               	movwf	??_main
  2416  03E8  0859               	movf	??_main,w
  2417  03E9  1683               	bsf	3,5	;RP0=1, select bank1
  2418  03EA  1303               	bcf	3,6	;RP1=0, select bank1
  2419  03EB  00B0               	movwf	(_time^(0+128)+1)
  2420                           
  2421                           ;MasterPapu.c: 364:     time[3] = BCD2UpperCh(minute);
  2422  03EC  1283               	bcf	3,5	;RP0=0, select bank0
  2423  03ED  1303               	bcf	3,6	;RP1=0, select bank0
  2424  03EE  086C               	movf	_minute,w
  2425  03EF  160A  118A  239E  120A  118A  	fcall	_BCD2UpperCh
  2426  03F4  1283               	bcf	3,5	;RP0=0, select bank0
  2427  03F5  1303               	bcf	3,6	;RP1=0, select bank0
  2428  03F6  00D9               	movwf	??_main
  2429  03F7  0859               	movf	??_main,w
  2430  03F8  1683               	bsf	3,5	;RP0=1, select bank1
  2431  03F9  1303               	bcf	3,6	;RP1=0, select bank1
  2432  03FA  00B2               	movwf	(_time^(0+128)+3)
  2433                           
  2434                           ;MasterPapu.c: 365:     time[4] = BCD2LowerCh(minute);
  2435  03FB  1283               	bcf	3,5	;RP0=0, select bank0
  2436  03FC  1303               	bcf	3,6	;RP1=0, select bank0
  2437  03FD  086C               	movf	_minute,w
  2438  03FE  160A  118A  2367  120A  118A  	fcall	_BCD2LowerCh
  2439  0403  1283               	bcf	3,5	;RP0=0, select bank0
  2440  0404  1303               	bcf	3,6	;RP1=0, select bank0
  2441  0405  00D9               	movwf	??_main
  2442  0406  0859               	movf	??_main,w
  2443  0407  1683               	bsf	3,5	;RP0=1, select bank1
  2444  0408  1303               	bcf	3,6	;RP1=0, select bank1
  2445  0409  00B3               	movwf	(_time^(0+128)+4)
  2446                           
  2447                           ;MasterPapu.c: 366:     time[6] = BCD2UpperCh(second);
  2448  040A  0866               	movf	_second^(0+128),w
  2449  040B  160A  118A  239E  120A  118A  	fcall	_BCD2UpperCh
  2450  0410  1283               	bcf	3,5	;RP0=0, select bank0
  2451  0411  1303               	bcf	3,6	;RP1=0, select bank0
  2452  0412  00D9               	movwf	??_main
  2453  0413  0859               	movf	??_main,w
  2454  0414  1683               	bsf	3,5	;RP0=1, select bank1
  2455  0415  1303               	bcf	3,6	;RP1=0, select bank1
  2456  0416  00B5               	movwf	(_time^(0+128)+6)
  2457                           
  2458                           ;MasterPapu.c: 367:     time[7] = BCD2LowerCh(second);
  2459  0417  0866               	movf	_second^(0+128),w
  2460  0418  160A  118A  2367  120A  118A  	fcall	_BCD2LowerCh
  2461  041D  1283               	bcf	3,5	;RP0=0, select bank0
  2462  041E  1303               	bcf	3,6	;RP1=0, select bank0
  2463  041F  00D9               	movwf	??_main
  2464  0420  0859               	movf	??_main,w
  2465  0421  1683               	bsf	3,5	;RP0=1, select bank1
  2466  0422  1303               	bcf	3,6	;RP1=0, select bank1
  2467  0423  00B6               	movwf	(_time^(0+128)+7)
  2468                           
  2469                           ;MasterPapu.c: 369:     date[0] = BCD2UpperCh(day);
  2470  0424  1283               	bcf	3,5	;RP0=0, select bank0
  2471  0425  1303               	bcf	3,6	;RP1=0, select bank0
  2472  0426  0868               	movf	_day,w
  2473  0427  160A  118A  239E  120A  118A  	fcall	_BCD2UpperCh
  2474  042C  1283               	bcf	3,5	;RP0=0, select bank0
  2475  042D  1303               	bcf	3,6	;RP1=0, select bank0
  2476  042E  00D9               	movwf	??_main
  2477  042F  0859               	movf	??_main,w
  2478  0430  1683               	bsf	3,5	;RP0=1, select bank3
  2479  0431  1703               	bsf	3,6	;RP1=1, select bank3
  2480  0432  00A4               	movwf	_date^(0+384)
  2481                           
  2482                           ;MasterPapu.c: 370:     date[1] = BCD2LowerCh(day);
  2483  0433  1283               	bcf	3,5	;RP0=0, select bank0
  2484  0434  1303               	bcf	3,6	;RP1=0, select bank0
  2485  0435  0868               	movf	_day,w
  2486  0436  160A  118A  2367  120A  118A  	fcall	_BCD2LowerCh
  2487  043B  1283               	bcf	3,5	;RP0=0, select bank0
  2488  043C  1303               	bcf	3,6	;RP1=0, select bank0
  2489  043D  00D9               	movwf	??_main
  2490  043E  0859               	movf	??_main,w
  2491  043F  1683               	bsf	3,5	;RP0=1, select bank3
  2492  0440  1703               	bsf	3,6	;RP1=1, select bank3
  2493  0441  00A5               	movwf	(_date^(0+384)+1)
  2494                           
  2495                           ;MasterPapu.c: 371:     date[3] = BCD2UpperCh(month);
  2496  0442  1283               	bcf	3,5	;RP0=0, select bank0
  2497  0443  1303               	bcf	3,6	;RP1=0, select bank0
  2498  0444  0866               	movf	_month,w
  2499  0445  160A  118A  239E  120A  118A  	fcall	_BCD2UpperCh
  2500  044A  1283               	bcf	3,5	;RP0=0, select bank0
  2501  044B  1303               	bcf	3,6	;RP1=0, select bank0
  2502  044C  00D9               	movwf	??_main
  2503  044D  0859               	movf	??_main,w
  2504  044E  1683               	bsf	3,5	;RP0=1, select bank3
  2505  044F  1703               	bsf	3,6	;RP1=1, select bank3
  2506  0450  00A7               	movwf	(_date^(0+384)+3)
  2507                           
  2508                           ;MasterPapu.c: 372:     date[4] = BCD2LowerCh(month);
  2509  0451  1283               	bcf	3,5	;RP0=0, select bank0
  2510  0452  1303               	bcf	3,6	;RP1=0, select bank0
  2511  0453  0866               	movf	_month,w
  2512  0454  160A  118A  2367  120A  118A  	fcall	_BCD2LowerCh
  2513  0459  1283               	bcf	3,5	;RP0=0, select bank0
  2514  045A  1303               	bcf	3,6	;RP1=0, select bank0
  2515  045B  00D9               	movwf	??_main
  2516  045C  0859               	movf	??_main,w
  2517  045D  1683               	bsf	3,5	;RP0=1, select bank3
  2518  045E  1703               	bsf	3,6	;RP1=1, select bank3
  2519  045F  00A8               	movwf	(_date^(0+384)+4)
  2520                           
  2521                           ;MasterPapu.c: 373:     date[6] = BCD2UpperCh(year);
  2522  0460  1283               	bcf	3,5	;RP0=0, select bank0
  2523  0461  1303               	bcf	3,6	;RP1=0, select bank0
  2524  0462  0864               	movf	_year,w
  2525  0463  160A  118A  239E  120A  118A  	fcall	_BCD2UpperCh
  2526  0468  1283               	bcf	3,5	;RP0=0, select bank0
  2527  0469  1303               	bcf	3,6	;RP1=0, select bank0
  2528  046A  00D9               	movwf	??_main
  2529  046B  0859               	movf	??_main,w
  2530  046C  1683               	bsf	3,5	;RP0=1, select bank3
  2531  046D  1703               	bsf	3,6	;RP1=1, select bank3
  2532  046E  00AA               	movwf	(_date^(0+384)+6)
  2533                           
  2534                           ;MasterPapu.c: 374:     date[7] = BCD2LowerCh(year);
  2535  046F  1283               	bcf	3,5	;RP0=0, select bank0
  2536  0470  1303               	bcf	3,6	;RP1=0, select bank0
  2537  0471  0864               	movf	_year,w
  2538  0472  160A  118A  2367  120A  118A  	fcall	_BCD2LowerCh
  2539  0477  1283               	bcf	3,5	;RP0=0, select bank0
  2540  0478  1303               	bcf	3,6	;RP1=0, select bank0
  2541  0479  00D9               	movwf	??_main
  2542  047A  0859               	movf	??_main,w
  2543  047B  1683               	bsf	3,5	;RP0=1, select bank3
  2544  047C  1703               	bsf	3,6	;RP1=1, select bank3
  2545  047D  00AB               	movwf	(_date^(0+384)+7)
  2546  047E                     l4182:	
  2547                           
  2548                           ;MasterPapu.c: 376:     if(ap)
  2549  047E  1683               	bsf	3,5	;RP0=1, select bank1
  2550  047F  1303               	bcf	3,6	;RP1=0, select bank1
  2551  0480  0860               	movf	_ap^(0+128),w
  2552  0481  0461               	iorwf	(_ap+1)^(0+128),w
  2553  0482  1903               	btfsc	3,2
  2554  0483  2C85               	goto	u5011
  2555  0484  2C86               	goto	u5010
  2556  0485                     u5011:	
  2557  0485  2C97               	goto	l4186
  2558  0486                     u5010:	
  2559  0486                     l4184:	
  2560                           
  2561                           ;MasterPapu.c: 377:     {;MasterPapu.c: 378:       time[9] = 'P';
  2562  0486  3050               	movlw	80
  2563  0487  1283               	bcf	3,5	;RP0=0, select bank0
  2564  0488  1303               	bcf	3,6	;RP1=0, select bank0
  2565  0489  00D9               	movwf	??_main
  2566  048A  0859               	movf	??_main,w
  2567  048B  1683               	bsf	3,5	;RP0=1, select bank1
  2568  048C  1303               	bcf	3,6	;RP1=0, select bank1
  2569  048D  00B8               	movwf	(_time^(0+128)+9)
  2570                           
  2571                           ;MasterPapu.c: 379:       time[10] = 'M';
  2572  048E  304D               	movlw	77
  2573  048F  1283               	bcf	3,5	;RP0=0, select bank0
  2574  0490  1303               	bcf	3,6	;RP1=0, select bank0
  2575  0491  00D9               	movwf	??_main
  2576  0492  0859               	movf	??_main,w
  2577  0493  1683               	bsf	3,5	;RP0=1, select bank1
  2578  0494  1303               	bcf	3,6	;RP1=0, select bank1
  2579  0495  00B9               	movwf	(_time^(0+128)+10)
  2580                           
  2581                           ;MasterPapu.c: 380:     }
  2582  0496  2CA7               	goto	l4188
  2583  0497                     l4186:	
  2584                           
  2585                           ;MasterPapu.c: 382:     {;MasterPapu.c: 383:       time[9] = 'A';
  2586  0497  3041               	movlw	65
  2587  0498  1283               	bcf	3,5	;RP0=0, select bank0
  2588  0499  1303               	bcf	3,6	;RP1=0, select bank0
  2589  049A  00D9               	movwf	??_main
  2590  049B  0859               	movf	??_main,w
  2591  049C  1683               	bsf	3,5	;RP0=1, select bank1
  2592  049D  1303               	bcf	3,6	;RP1=0, select bank1
  2593  049E  00B8               	movwf	(_time^(0+128)+9)
  2594                           
  2595                           ;MasterPapu.c: 384:       time[10] = 'M';
  2596  049F  304D               	movlw	77
  2597  04A0  1283               	bcf	3,5	;RP0=0, select bank0
  2598  04A1  1303               	bcf	3,6	;RP1=0, select bank0
  2599  04A2  00D9               	movwf	??_main
  2600  04A3  0859               	movf	??_main,w
  2601  04A4  1683               	bsf	3,5	;RP0=1, select bank1
  2602  04A5  1303               	bcf	3,6	;RP1=0, select bank1
  2603  04A6  00B9               	movwf	(_time^(0+128)+10)
  2604  04A7                     l4188:	
  2605                           
  2606                           ;MasterPapu.c: 386:     cur(2,6);
  2607  04A7  3006               	movlw	6
  2608  04A8  1283               	bcf	3,5	;RP0=0, select bank0
  2609  04A9  1303               	bcf	3,6	;RP1=0, select bank0
  2610  04AA  00D9               	movwf	??_main
  2611  04AB  0859               	movf	??_main,w
  2612  04AC  00F2               	movwf	cur@b
  2613  04AD  3002               	movlw	2
  2614  04AE  160A  118A  24B6  120A  118A  	fcall	_cur
  2615  04B3                     l4190:	
  2616                           
  2617                           ;MasterPapu.c: 387:     word( time);
  2618  04B3  30AF               	movlw	(low (_time| 0))& (0+255)
  2619  04B4  00F3               	movwf	word@a
  2620  04B5  3000               	movlw	0
  2621  04B6  00F4               	movwf	word@a+1
  2622  04B7  160A  118A  2571  120A  118A  	fcall	_word
  2623  04BC                     l4196:	
  2624                           ;MasterPapu.c: 401:     {;MasterPapu.c: 402:       if(temp2[1] & 0x8000)
  2625                           
  2626                           
  2627                           ;MasterPapu.c: 409:       {;MasterPapu.c: 410:         if((temp2[1] >> 4) >= 100)
  2628  04BC  1683               	bsf	3,5	;RP0=1, select bank1
  2629  04BD  1303               	bcf	3,6	;RP1=0, select bank1
  2630  04BE  0821               	movf	(_temp2^(0+128)+1),w
  2631  04BF  1283               	bcf	3,5	;RP0=0, select bank0
  2632  04C0  1303               	bcf	3,6	;RP1=0, select bank0
  2633  04C1  00D9               	movwf	??_main
  2634  04C2  3004               	movlw	4
  2635  04C3                     u5025:	
  2636  04C3  1003               	clrc
  2637  04C4  0CD9               	rrf	??_main,f
  2638  04C5  3EFF               	addlw	-1
  2639  04C6  1D03               	skipz
  2640  04C7  2CC3               	goto	u5025
  2641  04C8  3064               	movlw	100
  2642  04C9  0259               	subwf	??_main,w
  2643  04CA  1C03               	skipc
  2644  04CB  2CCD               	goto	u5031
  2645  04CC  2CCE               	goto	u5030
  2646  04CD                     u5031:	
  2647  04CD  2CD5               	goto	l4200
  2648  04CE                     u5030:	
  2649  04CE                     l4198:	
  2650                           
  2651                           ;MasterPapu.c: 411:           temp2[0] = '1';
  2652  04CE  3031               	movlw	49
  2653  04CF  00D9               	movwf	??_main
  2654  04D0  0859               	movf	??_main,w
  2655  04D1  1683               	bsf	3,5	;RP0=1, select bank1
  2656  04D2  1303               	bcf	3,6	;RP1=0, select bank1
  2657  04D3  00A0               	movwf	_temp2^(0+128)
  2658  04D4  2CDB               	goto	l4202
  2659  04D5                     l4200:	
  2660                           
  2661                           ;MasterPapu.c: 413:           temp2[0] = ' ';
  2662  04D5  3020               	movlw	32
  2663  04D6  00D9               	movwf	??_main
  2664  04D7  0859               	movf	??_main,w
  2665  04D8  1683               	bsf	3,5	;RP0=1, select bank1
  2666  04D9  1303               	bcf	3,6	;RP1=0, select bank1
  2667  04DA  00A0               	movwf	_temp2^(0+128)
  2668  04DB                     l4202:	
  2669                           
  2670                           ;MasterPapu.c: 418:       temp[1] =((temp2[1]) / 10 % 10) + '0';
  2671  04DB  300A               	movlw	10
  2672  04DC  1283               	bcf	3,5	;RP0=0, select bank0
  2673  04DD  1303               	bcf	3,6	;RP1=0, select bank0
  2674  04DE  00A4               	movwf	___awmod@divisor
  2675  04DF  3000               	movlw	0
  2676  04E0  00A5               	movwf	___awmod@divisor+1
  2677  04E1  300A               	movlw	10
  2678  04E2  00F6               	movwf	___awdiv@divisor
  2679  04E3  3000               	movlw	0
  2680  04E4  00F7               	movwf	___awdiv@divisor+1
  2681  04E5  1683               	bsf	3,5	;RP0=1, select bank1
  2682  04E6  1303               	bcf	3,6	;RP1=0, select bank1
  2683  04E7  0821               	movf	(_temp2^(0+128)+1),w
  2684  04E8  1283               	bcf	3,5	;RP0=0, select bank0
  2685  04E9  1303               	bcf	3,6	;RP1=0, select bank0
  2686  04EA  00D9               	movwf	??_main
  2687  04EB  01DA               	clrf	??_main+1
  2688  04EC  0859               	movf	??_main,w
  2689  04ED  00F8               	movwf	___awdiv@dividend
  2690  04EE  085A               	movf	??_main+1,w
  2691  04EF  00F9               	movwf	___awdiv@dividend+1
  2692  04F0  160A  118A  2797  120A  118A  	fcall	___awdiv
  2693  04F5  0877               	movf	?___awdiv+1,w
  2694  04F6  1283               	bcf	3,5	;RP0=0, select bank0
  2695  04F7  1303               	bcf	3,6	;RP1=0, select bank0
  2696  04F8  00A7               	movwf	___awmod@dividend+1
  2697  04F9  0876               	movf	?___awdiv,w
  2698  04FA  00A6               	movwf	___awmod@dividend
  2699  04FB  160A  118A  26D6  120A  118A  	fcall	___awmod
  2700  0500  1283               	bcf	3,5	;RP0=0, select bank0
  2701  0501  1303               	bcf	3,6	;RP1=0, select bank0
  2702  0502  0824               	movf	?___awmod,w
  2703  0503  3E30               	addlw	48
  2704  0504  00DB               	movwf	??_main+2
  2705  0505  085B               	movf	??_main+2,w
  2706  0506  1683               	bsf	3,5	;RP0=1, select bank1
  2707  0507  1303               	bcf	3,6	;RP1=0, select bank1
  2708  0508  00BC               	movwf	(_temp^(0+128)+1)
  2709  0509                     l4204:	
  2710                           
  2711                           ;MasterPapu.c: 419:       temp[2] = (temp2[1]) % 10 + '0' ;
  2712  0509  300A               	movlw	10
  2713  050A  1283               	bcf	3,5	;RP0=0, select bank0
  2714  050B  1303               	bcf	3,6	;RP1=0, select bank0
  2715  050C  00A4               	movwf	___awmod@divisor
  2716  050D  3000               	movlw	0
  2717  050E  00A5               	movwf	___awmod@divisor+1
  2718  050F  1683               	bsf	3,5	;RP0=1, select bank1
  2719  0510  1303               	bcf	3,6	;RP1=0, select bank1
  2720  0511  0821               	movf	(_temp2^(0+128)+1),w
  2721  0512  1283               	bcf	3,5	;RP0=0, select bank0
  2722  0513  1303               	bcf	3,6	;RP1=0, select bank0
  2723  0514  00D9               	movwf	??_main
  2724  0515  01DA               	clrf	??_main+1
  2725  0516  0859               	movf	??_main,w
  2726  0517  00A6               	movwf	___awmod@dividend
  2727  0518  085A               	movf	??_main+1,w
  2728  0519  00A7               	movwf	___awmod@dividend+1
  2729  051A  160A  118A  26D6  120A  118A  	fcall	___awmod
  2730  051F  1283               	bcf	3,5	;RP0=0, select bank0
  2731  0520  1303               	bcf	3,6	;RP1=0, select bank0
  2732  0521  0824               	movf	?___awmod,w
  2733  0522  3E30               	addlw	48
  2734  0523  00DB               	movwf	??_main+2
  2735  0524  085B               	movf	??_main+2,w
  2736  0525  1683               	bsf	3,5	;RP0=1, select bank1
  2737  0526  1303               	bcf	3,6	;RP1=0, select bank1
  2738  0527  00BD               	movwf	(_temp^(0+128)+2)
  2739  0528                     l4206:	
  2740                           
  2741                           ;MasterPapu.c: 423:       temp[4] = ( (temp2[1]& 0x0F) * 625) / 1000 + '0';
  2742  0528  30E8               	movlw	232
  2743  0529  00F6               	movwf	___awdiv@divisor
  2744  052A  3003               	movlw	3
  2745  052B  00F7               	movwf	___awdiv@divisor+1
  2746  052C  0821               	movf	(_temp2^(0+128)+1),w
  2747  052D  390F               	andlw	15
  2748  052E  1283               	bcf	3,5	;RP0=0, select bank0
  2749  052F  1303               	bcf	3,6	;RP1=0, select bank0
  2750  0530  00D9               	movwf	??_main
  2751  0531  01DA               	clrf	??_main+1
  2752  0532  0859               	movf	??_main,w
  2753  0533  00F0               	movwf	___wmul@multiplier
  2754  0534  085A               	movf	??_main+1,w
  2755  0535  00F1               	movwf	___wmul@multiplier+1
  2756  0536  3071               	movlw	113
  2757  0537  00F2               	movwf	___wmul@multiplicand
  2758  0538  3002               	movlw	2
  2759  0539  00F3               	movwf	___wmul@multiplicand+1
  2760  053A  160A  118A  241E  120A  118A  	fcall	___wmul
  2761  053F  0871               	movf	?___wmul+1,w
  2762  0540  00F9               	movwf	___awdiv@dividend+1
  2763  0541  0870               	movf	?___wmul,w
  2764  0542  00F8               	movwf	___awdiv@dividend
  2765  0543  160A  118A  2797  120A  118A  	fcall	___awdiv
  2766  0548  0876               	movf	?___awdiv,w
  2767  0549  3E30               	addlw	48
  2768  054A  1283               	bcf	3,5	;RP0=0, select bank0
  2769  054B  1303               	bcf	3,6	;RP1=0, select bank0
  2770  054C  00DB               	movwf	??_main+2
  2771  054D  085B               	movf	??_main+2,w
  2772  054E  1683               	bsf	3,5	;RP0=1, select bank1
  2773  054F  1303               	bcf	3,6	;RP1=0, select bank1
  2774  0550  00BF               	movwf	(_temp^(0+128)+4)
  2775  0551                     l4208:	
  2776                           
  2777                           ;MasterPapu.c: 424:       temp[5] = (((temp2[1] & 0x0F) * 625) / 100 ) % 10 + '0';
  2778  0551  300A               	movlw	10
  2779  0552  1283               	bcf	3,5	;RP0=0, select bank0
  2780  0553  1303               	bcf	3,6	;RP1=0, select bank0
  2781  0554  00A4               	movwf	___awmod@divisor
  2782  0555  3000               	movlw	0
  2783  0556  00A5               	movwf	___awmod@divisor+1
  2784  0557  3064               	movlw	100
  2785  0558  00F6               	movwf	___awdiv@divisor
  2786  0559  3000               	movlw	0
  2787  055A  00F7               	movwf	___awdiv@divisor+1
  2788  055B  1683               	bsf	3,5	;RP0=1, select bank1
  2789  055C  1303               	bcf	3,6	;RP1=0, select bank1
  2790  055D  0821               	movf	(_temp2^(0+128)+1),w
  2791  055E  390F               	andlw	15
  2792  055F  1283               	bcf	3,5	;RP0=0, select bank0
  2793  0560  1303               	bcf	3,6	;RP1=0, select bank0
  2794  0561  00D9               	movwf	??_main
  2795  0562  01DA               	clrf	??_main+1
  2796  0563  0859               	movf	??_main,w
  2797  0564  00F0               	movwf	___wmul@multiplier
  2798  0565  085A               	movf	??_main+1,w
  2799  0566  00F1               	movwf	___wmul@multiplier+1
  2800  0567  3071               	movlw	113
  2801  0568  00F2               	movwf	___wmul@multiplicand
  2802  0569  3002               	movlw	2
  2803  056A  00F3               	movwf	___wmul@multiplicand+1
  2804  056B  160A  118A  241E  120A  118A  	fcall	___wmul
  2805  0570  0871               	movf	?___wmul+1,w
  2806  0571  00F9               	movwf	___awdiv@dividend+1
  2807  0572  0870               	movf	?___wmul,w
  2808  0573  00F8               	movwf	___awdiv@dividend
  2809  0574  160A  118A  2797  120A  118A  	fcall	___awdiv
  2810  0579  0877               	movf	?___awdiv+1,w
  2811  057A  1283               	bcf	3,5	;RP0=0, select bank0
  2812  057B  1303               	bcf	3,6	;RP1=0, select bank0
  2813  057C  00A7               	movwf	___awmod@dividend+1
  2814  057D  0876               	movf	?___awdiv,w
  2815  057E  00A6               	movwf	___awmod@dividend
  2816  057F  160A  118A  26D6  120A  118A  	fcall	___awmod
  2817  0584  1283               	bcf	3,5	;RP0=0, select bank0
  2818  0585  1303               	bcf	3,6	;RP1=0, select bank0
  2819  0586  0824               	movf	?___awmod,w
  2820  0587  3E30               	addlw	48
  2821  0588  00DB               	movwf	??_main+2
  2822  0589  085B               	movf	??_main+2,w
  2823  058A  1683               	bsf	3,5	;RP0=1, select bank1
  2824  058B  1303               	bcf	3,6	;RP1=0, select bank1
  2825  058C  00C0               	movwf	(_temp^(0+128)+5)
  2826  058D                     l4210:	
  2827                           
  2828                           ;MasterPapu.c: 426:     };MasterPapu.c: 438:         PORTDbits.RD3=1;
  2829  058D  1283               	bcf	3,5	;RP0=0, select bank0
  2830  058E  1303               	bcf	3,6	;RP1=0, select bank0
  2831  058F  1588               	bsf	8,3	;volatile
  2832  0590                     l4212:	
  2833                           
  2834                           ;MasterPapu.c: 439:         I2C_Master_Start();
  2835  0590  160A  118A  2383  120A  118A  	fcall	_I2C_Master_Start
  2836  0595                     l4214:	
  2837                           
  2838                           ;MasterPapu.c: 440:         I2C_Master_Write(0x51);
  2839  0595  3051               	movlw	81
  2840  0596  00F0               	movwf	I2C_Master_Write@d
  2841  0597  3000               	movlw	0
  2842  0598  00F1               	movwf	I2C_Master_Write@d+1
  2843  0599  120A  118A  2004  120A  118A  	fcall	_I2C_Master_Write
  2844  059E                     l4216:	
  2845                           
  2846                           ;MasterPapu.c: 441:         valor = I2C_Master_Read(0);
  2847  059E  3000               	movlw	0
  2848  059F  00F0               	movwf	I2C_Master_Read@a
  2849  05A0  00F1               	movwf	I2C_Master_Read@a+1
  2850  05A1  160A  118A  24E3  120A  118A  	fcall	_I2C_Master_Read
  2851  05A6  0871               	movf	?_I2C_Master_Read+1,w
  2852  05A7  1283               	bcf	3,5	;RP0=0, select bank0
  2853  05A8  1303               	bcf	3,6	;RP1=0, select bank0
  2854  05A9  00DF               	movwf	_valor+1
  2855  05AA  0870               	movf	?_I2C_Master_Read,w
  2856  05AB  00DE               	movwf	_valor
  2857  05AC                     l4218:	
  2858                           
  2859                           ;MasterPapu.c: 442:         I2C_Master_Stop();
  2860  05AC  160A  118A  238C  120A  118A  	fcall	_I2C_Master_Stop
  2861  05B1                     l4220:	
  2862                           
  2863                           ;MasterPapu.c: 443:         dis2[0]= (valor) +'0';
  2864  05B1  1283               	bcf	3,5	;RP0=0, select bank0
  2865  05B2  1303               	bcf	3,6	;RP1=0, select bank0
  2866  05B3  085E               	movf	_valor,w
  2867  05B4  3E30               	addlw	48
  2868  05B5  00D9               	movwf	??_main
  2869  05B6  0859               	movf	??_main,w
  2870  05B7  1683               	bsf	3,5	;RP0=1, select bank1
  2871  05B8  1303               	bcf	3,6	;RP1=0, select bank1
  2872  05B9  00CF               	movwf	_dis2^(0+128)
  2873  05BA                     l4222:	
  2874                           
  2875                           ;MasterPapu.c: 444:         cur(2,3);
  2876  05BA  3003               	movlw	3
  2877  05BB  1283               	bcf	3,5	;RP0=0, select bank0
  2878  05BC  1303               	bcf	3,6	;RP1=0, select bank0
  2879  05BD  00D9               	movwf	??_main
  2880  05BE  0859               	movf	??_main,w
  2881  05BF  00F2               	movwf	cur@b
  2882  05C0  3002               	movlw	2
  2883  05C1  160A  118A  24B6  120A  118A  	fcall	_cur
  2884  05C6                     l4224:	
  2885                           
  2886                           ;MasterPapu.c: 445:         word(dis2 );
  2887  05C6  30CF               	movlw	(low (_dis2| 0))& (0+255)
  2888  05C7  00F3               	movwf	word@a
  2889  05C8  3000               	movlw	0
  2890  05C9  00F4               	movwf	word@a+1
  2891  05CA  160A  118A  2571  120A  118A  	fcall	_word
  2892  05CF                     l4226:	
  2893                           
  2894                           ;MasterPapu.c: 446:         cur(2,1);
  2895  05CF  01F2               	clrf	cur@b
  2896  05D0  0AF2               	incf	cur@b,f
  2897  05D1  3002               	movlw	2
  2898  05D2  160A  118A  24B6  120A  118A  	fcall	_cur
  2899  05D7                     l4228:	
  2900                           
  2901                           ;MasterPapu.c: 447:         lee2(valor);
  2902  05D7  1283               	bcf	3,5	;RP0=0, select bank0
  2903  05D8  1303               	bcf	3,6	;RP1=0, select bank0
  2904  05D9  085E               	movf	_valor,w
  2905  05DA  120A  158A  216C  120A  118A  	fcall	_lee2
  2906  05DF                     l4230:	
  2907                           
  2908                           ;MasterPapu.c: 450:          I2C_Master_Start();
  2909  05DF  160A  118A  2383  120A  118A  	fcall	_I2C_Master_Start
  2910  05E4                     l4232:	
  2911                           
  2912                           ;MasterPapu.c: 451:         I2C_Master_Write(0x61);
  2913  05E4  3061               	movlw	97
  2914  05E5  00F0               	movwf	I2C_Master_Write@d
  2915  05E6  3000               	movlw	0
  2916  05E7  00F1               	movwf	I2C_Master_Write@d+1
  2917  05E8  120A  118A  2004  120A  118A  	fcall	_I2C_Master_Write
  2918  05ED                     l4234:	
  2919                           
  2920                           ;MasterPapu.c: 452:         c = I2C_Master_Read(0);
  2921  05ED  3000               	movlw	0
  2922  05EE  00F0               	movwf	I2C_Master_Read@a
  2923  05EF  00F1               	movwf	I2C_Master_Read@a+1
  2924  05F0  160A  118A  24E3  120A  118A  	fcall	_I2C_Master_Read
  2925  05F5  0871               	movf	?_I2C_Master_Read+1,w
  2926  05F6  1283               	bcf	3,5	;RP0=0, select bank0
  2927  05F7  1303               	bcf	3,6	;RP1=0, select bank0
  2928  05F8  00DD               	movwf	_c+1
  2929  05F9  0870               	movf	?_I2C_Master_Read,w
  2930  05FA  00DC               	movwf	_c
  2931  05FB                     l4236:	
  2932                           
  2933                           ;MasterPapu.c: 453:         I2C_Master_Stop();
  2934  05FB  160A  118A  238C  120A  118A  	fcall	_I2C_Master_Stop
  2935  0600                     l4238:	
  2936                           
  2937                           ;MasterPapu.c: 457:         dis[0]= (c/10) %10+'0';
  2938  0600  300A               	movlw	10
  2939  0601  1283               	bcf	3,5	;RP0=0, select bank0
  2940  0602  1303               	bcf	3,6	;RP1=0, select bank0
  2941  0603  00A4               	movwf	___awmod@divisor
  2942  0604  3000               	movlw	0
  2943  0605  00A5               	movwf	___awmod@divisor+1
  2944  0606  300A               	movlw	10
  2945  0607  00F6               	movwf	___awdiv@divisor
  2946  0608  3000               	movlw	0
  2947  0609  00F7               	movwf	___awdiv@divisor+1
  2948  060A  085D               	movf	_c+1,w
  2949  060B  00F9               	movwf	___awdiv@dividend+1
  2950  060C  085C               	movf	_c,w
  2951  060D  00F8               	movwf	___awdiv@dividend
  2952  060E  160A  118A  2797  120A  118A  	fcall	___awdiv
  2953  0613  0877               	movf	?___awdiv+1,w
  2954  0614  1283               	bcf	3,5	;RP0=0, select bank0
  2955  0615  1303               	bcf	3,6	;RP1=0, select bank0
  2956  0616  00A7               	movwf	___awmod@dividend+1
  2957  0617  0876               	movf	?___awdiv,w
  2958  0618  00A6               	movwf	___awmod@dividend
  2959  0619  160A  118A  26D6  120A  118A  	fcall	___awmod
  2960  061E  1283               	bcf	3,5	;RP0=0, select bank0
  2961  061F  1303               	bcf	3,6	;RP1=0, select bank0
  2962  0620  0824               	movf	?___awmod,w
  2963  0621  3E30               	addlw	48
  2964  0622  00D9               	movwf	??_main
  2965  0623  0859               	movf	??_main,w
  2966  0624  1683               	bsf	3,5	;RP0=1, select bank1
  2967  0625  1303               	bcf	3,6	;RP1=0, select bank1
  2968  0626  00CB               	movwf	_dis^(0+128)
  2969  0627                     l4240:	
  2970                           
  2971                           ;MasterPapu.c: 458:         dis[1]= c %10+'0';
  2972  0627  300A               	movlw	10
  2973  0628  1283               	bcf	3,5	;RP0=0, select bank0
  2974  0629  1303               	bcf	3,6	;RP1=0, select bank0
  2975  062A  00A4               	movwf	___awmod@divisor
  2976  062B  3000               	movlw	0
  2977  062C  00A5               	movwf	___awmod@divisor+1
  2978  062D  085D               	movf	_c+1,w
  2979  062E  00A7               	movwf	___awmod@dividend+1
  2980  062F  085C               	movf	_c,w
  2981  0630  00A6               	movwf	___awmod@dividend
  2982  0631  160A  118A  26D6  120A  118A  	fcall	___awmod
  2983  0636  1283               	bcf	3,5	;RP0=0, select bank0
  2984  0637  1303               	bcf	3,6	;RP1=0, select bank0
  2985  0638  0824               	movf	?___awmod,w
  2986  0639  3E30               	addlw	48
  2987  063A  00D9               	movwf	??_main
  2988  063B  0859               	movf	??_main,w
  2989  063C  1683               	bsf	3,5	;RP0=1, select bank1
  2990  063D  1303               	bcf	3,6	;RP1=0, select bank1
  2991  063E  00CC               	movwf	(_dis^(0+128)+1)
  2992  063F                     l4242:	
  2993                           
  2994                           ;MasterPapu.c: 459:       cur(1,10);
  2995  063F  300A               	movlw	10
  2996  0640  1283               	bcf	3,5	;RP0=0, select bank0
  2997  0641  1303               	bcf	3,6	;RP1=0, select bank0
  2998  0642  00D9               	movwf	??_main
  2999  0643  0859               	movf	??_main,w
  3000  0644  00F2               	movwf	cur@b
  3001  0645  3001               	movlw	1
  3002  0646  160A  118A  24B6  120A  118A  	fcall	_cur
  3003  064B                     l4244:	
  3004                           
  3005                           ;MasterPapu.c: 460:       word(dis );
  3006  064B  30CB               	movlw	(low (_dis| 0))& (0+255)
  3007  064C  00F3               	movwf	word@a
  3008  064D  3000               	movlw	0
  3009  064E  00F4               	movwf	word@a+1
  3010  064F  160A  118A  2571  120A  118A  	fcall	_word
  3011  0654                     l4246:	
  3012                           
  3013                           ;MasterPapu.c: 463:       I2C_Master_Start();
  3014  0654  160A  118A  2383  120A  118A  	fcall	_I2C_Master_Start
  3015  0659                     l4248:	
  3016                           
  3017                           ;MasterPapu.c: 464:       I2C_Master_Write(0x71);
  3018  0659  3071               	movlw	113
  3019  065A  00F0               	movwf	I2C_Master_Write@d
  3020  065B  3000               	movlw	0
  3021  065C  00F1               	movwf	I2C_Master_Write@d+1
  3022  065D  120A  118A  2004  120A  118A  	fcall	_I2C_Master_Write
  3023  0662                     l4250:	
  3024                           
  3025                           ;MasterPapu.c: 465:       temp2[1] = I2C_Master_Read(0);
  3026  0662  3000               	movlw	0
  3027  0663  00F0               	movwf	I2C_Master_Read@a
  3028  0664  00F1               	movwf	I2C_Master_Read@a+1
  3029  0665  160A  118A  24E3  120A  118A  	fcall	_I2C_Master_Read
  3030  066A  0870               	movf	?_I2C_Master_Read,w
  3031  066B  1283               	bcf	3,5	;RP0=0, select bank0
  3032  066C  1303               	bcf	3,6	;RP1=0, select bank0
  3033  066D  00D9               	movwf	??_main
  3034  066E  0859               	movf	??_main,w
  3035  066F  1683               	bsf	3,5	;RP0=1, select bank1
  3036  0670  1303               	bcf	3,6	;RP1=0, select bank1
  3037  0671  00A1               	movwf	(_temp2^(0+128)+1)
  3038  0672                     l4252:	
  3039                           
  3040                           ;MasterPapu.c: 466:       I2C_Master_Stop();
  3041  0672  160A  118A  238C  120A  118A  	fcall	_I2C_Master_Stop
  3042  0677                     l4254:	
  3043                           
  3044                           ;MasterPapu.c: 467:       cur(1,1);
  3045  0677  01F2               	clrf	cur@b
  3046  0678  0AF2               	incf	cur@b,f
  3047  0679  3001               	movlw	1
  3048  067A  160A  118A  24B6  120A  118A  	fcall	_cur
  3049  067F                     l4256:	
  3050                           
  3051                           ;MasterPapu.c: 468:       word(temp);
  3052  067F  30BB               	movlw	(low (_temp| 0))& (0+255)
  3053  0680  00F3               	movwf	word@a
  3054  0681  3000               	movlw	0
  3055  0682  00F4               	movwf	word@a+1
  3056  0683  160A  118A  2571  120A  118A  	fcall	_word
  3057  0688                     l4258:	
  3058                           
  3059                           ;MasterPapu.c: 470:        I2C_Master_Start();
  3060  0688  160A  118A  2383  120A  118A  	fcall	_I2C_Master_Start
  3061  068D                     l4260:	
  3062                           
  3063                           ;MasterPapu.c: 471:       I2C_Master_Write(0x81);
  3064  068D  3081               	movlw	129
  3065  068E  00F0               	movwf	I2C_Master_Write@d
  3066  068F  3000               	movlw	0
  3067  0690  00F1               	movwf	I2C_Master_Write@d+1
  3068  0691  120A  118A  2004  120A  118A  	fcall	_I2C_Master_Write
  3069  0696                     l4262:	
  3070                           
  3071                           ;MasterPapu.c: 472:       pes[4] =I2C_Master_Read(0);
  3072  0696  3000               	movlw	0
  3073  0697  00F0               	movwf	I2C_Master_Read@a
  3074  0698  00F1               	movwf	I2C_Master_Read@a+1
  3075  0699  160A  118A  24E3  120A  118A  	fcall	_I2C_Master_Read
  3076  069E  0870               	movf	?_I2C_Master_Read,w
  3077  069F  1283               	bcf	3,5	;RP0=0, select bank0
  3078  06A0  1303               	bcf	3,6	;RP1=0, select bank0
  3079  06A1  00D9               	movwf	??_main
  3080  06A2  0859               	movf	??_main,w
  3081  06A3  1683               	bsf	3,5	;RP0=1, select bank1
  3082  06A4  1303               	bcf	3,6	;RP1=0, select bank1
  3083  06A5  00AE               	movwf	(_pes^(0+128)+4)
  3084  06A6                     l4264:	
  3085                           
  3086                           ;MasterPapu.c: 473:       I2C_Master_Stop();
  3087  06A6  160A  118A  238C  120A  118A  	fcall	_I2C_Master_Stop
  3088  06AB                     l4266:	
  3089                           
  3090                           ;MasterPapu.c: 474:       pes2[2]=(pes[4])%10+'0';
  3091  06AB  300A               	movlw	10
  3092  06AC  1283               	bcf	3,5	;RP0=0, select bank0
  3093  06AD  1303               	bcf	3,6	;RP1=0, select bank0
  3094  06AE  00A4               	movwf	___awmod@divisor
  3095  06AF  3000               	movlw	0
  3096  06B0  00A5               	movwf	___awmod@divisor+1
  3097  06B1  1683               	bsf	3,5	;RP0=1, select bank1
  3098  06B2  1303               	bcf	3,6	;RP1=0, select bank1
  3099  06B3  082E               	movf	(_pes^(0+128)+4),w
  3100  06B4  1283               	bcf	3,5	;RP0=0, select bank0
  3101  06B5  1303               	bcf	3,6	;RP1=0, select bank0
  3102  06B6  00D9               	movwf	??_main
  3103  06B7  01DA               	clrf	??_main+1
  3104  06B8  0859               	movf	??_main,w
  3105  06B9  00A6               	movwf	___awmod@dividend
  3106  06BA  085A               	movf	??_main+1,w
  3107  06BB  00A7               	movwf	___awmod@dividend+1
  3108  06BC  160A  118A  26D6  120A  118A  	fcall	___awmod
  3109  06C1  1283               	bcf	3,5	;RP0=0, select bank0
  3110  06C2  1303               	bcf	3,6	;RP1=0, select bank0
  3111  06C3  0824               	movf	?___awmod,w
  3112  06C4  3E30               	addlw	48
  3113  06C5  00DB               	movwf	??_main+2
  3114  06C6  085B               	movf	??_main+2,w
  3115  06C7  1683               	bsf	3,5	;RP0=1, select bank1
  3116  06C8  1303               	bcf	3,6	;RP1=0, select bank1
  3117  06C9  00C7               	movwf	(_pes2^(0+128)+2)
  3118  06CA                     l4268:	
  3119                           
  3120                           ;MasterPapu.c: 475:       pes2[1]=(pes[4]/10)%10+'0';
  3121  06CA  300A               	movlw	10
  3122  06CB  1283               	bcf	3,5	;RP0=0, select bank0
  3123  06CC  1303               	bcf	3,6	;RP1=0, select bank0
  3124  06CD  00A4               	movwf	___awmod@divisor
  3125  06CE  3000               	movlw	0
  3126  06CF  00A5               	movwf	___awmod@divisor+1
  3127  06D0  300A               	movlw	10
  3128  06D1  00F6               	movwf	___awdiv@divisor
  3129  06D2  3000               	movlw	0
  3130  06D3  00F7               	movwf	___awdiv@divisor+1
  3131  06D4  1683               	bsf	3,5	;RP0=1, select bank1
  3132  06D5  1303               	bcf	3,6	;RP1=0, select bank1
  3133  06D6  082E               	movf	(_pes^(0+128)+4),w
  3134  06D7  1283               	bcf	3,5	;RP0=0, select bank0
  3135  06D8  1303               	bcf	3,6	;RP1=0, select bank0
  3136  06D9  00D9               	movwf	??_main
  3137  06DA  01DA               	clrf	??_main+1
  3138  06DB  0859               	movf	??_main,w
  3139  06DC  00F8               	movwf	___awdiv@dividend
  3140  06DD  085A               	movf	??_main+1,w
  3141  06DE  00F9               	movwf	___awdiv@dividend+1
  3142  06DF  160A  118A  2797  120A  118A  	fcall	___awdiv
  3143  06E4  0877               	movf	?___awdiv+1,w
  3144  06E5  1283               	bcf	3,5	;RP0=0, select bank0
  3145  06E6  1303               	bcf	3,6	;RP1=0, select bank0
  3146  06E7  00A7               	movwf	___awmod@dividend+1
  3147  06E8  0876               	movf	?___awdiv,w
  3148  06E9  00A6               	movwf	___awmod@dividend
  3149  06EA  160A  118A  26D6  120A  118A  	fcall	___awmod
  3150  06EF  1283               	bcf	3,5	;RP0=0, select bank0
  3151  06F0  1303               	bcf	3,6	;RP1=0, select bank0
  3152  06F1  0824               	movf	?___awmod,w
  3153  06F2  3E30               	addlw	48
  3154  06F3  00DB               	movwf	??_main+2
  3155  06F4  085B               	movf	??_main+2,w
  3156  06F5  1683               	bsf	3,5	;RP0=1, select bank1
  3157  06F6  1303               	bcf	3,6	;RP1=0, select bank1
  3158  06F7  00C6               	movwf	(_pes2^(0+128)+1)
  3159  06F8                     l4270:	
  3160                           
  3161                           ;MasterPapu.c: 476:       pes2[0]=(pes[4]/100)%10+'0';
  3162  06F8  300A               	movlw	10
  3163  06F9  1283               	bcf	3,5	;RP0=0, select bank0
  3164  06FA  1303               	bcf	3,6	;RP1=0, select bank0
  3165  06FB  00A4               	movwf	___awmod@divisor
  3166  06FC  3000               	movlw	0
  3167  06FD  00A5               	movwf	___awmod@divisor+1
  3168  06FE  3064               	movlw	100
  3169  06FF  00F6               	movwf	___awdiv@divisor
  3170  0700  3000               	movlw	0
  3171  0701  00F7               	movwf	___awdiv@divisor+1
  3172  0702  1683               	bsf	3,5	;RP0=1, select bank1
  3173  0703  1303               	bcf	3,6	;RP1=0, select bank1
  3174  0704  082E               	movf	(_pes^(0+128)+4),w
  3175  0705  1283               	bcf	3,5	;RP0=0, select bank0
  3176  0706  1303               	bcf	3,6	;RP1=0, select bank0
  3177  0707  00D9               	movwf	??_main
  3178  0708  01DA               	clrf	??_main+1
  3179  0709  0859               	movf	??_main,w
  3180  070A  00F8               	movwf	___awdiv@dividend
  3181  070B  085A               	movf	??_main+1,w
  3182  070C  00F9               	movwf	___awdiv@dividend+1
  3183  070D  160A  118A  2797  120A  118A  	fcall	___awdiv
  3184  0712  0877               	movf	?___awdiv+1,w
  3185  0713  1283               	bcf	3,5	;RP0=0, select bank0
  3186  0714  1303               	bcf	3,6	;RP1=0, select bank0
  3187  0715  00A7               	movwf	___awmod@dividend+1
  3188  0716  0876               	movf	?___awdiv,w
  3189  0717  00A6               	movwf	___awmod@dividend
  3190  0718  160A  118A  26D6  120A  118A  	fcall	___awmod
  3191  071D  1283               	bcf	3,5	;RP0=0, select bank0
  3192  071E  1303               	bcf	3,6	;RP1=0, select bank0
  3193  071F  0824               	movf	?___awmod,w
  3194  0720  3E30               	addlw	48
  3195  0721  00DB               	movwf	??_main+2
  3196  0722  085B               	movf	??_main+2,w
  3197  0723  1683               	bsf	3,5	;RP0=1, select bank1
  3198  0724  1303               	bcf	3,6	;RP1=0, select bank1
  3199  0725  00C5               	movwf	_pes2^(0+128)
  3200  0726                     l4272:	
  3201                           
  3202                           ;MasterPapu.c: 477:        cur(1,13);
  3203  0726  300D               	movlw	13
  3204  0727  1283               	bcf	3,5	;RP0=0, select bank0
  3205  0728  1303               	bcf	3,6	;RP1=0, select bank0
  3206  0729  00D9               	movwf	??_main
  3207  072A  0859               	movf	??_main,w
  3208  072B  00F2               	movwf	cur@b
  3209  072C  3001               	movlw	1
  3210  072D  160A  118A  24B6  120A  118A  	fcall	_cur
  3211  0732                     l4274:	
  3212                           
  3213                           ;MasterPapu.c: 478:        word(pes2);
  3214  0732  30C5               	movlw	(low (_pes2| 0))& (0+255)
  3215  0733  00F3               	movwf	word@a
  3216  0734  3000               	movlw	0
  3217  0735  00F4               	movwf	word@a+1
  3218  0736  160A  118A  2571  120A  118A  	fcall	_word
  3219  073B                     l4276:	
  3220                           
  3221                           ;MasterPapu.c: 481:        if(temp[1]==3+'0' && temp[2]==6+'0')
  3222  073B  3033               	movlw	51
  3223  073C  1683               	bsf	3,5	;RP0=1, select bank1
  3224  073D  1303               	bcf	3,6	;RP1=0, select bank1
  3225  073E  063C               	xorwf	(_temp^(0+128)+1),w
  3226  073F  1D03               	btfss	3,2
  3227  0740  2F42               	goto	u5041
  3228  0741  2F43               	goto	u5040
  3229  0742                     u5041:	
  3230  0742  2F6A               	goto	l4282
  3231  0743                     u5040:	
  3232  0743                     l4278:	
  3233  0743  3036               	movlw	54
  3234  0744  063D               	xorwf	(_temp^(0+128)+2),w
  3235  0745  1D03               	btfss	3,2
  3236  0746  2F48               	goto	u5051
  3237  0747  2F49               	goto	u5050
  3238  0748                     u5051:	
  3239  0748  2F6A               	goto	l4282
  3240  0749                     u5050:	
  3241  0749                     l4280:	
  3242                           
  3243                           ;MasterPapu.c: 482:        {;MasterPapu.c: 483:        I2C_Master_Start();
  3244  0749  160A  118A  2383  120A  118A  	fcall	_I2C_Master_Start
  3245                           
  3246                           ;MasterPapu.c: 484:       I2C_Master_Write(0x91);
  3247  074E  3091               	movlw	145
  3248  074F  00F0               	movwf	I2C_Master_Write@d
  3249  0750  3000               	movlw	0
  3250  0751  00F1               	movwf	I2C_Master_Write@d+1
  3251  0752  120A  118A  2004  120A  118A  	fcall	_I2C_Master_Write
  3252                           
  3253                           ;MasterPapu.c: 485:       raw_temp =I2C_Master_Read(0);
  3254  0757  3000               	movlw	0
  3255  0758  00F0               	movwf	I2C_Master_Read@a
  3256  0759  00F1               	movwf	I2C_Master_Read@a+1
  3257  075A  160A  118A  24E3  120A  118A  	fcall	_I2C_Master_Read
  3258  075F  0871               	movf	?_I2C_Master_Read+1,w
  3259  0760  1683               	bsf	3,5	;RP0=1, select bank1
  3260  0761  1303               	bcf	3,6	;RP1=0, select bank1
  3261  0762  00DB               	movwf	(_raw_temp+1)^(0+128)
  3262  0763  0870               	movf	?_I2C_Master_Read,w
  3263  0764  00DA               	movwf	_raw_temp^(0+128)
  3264                           
  3265                           ;MasterPapu.c: 486:       I2C_Master_Stop();
  3266  0765  160A  118A  238C  120A  118A  	fcall	_I2C_Master_Stop
  3267  076A                     l4282:	
  3268                           
  3269                           ;MasterPapu.c: 489:        if(dis[0]<=1+'0' || dis2[0]>=8+'0'){
  3270  076A  3032               	movlw	50
  3271  076B  1683               	bsf	3,5	;RP0=1, select bank1
  3272  076C  1303               	bcf	3,6	;RP1=0, select bank1
  3273  076D  024B               	subwf	_dis^(0+128),w
  3274  076E  1C03               	skipc
  3275  076F  2F71               	goto	u5061
  3276  0770  2F72               	goto	u5060
  3277  0771                     u5061:	
  3278  0771  2F78               	goto	l4286
  3279  0772                     u5060:	
  3280  0772                     l4284:	
  3281  0772  3038               	movlw	56
  3282  0773  024F               	subwf	_dis2^(0+128),w
  3283  0774  1C03               	skipc
  3284  0775  2F77               	goto	u5071
  3285  0776  2F78               	goto	u5070
  3286  0777                     u5071:	
  3287  0777  2F99               	goto	l4288
  3288  0778                     u5070:	
  3289  0778                     l4286:	
  3290                           
  3291                           ;MasterPapu.c: 491:        I2C_Master_Start();
  3292  0778  160A  118A  2383  120A  118A  	fcall	_I2C_Master_Start
  3293                           
  3294                           ;MasterPapu.c: 492:       I2C_Master_Write(0x31);
  3295  077D  3031               	movlw	49
  3296  077E  00F0               	movwf	I2C_Master_Write@d
  3297  077F  3000               	movlw	0
  3298  0780  00F1               	movwf	I2C_Master_Write@d+1
  3299  0781  120A  118A  2004  120A  118A  	fcall	_I2C_Master_Write
  3300                           
  3301                           ;MasterPapu.c: 493:       raw_temp =I2C_Master_Read(0);
  3302  0786  3000               	movlw	0
  3303  0787  00F0               	movwf	I2C_Master_Read@a
  3304  0788  00F1               	movwf	I2C_Master_Read@a+1
  3305  0789  160A  118A  24E3  120A  118A  	fcall	_I2C_Master_Read
  3306  078E  0871               	movf	?_I2C_Master_Read+1,w
  3307  078F  1683               	bsf	3,5	;RP0=1, select bank1
  3308  0790  1303               	bcf	3,6	;RP1=0, select bank1
  3309  0791  00DB               	movwf	(_raw_temp+1)^(0+128)
  3310  0792  0870               	movf	?_I2C_Master_Read,w
  3311  0793  00DA               	movwf	_raw_temp^(0+128)
  3312                           
  3313                           ;MasterPapu.c: 494:       I2C_Master_Stop();
  3314  0794  160A  118A  238C  120A  118A  	fcall	_I2C_Master_Stop
  3315  0799                     l4288:	
  3316                           
  3317                           ;MasterPapu.c: 499:         if( pes2[1]>=8+'0'){
  3318  0799  3038               	movlw	56
  3319  079A  1683               	bsf	3,5	;RP0=1, select bank1
  3320  079B  1303               	bcf	3,6	;RP1=0, select bank1
  3321  079C  0246               	subwf	(_pes2^(0+128)+1),w
  3322  079D  1C03               	skipc
  3323  079E  2FA0               	goto	u5081
  3324  079F  2FA1               	goto	u5080
  3325  07A0                     u5081:	
  3326  07A0  28D4               	goto	l4050
  3327  07A1                     u5080:	
  3328  07A1                     l4290:	
  3329                           
  3330                           ;MasterPapu.c: 501:        I2C_Master_Start();
  3331  07A1  160A  118A  2383  120A  118A  	fcall	_I2C_Master_Start
  3332                           
  3333                           ;MasterPapu.c: 502:       I2C_Master_Write(0x41);
  3334  07A6  3041               	movlw	65
  3335  07A7  00F0               	movwf	I2C_Master_Write@d
  3336  07A8  3000               	movlw	0
  3337  07A9  00F1               	movwf	I2C_Master_Write@d+1
  3338  07AA  120A  118A  2004  120A  118A  	fcall	_I2C_Master_Write
  3339                           
  3340                           ;MasterPapu.c: 503:       raw_temp2 =I2C_Master_Read(0);
  3341  07AF  3000               	movlw	0
  3342  07B0  00F0               	movwf	I2C_Master_Read@a
  3343  07B1  00F1               	movwf	I2C_Master_Read@a+1
  3344  07B2  160A  118A  24E3  120A  118A  	fcall	_I2C_Master_Read
  3345  07B7  0871               	movf	?_I2C_Master_Read+1,w
  3346  07B8  1683               	bsf	3,5	;RP0=1, select bank1
  3347  07B9  1303               	bcf	3,6	;RP1=0, select bank1
  3348  07BA  00D9               	movwf	(_raw_temp2+1)^(0+128)
  3349  07BB  0870               	movf	?_I2C_Master_Read,w
  3350  07BC  00D8               	movwf	_raw_temp2^(0+128)
  3351                           
  3352                           ;MasterPapu.c: 504:       I2C_Master_Stop();
  3353  07BD  160A  118A  238C  120A  118A  	fcall	_I2C_Master_Stop
  3354  07C2  28D4               	goto	l4050
  3355  07C3  120A  118A  2800   	ljmp	start
  3356  07C6                     __end_of_main:	
  3357                           
  3358                           	psect	text1
  3359  1469                     __ptext1:	
  3360 ;; *************** function _write_ds1307 *****************
  3361 ;; Defined at:
  3362 ;;		line 67 in file "MasterPapu.c"
  3363 ;; Parameters:    Size  Location     Type
  3364 ;;  address         2    2[COMMON] unsigned short 
  3365 ;;  w_data          2    4[COMMON] unsigned short 
  3366 ;; Auto vars:     Size  Location     Type
  3367 ;;		None
  3368 ;; Return value:  Size  Location     Type
  3369 ;;                  1    wreg      void 
  3370 ;; Registers used:
  3371 ;;		wreg, status,2, status,0, pclath, cstack
  3372 ;; Tracked objects:
  3373 ;;		On entry : 0/0
  3374 ;;		On exit  : 0/0
  3375 ;;		Unchanged: 0/0
  3376 ;; Data sizes:     COMMON   BANK0   BANK1   BANK3   BANK2
  3377 ;;      Params:         4       0       0       0       0
  3378 ;;      Locals:         0       0       0       0       0
  3379 ;;      Temps:          0       0       0       0       0
  3380 ;;      Totals:         4       0       0       0       0
  3381 ;;Total ram usage:        4 bytes
  3382 ;; Hardware stack levels used:    1
  3383 ;; Hardware stack levels required when called:    2
  3384 ;; This function calls:
  3385 ;;		_I2C_Master_Start
  3386 ;;		_I2C_Master_Stop
  3387 ;;		_I2C_Master_Write
  3388 ;; This function is called by:
  3389 ;;		_main
  3390 ;; This function uses a non-reentrant model
  3391 ;;
  3392                           
  3393                           
  3394                           ;psect for function _write_ds1307
  3395  1469                     _write_ds1307:	
  3396  1469                     l3054:	
  3397                           ;incstack = 0
  3398                           ; Regs used in _write_ds1307: [wreg+status,2+status,0+pclath+cstack]
  3399                           
  3400                           
  3401                           ;MasterPapu.c: 67: void write_ds1307(unsigned short address,unsigned short w_data);Maste
      +                          rPapu.c: 68: {;MasterPapu.c: 69:   I2C_Master_Start();
  3402  1469  160A  118A  2383  160A  118A  	fcall	_I2C_Master_Start
  3403                           
  3404                           ;MasterPapu.c: 71:   I2C_Master_Write(0xD0);
  3405  146E  30D0               	movlw	208
  3406  146F  00F0               	movwf	I2C_Master_Write@d
  3407  1470  3000               	movlw	0
  3408  1471  00F1               	movwf	I2C_Master_Write@d+1
  3409  1472  120A  118A  2004  160A  118A  	fcall	_I2C_Master_Write
  3410                           
  3411                           ;MasterPapu.c: 72:   I2C_Master_Write(address);
  3412  1477  0873               	movf	write_ds1307@address+1,w
  3413  1478  00F1               	movwf	I2C_Master_Write@d+1
  3414  1479  0872               	movf	write_ds1307@address,w
  3415  147A  00F0               	movwf	I2C_Master_Write@d
  3416  147B  120A  118A  2004  160A  118A  	fcall	_I2C_Master_Write
  3417                           
  3418                           ;MasterPapu.c: 73:   I2C_Master_Write(w_data);
  3419  1480  0875               	movf	write_ds1307@w_data+1,w
  3420  1481  00F1               	movwf	I2C_Master_Write@d+1
  3421  1482  0874               	movf	write_ds1307@w_data,w
  3422  1483  00F0               	movwf	I2C_Master_Write@d
  3423  1484  120A  118A  2004  160A  118A  	fcall	_I2C_Master_Write
  3424                           
  3425                           ;MasterPapu.c: 74:   I2C_Master_Stop();
  3426  1489  160A  118A  238C  160A  118A  	fcall	_I2C_Master_Stop
  3427  148E                     l155:	
  3428  148E  0008               	return
  3429  148F                     __end_of_write_ds1307:	
  3430                           
  3431                           	psect	text2
  3432  13FC                     __ptext2:	
  3433 ;; *************** function _setup *****************
  3434 ;; Defined at:
  3435 ;;		line 513 in file "MasterPapu.c"
  3436 ;; Parameters:    Size  Location     Type
  3437 ;;		None
  3438 ;; Auto vars:     Size  Location     Type
  3439 ;;		None
  3440 ;; Return value:  Size  Location     Type
  3441 ;;                  1    wreg      void 
  3442 ;; Registers used:
  3443 ;;		wreg, status,2, status,0, pclath, cstack
  3444 ;; Tracked objects:
  3445 ;;		On entry : 0/0
  3446 ;;		On exit  : 0/0
  3447 ;;		Unchanged: 0/0
  3448 ;; Data sizes:     COMMON   BANK0   BANK1   BANK3   BANK2
  3449 ;;      Params:         0       0       0       0       0
  3450 ;;      Locals:         0       0       0       0       0
  3451 ;;      Temps:          0       0       0       0       0
  3452 ;;      Totals:         0       0       0       0       0
  3453 ;;Total ram usage:        0 bytes
  3454 ;; Hardware stack levels used:    1
  3455 ;; Hardware stack levels required when called:    2
  3456 ;; This function calls:
  3457 ;;		_I2C_Master_Init
  3458 ;; This function is called by:
  3459 ;;		_main
  3460 ;; This function uses a non-reentrant model
  3461 ;;
  3462                           
  3463                           
  3464                           ;psect for function _setup
  3465  13FC                     _setup:	
  3466  13FC                     l3126:	
  3467                           ;incstack = 0
  3468                           ; Regs used in _setup: [wreg+status,2+status,0+pclath+cstack]
  3469                           
  3470                           
  3471                           ;MasterPapu.c: 514:     ANSEL = 0;
  3472  13FC  1683               	bsf	3,5	;RP0=1, select bank3
  3473  13FD  1703               	bsf	3,6	;RP1=1, select bank3
  3474  13FE  0188               	clrf	8	;volatile
  3475                           
  3476                           ;MasterPapu.c: 515:     ANSELH = 0;
  3477  13FF  0189               	clrf	9	;volatile
  3478                           
  3479                           ;MasterPapu.c: 516:     TRISB = 0;
  3480  1400  1683               	bsf	3,5	;RP0=1, select bank1
  3481  1401  1303               	bcf	3,6	;RP1=0, select bank1
  3482  1402  0186               	clrf	6	;volatile
  3483                           
  3484                           ;MasterPapu.c: 517:     TRISD = 0;
  3485  1403  0188               	clrf	8	;volatile
  3486                           
  3487                           ;MasterPapu.c: 518:     PORTB = 0;
  3488  1404  1283               	bcf	3,5	;RP0=0, select bank0
  3489  1405  1303               	bcf	3,6	;RP1=0, select bank0
  3490  1406  0186               	clrf	6	;volatile
  3491                           
  3492                           ;MasterPapu.c: 519:     PORTD = 0;
  3493  1407  0188               	clrf	8	;volatile
  3494                           
  3495                           ;MasterPapu.c: 520:     PORTA=0;
  3496  1408  0185               	clrf	5	;volatile
  3497                           
  3498                           ;MasterPapu.c: 521:     TRISA=0;
  3499  1409  1683               	bsf	3,5	;RP0=1, select bank1
  3500  140A  1303               	bcf	3,6	;RP1=0, select bank1
  3501  140B  0185               	clrf	5	;volatile
  3502  140C                     l3128:	
  3503                           
  3504                           ;MasterPapu.c: 522:     PORTCbits.RC2 = 1;
  3505  140C  1283               	bcf	3,5	;RP0=0, select bank0
  3506  140D  1303               	bcf	3,6	;RP1=0, select bank0
  3507  140E  1507               	bsf	7,2	;volatile
  3508  140F                     l3130:	
  3509                           
  3510                           ;MasterPapu.c: 523:     PORTCbits.RC2 = 1;
  3511  140F  1507               	bsf	7,2	;volatile
  3512  1410                     l3132:	
  3513                           
  3514                           ;MasterPapu.c: 524:     I2C_Master_Init(100000);
  3515  1410  3000               	movlw	0
  3516  1411  00A3               	movwf	I2C_Master_Init@c+3
  3517  1412  3001               	movlw	1
  3518  1413  00A2               	movwf	I2C_Master_Init@c+2
  3519  1414  3086               	movlw	134
  3520  1415  00A1               	movwf	I2C_Master_Init@c+1
  3521  1416  30A0               	movlw	160
  3522  1417  00A0               	movwf	I2C_Master_Init@c
  3523  1418  160A  118A  25A8  160A  118A  	fcall	_I2C_Master_Init
  3524  141D                     l282:	
  3525  141D  0008               	return
  3526  141E                     __end_of_setup:	
  3527                           
  3528                           	psect	text3
  3529  15A8                     __ptext3:	
  3530 ;; *************** function _I2C_Master_Init *****************
  3531 ;; Defined at:
  3532 ;;		line 16 in file "I2C.c"
  3533 ;; Parameters:    Size  Location     Type
  3534 ;;  c               4    0[BANK0 ] const unsigned long 
  3535 ;; Auto vars:     Size  Location     Type
  3536 ;;		None
  3537 ;; Return value:  Size  Location     Type
  3538 ;;                  1    wreg      void 
  3539 ;; Registers used:
  3540 ;;		wreg, status,2, status,0, pclath, cstack
  3541 ;; Tracked objects:
  3542 ;;		On entry : 0/0
  3543 ;;		On exit  : 0/0
  3544 ;;		Unchanged: 0/0
  3545 ;; Data sizes:     COMMON   BANK0   BANK1   BANK3   BANK2
  3546 ;;      Params:         0       4       0       0       0
  3547 ;;      Locals:         0       0       0       0       0
  3548 ;;      Temps:          0       4       0       0       0
  3549 ;;      Totals:         0       8       0       0       0
  3550 ;;Total ram usage:        8 bytes
  3551 ;; Hardware stack levels used:    1
  3552 ;; Hardware stack levels required when called:    1
  3553 ;; This function calls:
  3554 ;;		___lldiv
  3555 ;; This function is called by:
  3556 ;;		_setup
  3557 ;; This function uses a non-reentrant model
  3558 ;;
  3559                           
  3560                           
  3561                           ;psect for function _I2C_Master_Init
  3562  15A8                     _I2C_Master_Init:	
  3563  15A8                     l2464:	
  3564                           ;incstack = 0
  3565                           ; Regs used in _I2C_Master_Init: [wreg+status,2+status,0+pclath+cstack]
  3566                           
  3567                           
  3568                           ;I2C.c: 16: void I2C_Master_Init(const unsigned long c);I2C.c: 17: {;I2C.c: 18:     SSPC
      +                          ON = 0b00101000;
  3569  15A8  3028               	movlw	40
  3570  15A9  1283               	bcf	3,5	;RP0=0, select bank0
  3571  15AA  1303               	bcf	3,6	;RP1=0, select bank0
  3572  15AB  0094               	movwf	20	;volatile
  3573  15AC                     l2466:	
  3574                           
  3575                           ;I2C.c: 19:     SSPCON2 = 0;
  3576  15AC  1683               	bsf	3,5	;RP0=1, select bank1
  3577  15AD  1303               	bcf	3,6	;RP1=0, select bank1
  3578  15AE  0191               	clrf	17	;volatile
  3579  15AF                     l2468:	
  3580                           
  3581                           ;I2C.c: 20:     SSPADD = (4000000/(4*c))-1;
  3582  15AF  1283               	bcf	3,5	;RP0=0, select bank0
  3583  15B0  1303               	bcf	3,6	;RP1=0, select bank0
  3584  15B1  0820               	movf	I2C_Master_Init@c,w
  3585  15B2  00A4               	movwf	??_I2C_Master_Init
  3586  15B3  0821               	movf	I2C_Master_Init@c+1,w
  3587  15B4  00A5               	movwf	??_I2C_Master_Init+1
  3588  15B5  0822               	movf	I2C_Master_Init@c+2,w
  3589  15B6  00A6               	movwf	??_I2C_Master_Init+2
  3590  15B7  0823               	movf	I2C_Master_Init@c+3,w
  3591  15B8  00A7               	movwf	??_I2C_Master_Init+3
  3592  15B9  3002               	movlw	2
  3593  15BA                     u2315:	
  3594  15BA  1003               	clrc
  3595  15BB  0DA4               	rlf	??_I2C_Master_Init,f
  3596  15BC  0DA5               	rlf	??_I2C_Master_Init+1,f
  3597  15BD  0DA6               	rlf	??_I2C_Master_Init+2,f
  3598  15BE  0DA7               	rlf	??_I2C_Master_Init+3,f
  3599  15BF                     u2310:	
  3600  15BF  3EFF               	addlw	-1
  3601  15C0  1D03               	skipz
  3602  15C1  2DBA               	goto	u2315
  3603  15C2  0827               	movf	??_I2C_Master_Init+3,w
  3604  15C3  00F3               	movwf	___lldiv@divisor+3
  3605  15C4  0826               	movf	??_I2C_Master_Init+2,w
  3606  15C5  00F2               	movwf	___lldiv@divisor+2
  3607  15C6  0825               	movf	??_I2C_Master_Init+1,w
  3608  15C7  00F1               	movwf	___lldiv@divisor+1
  3609  15C8  0824               	movf	??_I2C_Master_Init,w
  3610  15C9  00F0               	movwf	___lldiv@divisor
  3611  15CA  3000               	movlw	0
  3612  15CB  00F7               	movwf	___lldiv@dividend+3
  3613  15CC  303D               	movlw	61
  3614  15CD  00F6               	movwf	___lldiv@dividend+2
  3615  15CE  3009               	movlw	9
  3616  15CF  00F5               	movwf	___lldiv@dividend+1
  3617  15D0  3000               	movlw	0
  3618  15D1  00F4               	movwf	___lldiv@dividend
  3619  15D2  160A  118A  2731  160A  118A  	fcall	___lldiv
  3620  15D7  0870               	movf	?___lldiv,w
  3621  15D8  3EFF               	addlw	255
  3622  15D9  1683               	bsf	3,5	;RP0=1, select bank1
  3623  15DA  1303               	bcf	3,6	;RP1=0, select bank1
  3624  15DB  0093               	movwf	19	;volatile
  3625  15DC                     l2470:	
  3626                           
  3627                           ;I2C.c: 21:     SSPSTAT = 0;
  3628  15DC  0194               	clrf	20	;volatile
  3629  15DD                     l2472:	
  3630                           
  3631                           ;I2C.c: 22:     TRISCbits.TRISC3 = 1;
  3632  15DD  1587               	bsf	7,3	;volatile
  3633  15DE                     l2474:	
  3634                           
  3635                           ;I2C.c: 23:     TRISCbits.TRISC4 = 1;
  3636  15DE  1607               	bsf	7,4	;volatile
  3637  15DF                     l299:	
  3638  15DF  0008               	return
  3639  15E0                     __end_of_I2C_Master_Init:	
  3640                           
  3641                           	psect	text4
  3642  1731                     __ptext4:	
  3643 ;; *************** function ___lldiv *****************
  3644 ;; Defined at:
  3645 ;;		line 5 in file "C:\Program Files (x86)\Microchip\xc8\v2.10\pic\sources\c90\common\__lldiv.c"
  3646 ;; Parameters:    Size  Location     Type
  3647 ;;  divisor         4    0[COMMON] unsigned long 
  3648 ;;  dividend        4    4[COMMON] unsigned long 
  3649 ;; Auto vars:     Size  Location     Type
  3650 ;;  quotient        4    9[COMMON] unsigned long 
  3651 ;;  counter         1   13[COMMON] unsigned char 
  3652 ;; Return value:  Size  Location     Type
  3653 ;;                  4    0[COMMON] unsigned long 
  3654 ;; Registers used:
  3655 ;;		wreg, status,2, status,0
  3656 ;; Tracked objects:
  3657 ;;		On entry : 0/0
  3658 ;;		On exit  : 0/0
  3659 ;;		Unchanged: 0/0
  3660 ;; Data sizes:     COMMON   BANK0   BANK1   BANK3   BANK2
  3661 ;;      Params:         8       0       0       0       0
  3662 ;;      Locals:         5       0       0       0       0
  3663 ;;      Temps:          1       0       0       0       0
  3664 ;;      Totals:        14       0       0       0       0
  3665 ;;Total ram usage:       14 bytes
  3666 ;; Hardware stack levels used:    1
  3667 ;; This function calls:
  3668 ;;		Nothing
  3669 ;; This function is called by:
  3670 ;;		_I2C_Master_Init
  3671 ;; This function uses a non-reentrant model
  3672 ;;
  3673                           
  3674                           
  3675                           ;psect for function ___lldiv
  3676  1731                     ___lldiv:	
  3677  1731                     l2308:	
  3678                           ;incstack = 0
  3679                           ; Regs used in ___lldiv: [wreg+status,2+status,0]
  3680                           
  3681  1731  3000               	movlw	0
  3682  1732  00FC               	movwf	___lldiv@quotient+3
  3683  1733  3000               	movlw	0
  3684  1734  00FB               	movwf	___lldiv@quotient+2
  3685  1735  3000               	movlw	0
  3686  1736  00FA               	movwf	___lldiv@quotient+1
  3687  1737  3000               	movlw	0
  3688  1738  00F9               	movwf	___lldiv@quotient
  3689  1739  0873               	movf	___lldiv@divisor+3,w
  3690  173A  0472               	iorwf	___lldiv@divisor+2,w
  3691  173B  0471               	iorwf	___lldiv@divisor+1,w
  3692  173C  0470               	iorwf	___lldiv@divisor,w
  3693  173D  1903               	skipnz
  3694  173E  2F40               	goto	u2091
  3695  173F  2F41               	goto	u2090
  3696  1740                     u2091:	
  3697  1740  2F8E               	goto	l2328
  3698  1741                     u2090:	
  3699  1741                     l2310:	
  3700  1741  01FD               	clrf	___lldiv@counter
  3701  1742  0AFD               	incf	___lldiv@counter,f
  3702  1743  2F51               	goto	l2314
  3703  1744                     l2312:	
  3704  1744  3001               	movlw	1
  3705  1745  00F8               	movwf	??___lldiv
  3706  1746                     u2105:	
  3707  1746  1003               	clrc
  3708  1747  0DF0               	rlf	___lldiv@divisor,f
  3709  1748  0DF1               	rlf	___lldiv@divisor+1,f
  3710  1749  0DF2               	rlf	___lldiv@divisor+2,f
  3711  174A  0DF3               	rlf	___lldiv@divisor+3,f
  3712  174B  0BF8               	decfsz	??___lldiv,f
  3713  174C  2F46               	goto	u2105
  3714  174D  3001               	movlw	1
  3715  174E  00F8               	movwf	??___lldiv
  3716  174F  0878               	movf	??___lldiv,w
  3717  1750  07FD               	addwf	___lldiv@counter,f
  3718  1751                     l2314:	
  3719  1751  1FF3               	btfss	___lldiv@divisor+3,7
  3720  1752  2F54               	goto	u2111
  3721  1753  2F55               	goto	u2110
  3722  1754                     u2111:	
  3723  1754  2F44               	goto	l2312
  3724  1755                     u2110:	
  3725  1755                     l2316:	
  3726  1755  3001               	movlw	1
  3727  1756  00F8               	movwf	??___lldiv
  3728  1757                     u2125:	
  3729  1757  1003               	clrc
  3730  1758  0DF9               	rlf	___lldiv@quotient,f
  3731  1759  0DFA               	rlf	___lldiv@quotient+1,f
  3732  175A  0DFB               	rlf	___lldiv@quotient+2,f
  3733  175B  0DFC               	rlf	___lldiv@quotient+3,f
  3734  175C  0BF8               	decfsz	??___lldiv,f
  3735  175D  2F57               	goto	u2125
  3736  175E                     l2318:	
  3737  175E  0873               	movf	___lldiv@divisor+3,w
  3738  175F  0277               	subwf	___lldiv@dividend+3,w
  3739  1760  1D03               	skipz
  3740  1761  2F6C               	goto	u2135
  3741  1762  0872               	movf	___lldiv@divisor+2,w
  3742  1763  0276               	subwf	___lldiv@dividend+2,w
  3743  1764  1D03               	skipz
  3744  1765  2F6C               	goto	u2135
  3745  1766  0871               	movf	___lldiv@divisor+1,w
  3746  1767  0275               	subwf	___lldiv@dividend+1,w
  3747  1768  1D03               	skipz
  3748  1769  2F6C               	goto	u2135
  3749  176A  0870               	movf	___lldiv@divisor,w
  3750  176B  0274               	subwf	___lldiv@dividend,w
  3751  176C                     u2135:	
  3752  176C  1C03               	skipc
  3753  176D  2F6F               	goto	u2131
  3754  176E  2F70               	goto	u2130
  3755  176F                     u2131:	
  3756  176F  2F7F               	goto	l2324
  3757  1770                     u2130:	
  3758  1770                     l2320:	
  3759  1770  0870               	movf	___lldiv@divisor,w
  3760  1771  02F4               	subwf	___lldiv@dividend,f
  3761  1772  0871               	movf	___lldiv@divisor+1,w
  3762  1773  1C03               	skipc
  3763  1774  0F71               	incfsz	___lldiv@divisor+1,w
  3764  1775  02F5               	subwf	___lldiv@dividend+1,f
  3765  1776  0872               	movf	___lldiv@divisor+2,w
  3766  1777  1C03               	skipc
  3767  1778  0F72               	incfsz	___lldiv@divisor+2,w
  3768  1779  02F6               	subwf	___lldiv@dividend+2,f
  3769  177A  0873               	movf	___lldiv@divisor+3,w
  3770  177B  1C03               	skipc
  3771  177C  0F73               	incfsz	___lldiv@divisor+3,w
  3772  177D  02F7               	subwf	___lldiv@dividend+3,f
  3773  177E                     l2322:	
  3774  177E  1479               	bsf	___lldiv@quotient,0
  3775  177F                     l2324:	
  3776  177F  3001               	movlw	1
  3777  1780                     u2145:	
  3778  1780  1003               	clrc
  3779  1781  0CF3               	rrf	___lldiv@divisor+3,f
  3780  1782  0CF2               	rrf	___lldiv@divisor+2,f
  3781  1783  0CF1               	rrf	___lldiv@divisor+1,f
  3782  1784  0CF0               	rrf	___lldiv@divisor,f
  3783  1785  3EFF               	addlw	-1
  3784  1786  1D03               	skipz
  3785  1787  2F80               	goto	u2145
  3786  1788                     l2326:	
  3787  1788  3001               	movlw	1
  3788  1789  02FD               	subwf	___lldiv@counter,f
  3789  178A  1D03               	btfss	3,2
  3790  178B  2F8D               	goto	u2151
  3791  178C  2F8E               	goto	u2150
  3792  178D                     u2151:	
  3793  178D  2F55               	goto	l2316
  3794  178E                     u2150:	
  3795  178E                     l2328:	
  3796  178E  087C               	movf	___lldiv@quotient+3,w
  3797  178F  00F3               	movwf	?___lldiv+3
  3798  1790  087B               	movf	___lldiv@quotient+2,w
  3799  1791  00F2               	movwf	?___lldiv+2
  3800  1792  087A               	movf	___lldiv@quotient+1,w
  3801  1793  00F1               	movwf	?___lldiv+1
  3802  1794  0879               	movf	___lldiv@quotient,w
  3803  1795  00F0               	movwf	?___lldiv
  3804  1796                     l444:	
  3805  1796  0008               	return
  3806  1797                     __end_of___lldiv:	
  3807                           
  3808                           	psect	text5
  3809  1511                     __ptext5:	
  3810 ;; *************** function _receive *****************
  3811 ;; Defined at:
  3812 ;;		line 146 in file "MasterPapu.c"
  3813 ;; Parameters:    Size  Location     Type
  3814 ;;		None
  3815 ;; Auto vars:     Size  Location     Type
  3816 ;;		None
  3817 ;; Return value:  Size  Location     Type
  3818 ;;                  1    wreg      void 
  3819 ;; Registers used:
  3820 ;;		wreg
  3821 ;; Tracked objects:
  3822 ;;		On entry : 0/0
  3823 ;;		On exit  : 0/0
  3824 ;;		Unchanged: 0/0
  3825 ;; Data sizes:     COMMON   BANK0   BANK1   BANK3   BANK2
  3826 ;;      Params:         0       0       0       0       0
  3827 ;;      Locals:         0       0       0       0       0
  3828 ;;      Temps:          0       0       0       0       0
  3829 ;;      Totals:         0       0       0       0       0
  3830 ;;Total ram usage:        0 bytes
  3831 ;; Hardware stack levels used:    1
  3832 ;; This function calls:
  3833 ;;		Nothing
  3834 ;; This function is called by:
  3835 ;;		_main
  3836 ;; This function uses a non-reentrant model
  3837 ;;
  3838                           
  3839                           
  3840                           ;psect for function _receive
  3841  1511                     _receive:	
  3842  1511                     l3096:	
  3843                           ;incstack = 0
  3844                           ; Regs used in _receive: [wreg]
  3845                           
  3846                           
  3847                           ;MasterPapu.c: 147:      if(PIR1bits.TXIF==1){
  3848  1511  1283               	bcf	3,5	;RP0=0, select bank0
  3849  1512  1303               	bcf	3,6	;RP1=0, select bank0
  3850  1513  1E0C               	btfss	12,4	;volatile
  3851  1514  2D16               	goto	u3581
  3852  1515  2D17               	goto	u3580
  3853  1516                     u3581:	
  3854  1516  2D1A               	goto	l3102
  3855  1517                     u3580:	
  3856  1517                     l3098:	
  3857                           
  3858                           ;MasterPapu.c: 148:      TXREG= hour;
  3859  1517  086A               	movf	_hour,w
  3860  1518  0099               	movwf	25	;volatile
  3861  1519                     l3100:	
  3862                           
  3863                           ;MasterPapu.c: 149:     PIR1bits.TXIF=0;
  3864  1519  120C               	bcf	12,4	;volatile
  3865  151A                     l3102:	
  3866                           
  3867                           ;MasterPapu.c: 151:       if(PIR1bits.TXIF==1){
  3868  151A  1E0C               	btfss	12,4	;volatile
  3869  151B  2D1D               	goto	u3591
  3870  151C  2D1E               	goto	u3590
  3871  151D                     u3591:	
  3872  151D  2D21               	goto	l3108
  3873  151E                     u3590:	
  3874  151E                     l3104:	
  3875                           
  3876                           ;MasterPapu.c: 152:      TXREG= valor;
  3877  151E  085E               	movf	_valor,w
  3878  151F  0099               	movwf	25	;volatile
  3879  1520                     l3106:	
  3880                           
  3881                           ;MasterPapu.c: 153:     PIR1bits.TXIF=0;
  3882  1520  120C               	bcf	12,4	;volatile
  3883  1521                     l3108:	
  3884                           
  3885                           ;MasterPapu.c: 155:     if(PIR1bits.TXIF==1){
  3886  1521  1E0C               	btfss	12,4	;volatile
  3887  1522  2D24               	goto	u3601
  3888  1523  2D25               	goto	u3600
  3889  1524                     u3601:	
  3890  1524  2D28               	goto	l3114
  3891  1525                     u3600:	
  3892  1525                     l3110:	
  3893                           
  3894                           ;MasterPapu.c: 156:      TXREG= c;
  3895  1525  085C               	movf	_c,w
  3896  1526  0099               	movwf	25	;volatile
  3897  1527                     l3112:	
  3898                           
  3899                           ;MasterPapu.c: 157:     PIR1bits.TXIF=0;
  3900  1527  120C               	bcf	12,4	;volatile
  3901  1528                     l3114:	
  3902                           
  3903                           ;MasterPapu.c: 159:       if(PIR1bits.TXIF==1){
  3904  1528  1E0C               	btfss	12,4	;volatile
  3905  1529  2D2B               	goto	u3611
  3906  152A  2D2C               	goto	u3610
  3907  152B                     u3611:	
  3908  152B  2D33               	goto	l3120
  3909  152C                     u3610:	
  3910  152C                     l3116:	
  3911                           
  3912                           ;MasterPapu.c: 160:      TXREG= pes2[4];
  3913  152C  1683               	bsf	3,5	;RP0=1, select bank1
  3914  152D  1303               	bcf	3,6	;RP1=0, select bank1
  3915  152E  0849               	movf	(_pes2^(0+128)+4),w
  3916  152F  1283               	bcf	3,5	;RP0=0, select bank0
  3917  1530  1303               	bcf	3,6	;RP1=0, select bank0
  3918  1531  0099               	movwf	25	;volatile
  3919  1532                     l3118:	
  3920                           
  3921                           ;MasterPapu.c: 161:     PIR1bits.TXIF=0;
  3922  1532  120C               	bcf	12,4	;volatile
  3923  1533                     l3120:	
  3924                           
  3925                           ;MasterPapu.c: 163:        if(PIR1bits.TXIF==1){
  3926  1533  1E0C               	btfss	12,4	;volatile
  3927  1534  2D36               	goto	u3621
  3928  1535  2D37               	goto	u3620
  3929  1536                     u3621:	
  3930  1536  2D3E               	goto	l231
  3931  1537                     u3620:	
  3932  1537                     l3122:	
  3933                           
  3934                           ;MasterPapu.c: 164:      TXREG= temp2[1] ;
  3935  1537  1683               	bsf	3,5	;RP0=1, select bank1
  3936  1538  1303               	bcf	3,6	;RP1=0, select bank1
  3937  1539  0821               	movf	(_temp2^(0+128)+1),w
  3938  153A  1283               	bcf	3,5	;RP0=0, select bank0
  3939  153B  1303               	bcf	3,6	;RP1=0, select bank0
  3940  153C  0099               	movwf	25	;volatile
  3941  153D                     l3124:	
  3942                           
  3943                           ;MasterPapu.c: 165:     PIR1bits.TXIF=0;
  3944  153D  120C               	bcf	12,4	;volatile
  3945  153E                     l231:	
  3946  153E  0008               	return
  3947  153F                     __end_of_receive:	
  3948                           
  3949                           	psect	text6
  3950  161A                     __ptext6:	
  3951 ;; *************** function _read_ds1307 *****************
  3952 ;; Defined at:
  3953 ;;		line 54 in file "MasterPapu.c"
  3954 ;; Parameters:    Size  Location     Type
  3955 ;;  address         2    6[COMMON] unsigned short 
  3956 ;; Auto vars:     Size  Location     Type
  3957 ;;  r_data          2    8[COMMON] unsigned short 
  3958 ;; Return value:  Size  Location     Type
  3959 ;;                  2    6[COMMON] unsigned short 
  3960 ;; Registers used:
  3961 ;;		wreg, status,2, status,0, pclath, cstack
  3962 ;; Tracked objects:
  3963 ;;		On entry : 0/0
  3964 ;;		On exit  : 0/0
  3965 ;;		Unchanged: 0/0
  3966 ;; Data sizes:     COMMON   BANK0   BANK1   BANK3   BANK2
  3967 ;;      Params:         2       0       0       0       0
  3968 ;;      Locals:         2       0       0       0       0
  3969 ;;      Temps:          0       0       0       0       0
  3970 ;;      Totals:         4       0       0       0       0
  3971 ;;Total ram usage:        4 bytes
  3972 ;; Hardware stack levels used:    1
  3973 ;; Hardware stack levels required when called:    2
  3974 ;; This function calls:
  3975 ;;		_I2C_Master_Read
  3976 ;;		_I2C_Master_RepeatedStart
  3977 ;;		_I2C_Master_Start
  3978 ;;		_I2C_Master_Stop
  3979 ;;		_I2C_Master_Write
  3980 ;; This function is called by:
  3981 ;;		_main
  3982 ;; This function uses a non-reentrant model
  3983 ;;
  3984                           
  3985                           
  3986                           ;psect for function _read_ds1307
  3987  161A                     _read_ds1307:	
  3988  161A                     l3048:	
  3989                           ;incstack = 0
  3990                           ; Regs used in _read_ds1307: [wreg+status,2+status,0+pclath+cstack]
  3991                           
  3992                           
  3993                           ;MasterPapu.c: 54: unsigned short read_ds1307(unsigned short address);MasterPapu.c: 55: 
      +                          {;MasterPapu.c: 56: unsigned short r_data;;MasterPapu.c: 57:   I2C_Master_Start();
  3994  161A  160A  118A  2383  160A  118A  	fcall	_I2C_Master_Start
  3995                           
  3996                           ;MasterPapu.c: 58:   I2C_Master_Write(0xD0);
  3997  161F  30D0               	movlw	208
  3998  1620  00F0               	movwf	I2C_Master_Write@d
  3999  1621  3000               	movlw	0
  4000  1622  00F1               	movwf	I2C_Master_Write@d+1
  4001  1623  120A  118A  2004  160A  118A  	fcall	_I2C_Master_Write
  4002                           
  4003                           ;MasterPapu.c: 59:   I2C_Master_Write(address);
  4004  1628  0877               	movf	read_ds1307@address+1,w
  4005  1629  00F1               	movwf	I2C_Master_Write@d+1
  4006  162A  0876               	movf	read_ds1307@address,w
  4007  162B  00F0               	movwf	I2C_Master_Write@d
  4008  162C  120A  118A  2004  160A  118A  	fcall	_I2C_Master_Write
  4009                           
  4010                           ;MasterPapu.c: 60:   I2C_Master_RepeatedStart();
  4011  1631  160A  118A  237A  160A  118A  	fcall	_I2C_Master_RepeatedStart
  4012                           
  4013                           ;MasterPapu.c: 61:   I2C_Master_Write(0xD1);
  4014  1636  30D1               	movlw	209
  4015  1637  00F0               	movwf	I2C_Master_Write@d
  4016  1638  3000               	movlw	0
  4017  1639  00F1               	movwf	I2C_Master_Write@d+1
  4018  163A  120A  118A  2004  160A  118A  	fcall	_I2C_Master_Write
  4019                           
  4020                           ;MasterPapu.c: 62:   r_data=I2C_Master_Read(0);
  4021  163F  3000               	movlw	0
  4022  1640  00F0               	movwf	I2C_Master_Read@a
  4023  1641  00F1               	movwf	I2C_Master_Read@a+1
  4024  1642  160A  118A  24E3  160A  118A  	fcall	_I2C_Master_Read
  4025  1647  0871               	movf	?_I2C_Master_Read+1,w
  4026  1648  00F9               	movwf	read_ds1307@r_data+1
  4027  1649  0870               	movf	?_I2C_Master_Read,w
  4028  164A  00F8               	movwf	read_ds1307@r_data
  4029                           
  4030                           ;MasterPapu.c: 63:   I2C_Master_Stop();
  4031  164B  160A  118A  238C  160A  118A  	fcall	_I2C_Master_Stop
  4032  1650                     l3050:	
  4033                           
  4034                           ;MasterPapu.c: 64:   return(r_data);
  4035  1650  0879               	movf	read_ds1307@r_data+1,w
  4036  1651  00F7               	movwf	?_read_ds1307+1
  4037  1652  0878               	movf	read_ds1307@r_data,w
  4038  1653  00F6               	movwf	?_read_ds1307
  4039  1654                     l152:	
  4040  1654  0008               	return
  4041  1655                     __end_of_read_ds1307:	
  4042                           
  4043                           	psect	text7
  4044  0004                     __ptext7:	
  4045 ;; *************** function _I2C_Master_Write *****************
  4046 ;; Defined at:
  4047 ;;		line 65 in file "I2C.c"
  4048 ;; Parameters:    Size  Location     Type
  4049 ;;  d               2    0[COMMON] unsigned int 
  4050 ;; Auto vars:     Size  Location     Type
  4051 ;;		None
  4052 ;; Return value:  Size  Location     Type
  4053 ;;                  1    wreg      void 
  4054 ;; Registers used:
  4055 ;;		wreg, status,2, status,0, pclath, cstack
  4056 ;; Tracked objects:
  4057 ;;		On entry : 0/0
  4058 ;;		On exit  : 0/0
  4059 ;;		Unchanged: 0/0
  4060 ;; Data sizes:     COMMON   BANK0   BANK1   BANK3   BANK2
  4061 ;;      Params:         2       0       0       0       0
  4062 ;;      Locals:         0       0       0       0       0
  4063 ;;      Temps:          0       0       0       0       0
  4064 ;;      Totals:         2       0       0       0       0
  4065 ;;Total ram usage:        2 bytes
  4066 ;; Hardware stack levels used:    1
  4067 ;; Hardware stack levels required when called:    1
  4068 ;; This function calls:
  4069 ;;		_I2C_Master_Wait
  4070 ;; This function is called by:
  4071 ;;		_read_ds1307
  4072 ;;		_write_ds1307
  4073 ;;		_main
  4074 ;; This function uses a non-reentrant model
  4075 ;;
  4076                           
  4077                           
  4078                           ;psect for function _I2C_Master_Write
  4079  0004                     _I2C_Master_Write:	
  4080  0004                     l2436:	
  4081                           ;incstack = 0
  4082                           ; Regs used in _I2C_Master_Write: [wreg+status,2+status,0+pclath+cstack]
  4083                           
  4084                           
  4085                           ;I2C.c: 65: void I2C_Master_Write(unsigned d);I2C.c: 66: {;I2C.c: 67:     I2C_Master_Wai
      +                          t();
  4086  0004  160A  118A  23B7  120A  118A  	fcall	_I2C_Master_Wait
  4087  0009                     l2438:	
  4088                           
  4089                           ;I2C.c: 68:     SSPBUF = d;
  4090  0009  0870               	movf	I2C_Master_Write@d,w
  4091  000A  1283               	bcf	3,5	;RP0=0, select bank0
  4092  000B  1303               	bcf	3,6	;RP1=0, select bank0
  4093  000C  0093               	movwf	19	;volatile
  4094  000D                     l317:	
  4095  000D  0008               	return
  4096  000E                     __end_of_I2C_Master_Write:	
  4097                           
  4098                           	psect	text8
  4099  138C                     __ptext8:	
  4100 ;; *************** function _I2C_Master_Stop *****************
  4101 ;; Defined at:
  4102 ;;		line 55 in file "I2C.c"
  4103 ;; Parameters:    Size  Location     Type
  4104 ;;		None
  4105 ;; Auto vars:     Size  Location     Type
  4106 ;;		None
  4107 ;; Return value:  Size  Location     Type
  4108 ;;                  1    wreg      void 
  4109 ;; Registers used:
  4110 ;;		wreg, status,2, status,0, pclath, cstack
  4111 ;; Tracked objects:
  4112 ;;		On entry : 0/0
  4113 ;;		On exit  : 0/0
  4114 ;;		Unchanged: 0/0
  4115 ;; Data sizes:     COMMON   BANK0   BANK1   BANK3   BANK2
  4116 ;;      Params:         0       0       0       0       0
  4117 ;;      Locals:         0       0       0       0       0
  4118 ;;      Temps:          0       0       0       0       0
  4119 ;;      Totals:         0       0       0       0       0
  4120 ;;Total ram usage:        0 bytes
  4121 ;; Hardware stack levels used:    1
  4122 ;; Hardware stack levels required when called:    1
  4123 ;; This function calls:
  4124 ;;		_I2C_Master_Wait
  4125 ;; This function is called by:
  4126 ;;		_read_ds1307
  4127 ;;		_write_ds1307
  4128 ;;		_main
  4129 ;; This function uses a non-reentrant model
  4130 ;;
  4131                           
  4132                           
  4133                           ;psect for function _I2C_Master_Stop
  4134  138C                     _I2C_Master_Stop:	
  4135  138C                     l2460:	
  4136                           ;incstack = 0
  4137                           ; Regs used in _I2C_Master_Stop: [wreg+status,2+status,0+pclath+cstack]
  4138                           
  4139                           
  4140                           ;I2C.c: 57:     I2C_Master_Wait();
  4141  138C  160A  118A  23B7  160A  118A  	fcall	_I2C_Master_Wait
  4142  1391                     l2462:	
  4143                           
  4144                           ;I2C.c: 58:     SSPCON2bits.PEN = 1;
  4145  1391  1683               	bsf	3,5	;RP0=1, select bank1
  4146  1392  1303               	bcf	3,6	;RP1=0, select bank1
  4147  1393  1511               	bsf	17,2	;volatile
  4148  1394                     l314:	
  4149  1394  0008               	return
  4150  1395                     __end_of_I2C_Master_Stop:	
  4151                           
  4152                           	psect	text9
  4153  1383                     __ptext9:	
  4154 ;; *************** function _I2C_Master_Start *****************
  4155 ;; Defined at:
  4156 ;;		line 39 in file "I2C.c"
  4157 ;; Parameters:    Size  Location     Type
  4158 ;;		None
  4159 ;; Auto vars:     Size  Location     Type
  4160 ;;		None
  4161 ;; Return value:  Size  Location     Type
  4162 ;;                  1    wreg      void 
  4163 ;; Registers used:
  4164 ;;		wreg, status,2, status,0, pclath, cstack
  4165 ;; Tracked objects:
  4166 ;;		On entry : 0/0
  4167 ;;		On exit  : 0/0
  4168 ;;		Unchanged: 0/0
  4169 ;; Data sizes:     COMMON   BANK0   BANK1   BANK3   BANK2
  4170 ;;      Params:         0       0       0       0       0
  4171 ;;      Locals:         0       0       0       0       0
  4172 ;;      Temps:          0       0       0       0       0
  4173 ;;      Totals:         0       0       0       0       0
  4174 ;;Total ram usage:        0 bytes
  4175 ;; Hardware stack levels used:    1
  4176 ;; Hardware stack levels required when called:    1
  4177 ;; This function calls:
  4178 ;;		_I2C_Master_Wait
  4179 ;; This function is called by:
  4180 ;;		_read_ds1307
  4181 ;;		_write_ds1307
  4182 ;;		_main
  4183 ;; This function uses a non-reentrant model
  4184 ;;
  4185                           
  4186                           
  4187                           ;psect for function _I2C_Master_Start
  4188  1383                     _I2C_Master_Start:	
  4189  1383                     l2432:	
  4190                           ;incstack = 0
  4191                           ; Regs used in _I2C_Master_Start: [wreg+status,2+status,0+pclath+cstack]
  4192                           
  4193                           
  4194                           ;I2C.c: 41:     I2C_Master_Wait();
  4195  1383  160A  118A  23B7  160A  118A  	fcall	_I2C_Master_Wait
  4196  1388                     l2434:	
  4197                           
  4198                           ;I2C.c: 42:     SSPCON2bits.SEN = 1;
  4199  1388  1683               	bsf	3,5	;RP0=1, select bank1
  4200  1389  1303               	bcf	3,6	;RP1=0, select bank1
  4201  138A  1411               	bsf	17,0	;volatile
  4202  138B                     l308:	
  4203  138B  0008               	return
  4204  138C                     __end_of_I2C_Master_Start:	
  4205                           
  4206                           	psect	text10
  4207  137A                     __ptext10:	
  4208 ;; *************** function _I2C_Master_RepeatedStart *****************
  4209 ;; Defined at:
  4210 ;;		line 47 in file "I2C.c"
  4211 ;; Parameters:    Size  Location     Type
  4212 ;;		None
  4213 ;; Auto vars:     Size  Location     Type
  4214 ;;		None
  4215 ;; Return value:  Size  Location     Type
  4216 ;;                  1    wreg      void 
  4217 ;; Registers used:
  4218 ;;		wreg, status,2, status,0, pclath, cstack
  4219 ;; Tracked objects:
  4220 ;;		On entry : 0/0
  4221 ;;		On exit  : 0/0
  4222 ;;		Unchanged: 0/0
  4223 ;; Data sizes:     COMMON   BANK0   BANK1   BANK3   BANK2
  4224 ;;      Params:         0       0       0       0       0
  4225 ;;      Locals:         0       0       0       0       0
  4226 ;;      Temps:          0       0       0       0       0
  4227 ;;      Totals:         0       0       0       0       0
  4228 ;;Total ram usage:        0 bytes
  4229 ;; Hardware stack levels used:    1
  4230 ;; Hardware stack levels required when called:    1
  4231 ;; This function calls:
  4232 ;;		_I2C_Master_Wait
  4233 ;; This function is called by:
  4234 ;;		_read_ds1307
  4235 ;; This function uses a non-reentrant model
  4236 ;;
  4237                           
  4238                           
  4239                           ;psect for function _I2C_Master_RepeatedStart
  4240  137A                     _I2C_Master_RepeatedStart:	
  4241  137A                     l2440:	
  4242                           ;incstack = 0
  4243                           ; Regs used in _I2C_Master_RepeatedStart: [wreg+status,2+status,0+pclath+cstack]
  4244                           
  4245                           
  4246                           ;I2C.c: 49:     I2C_Master_Wait();
  4247  137A  160A  118A  23B7  160A  118A  	fcall	_I2C_Master_Wait
  4248  137F                     l2442:	
  4249                           
  4250                           ;I2C.c: 50:     SSPCON2bits.RSEN = 1;
  4251  137F  1683               	bsf	3,5	;RP0=1, select bank1
  4252  1380  1303               	bcf	3,6	;RP1=0, select bank1
  4253  1381  1491               	bsf	17,1	;volatile
  4254  1382                     l311:	
  4255  1382  0008               	return
  4256  1383                     __end_of_I2C_Master_RepeatedStart:	
  4257                           
  4258                           	psect	text11
  4259  14E3                     __ptext11:	
  4260 ;; *************** function _I2C_Master_Read *****************
  4261 ;; Defined at:
  4262 ;;		line 74 in file "I2C.c"
  4263 ;; Parameters:    Size  Location     Type
  4264 ;;  a               2    0[COMMON] unsigned short 
  4265 ;; Auto vars:     Size  Location     Type
  4266 ;;  temp            2    4[COMMON] unsigned short 
  4267 ;; Return value:  Size  Location     Type
  4268 ;;                  2    0[COMMON] unsigned short 
  4269 ;; Registers used:
  4270 ;;		wreg, status,2, status,0, pclath, cstack
  4271 ;; Tracked objects:
  4272 ;;		On entry : 0/0
  4273 ;;		On exit  : 0/0
  4274 ;;		Unchanged: 0/0
  4275 ;; Data sizes:     COMMON   BANK0   BANK1   BANK3   BANK2
  4276 ;;      Params:         2       0       0       0       0
  4277 ;;      Locals:         2       0       0       0       0
  4278 ;;      Temps:          2       0       0       0       0
  4279 ;;      Totals:         6       0       0       0       0
  4280 ;;Total ram usage:        6 bytes
  4281 ;; Hardware stack levels used:    1
  4282 ;; Hardware stack levels required when called:    1
  4283 ;; This function calls:
  4284 ;;		_I2C_Master_Wait
  4285 ;; This function is called by:
  4286 ;;		_read_ds1307
  4287 ;;		_main
  4288 ;; This function uses a non-reentrant model
  4289 ;;
  4290                           
  4291                           
  4292                           ;psect for function _I2C_Master_Read
  4293  14E3                     _I2C_Master_Read:	
  4294  14E3                     l2444:	
  4295                           ;incstack = 0
  4296                           ; Regs used in _I2C_Master_Read: [wreg+status,2+status,0+pclath+cstack]
  4297                           
  4298                           
  4299                           ;I2C.c: 74: unsigned short I2C_Master_Read(unsigned short a);I2C.c: 75: {;I2C.c: 76:    
      +                           unsigned short temp;;I2C.c: 77:     I2C_Master_Wait();
  4300  14E3  160A  118A  23B7  160A  118A  	fcall	_I2C_Master_Wait
  4301  14E8                     l2446:	
  4302                           
  4303                           ;I2C.c: 78:     SSPCON2bits.RCEN = 1;
  4304  14E8  1683               	bsf	3,5	;RP0=1, select bank1
  4305  14E9  1303               	bcf	3,6	;RP1=0, select bank1
  4306  14EA  1591               	bsf	17,3	;volatile
  4307                           
  4308                           ;I2C.c: 79:     I2C_Master_Wait();
  4309  14EB  160A  118A  23B7  160A  118A  	fcall	_I2C_Master_Wait
  4310  14F0                     l2448:	
  4311                           
  4312                           ;I2C.c: 80:     temp = SSPBUF;
  4313  14F0  1283               	bcf	3,5	;RP0=0, select bank0
  4314  14F1  1303               	bcf	3,6	;RP1=0, select bank0
  4315  14F2  0813               	movf	19,w	;volatile
  4316  14F3  00F2               	movwf	??_I2C_Master_Read
  4317  14F4  01F3               	clrf	??_I2C_Master_Read+1
  4318  14F5  0872               	movf	??_I2C_Master_Read,w
  4319  14F6  00F4               	movwf	I2C_Master_Read@temp
  4320  14F7  0873               	movf	??_I2C_Master_Read+1,w
  4321  14F8  00F5               	movwf	I2C_Master_Read@temp+1
  4322  14F9                     l2450:	
  4323                           
  4324                           ;I2C.c: 81:     I2C_Master_Wait();
  4325  14F9  160A  118A  23B7  160A  118A  	fcall	_I2C_Master_Wait
  4326  14FE                     l2452:	
  4327                           
  4328                           ;I2C.c: 82:     if(a == 1){
  4329  14FE  0370               	decf	I2C_Master_Read@a,w
  4330  14FF  0471               	iorwf	I2C_Master_Read@a+1,w
  4331  1500  1D03               	btfss	3,2
  4332  1501  2D03               	goto	u2301
  4333  1502  2D04               	goto	u2300
  4334  1503                     u2301:	
  4335  1503  2D08               	goto	l320
  4336  1504                     u2300:	
  4337  1504                     l2454:	
  4338                           
  4339                           ;I2C.c: 83:         SSPCON2bits.ACKDT = 0;
  4340  1504  1683               	bsf	3,5	;RP0=1, select bank1
  4341  1505  1303               	bcf	3,6	;RP1=0, select bank1
  4342  1506  1291               	bcf	17,5	;volatile
  4343                           
  4344                           ;I2C.c: 84:     }else{
  4345  1507  2D0B               	goto	l321
  4346  1508                     l320:	
  4347                           
  4348                           ;I2C.c: 85:         SSPCON2bits.ACKDT = 1;
  4349  1508  1683               	bsf	3,5	;RP0=1, select bank1
  4350  1509  1303               	bcf	3,6	;RP1=0, select bank1
  4351  150A  1691               	bsf	17,5	;volatile
  4352  150B                     l321:	
  4353                           ;I2C.c: 86:     }
  4354                           
  4355                           
  4356                           ;I2C.c: 87:     SSPCON2bits.ACKEN = 1;
  4357  150B  1611               	bsf	17,4	;volatile
  4358  150C                     l2456:	
  4359                           
  4360                           ;I2C.c: 88:     return temp;
  4361  150C  0875               	movf	I2C_Master_Read@temp+1,w
  4362  150D  00F1               	movwf	?_I2C_Master_Read+1
  4363  150E  0874               	movf	I2C_Master_Read@temp,w
  4364  150F  00F0               	movwf	?_I2C_Master_Read
  4365  1510                     l322:	
  4366  1510  0008               	return
  4367  1511                     __end_of_I2C_Master_Read:	
  4368                           
  4369                           	psect	text12
  4370  13B7                     __ptext12:	
  4371 ;; *************** function _I2C_Master_Wait *****************
  4372 ;; Defined at:
  4373 ;;		line 32 in file "I2C.c"
  4374 ;; Parameters:    Size  Location     Type
  4375 ;;		None
  4376 ;; Auto vars:     Size  Location     Type
  4377 ;;		None
  4378 ;; Return value:  Size  Location     Type
  4379 ;;                  1    wreg      void 
  4380 ;; Registers used:
  4381 ;;		wreg, status,2
  4382 ;; Tracked objects:
  4383 ;;		On entry : 0/0
  4384 ;;		On exit  : 0/0
  4385 ;;		Unchanged: 0/0
  4386 ;; Data sizes:     COMMON   BANK0   BANK1   BANK3   BANK2
  4387 ;;      Params:         0       0       0       0       0
  4388 ;;      Locals:         0       0       0       0       0
  4389 ;;      Temps:          0       0       0       0       0
  4390 ;;      Totals:         0       0       0       0       0
  4391 ;;Total ram usage:        0 bytes
  4392 ;; Hardware stack levels used:    1
  4393 ;; This function calls:
  4394 ;;		Nothing
  4395 ;; This function is called by:
  4396 ;;		_I2C_Master_Start
  4397 ;;		_I2C_Master_RepeatedStart
  4398 ;;		_I2C_Master_Stop
  4399 ;;		_I2C_Master_Write
  4400 ;;		_I2C_Master_Read
  4401 ;; This function uses a non-reentrant model
  4402 ;;
  4403                           
  4404                           
  4405                           ;psect for function _I2C_Master_Wait
  4406  13B7                     _I2C_Master_Wait:	
  4407  13B7                     l2304:	
  4408                           ;incstack = 0
  4409                           ; Regs used in _I2C_Master_Wait: [wreg+status,2]
  4410                           
  4411  13B7                     l302:	
  4412                           ;I2C.c: 34:     while ((SSPSTAT & 0x04) || (SSPCON2 & 0x1F));
  4413                           
  4414  13B7  1683               	bsf	3,5	;RP0=1, select bank1
  4415  13B8  1303               	bcf	3,6	;RP1=0, select bank1
  4416  13B9  1914               	btfsc	20,2	;volatile
  4417  13BA  2BBC               	goto	u2071
  4418  13BB  2BBD               	goto	u2070
  4419  13BC                     u2071:	
  4420  13BC  2BB7               	goto	l302
  4421  13BD                     u2070:	
  4422  13BD                     l2306:	
  4423  13BD  0811               	movf	17,w	;volatile
  4424  13BE  391F               	andlw	31
  4425  13BF  1D03               	btfss	3,2
  4426  13C0  2BC2               	goto	u2081
  4427  13C1  2BC3               	goto	u2080
  4428  13C2                     u2081:	
  4429  13C2  2BB7               	goto	l302
  4430  13C3                     u2080:	
  4431  13C3                     l305:	
  4432  13C3  0008               	return
  4433  13C4                     __end_of_I2C_Master_Wait:	
  4434                           
  4435                           	psect	text13
  4436  096C                     __ptext13:	
  4437 ;; *************** function _lee2 *****************
  4438 ;; Defined at:
  4439 ;;		line 133 in file "./LCD2.h"
  4440 ;; Parameters:    Size  Location     Type
  4441 ;;  coso            1    wreg     unsigned char 
  4442 ;; Auto vars:     Size  Location     Type
  4443 ;;  coso            1   56[BANK0 ] unsigned char 
  4444 ;; Return value:  Size  Location     Type
  4445 ;;                  1    wreg      void 
  4446 ;; Registers used:
  4447 ;;		wreg, fsr0l, fsr0h, status,2, status,0, btemp+1, pclath, cstack
  4448 ;; Tracked objects:
  4449 ;;		On entry : 0/0
  4450 ;;		On exit  : 0/0
  4451 ;;		Unchanged: 0/0
  4452 ;; Data sizes:     COMMON   BANK0   BANK1   BANK3   BANK2
  4453 ;;      Params:         0       0       0       0       0
  4454 ;;      Locals:         0       1       0       0       0
  4455 ;;      Temps:          0       4       0       0       0
  4456 ;;      Totals:         0       5       0       0       0
  4457 ;;Total ram usage:        5 bytes
  4458 ;; Hardware stack levels used:    1
  4459 ;; Hardware stack levels required when called:    3
  4460 ;; This function calls:
  4461 ;;		___fldiv
  4462 ;;		___flmul
  4463 ;;		___fltol
  4464 ;;		___xxtofl
  4465 ;;		_itoa
  4466 ;;		_word
  4467 ;; This function is called by:
  4468 ;;		_main
  4469 ;; This function uses a non-reentrant model
  4470 ;;
  4471                           
  4472                           
  4473                           ;psect for function _lee2
  4474  096C                     _lee2:	
  4475                           
  4476                           ;incstack = 0
  4477                           ; Regs used in _lee2: [wreg-fsr0h+status,2+status,0+btemp+1+pclath+cstack]
  4478                           ;lee2@coso stored from wreg
  4479  096C  1283               	bcf	3,5	;RP0=0, select bank0
  4480  096D  1303               	bcf	3,6	;RP1=0, select bank0
  4481  096E  00D8               	movwf	lee2@coso
  4482  096F                     l3894:	
  4483                           
  4484                           ;./LCD2.h: 134:     _delay((unsigned long)((1)*(4000000/4000.0)));
  4485  096F  30C7               	movlw	199
  4486  0970  1283               	bcf	3,5	;RP0=0, select bank0
  4487  0971  1303               	bcf	3,6	;RP1=0, select bank0
  4488  0972  00D4               	movwf	??_lee2
  4489  0973                     u5247:	
  4490  0973  2974               	nop2
  4491  0974  0BD4               	decfsz	??_lee2,f
  4492  0975  2973               	goto	u5247
  4493  0976  2977               	nop2
  4494                           
  4495                           ;./LCD2.h: 136:     Voldc= coso;
  4496  0977  1283               	bcf	3,5	;RP0=0, select bank0
  4497  0978  1303               	bcf	3,6	;RP1=0, select bank0
  4498  0979  0858               	movf	lee2@coso,w
  4499  097A  00D4               	movwf	??_lee2
  4500  097B  0854               	movf	??_lee2,w
  4501  097C  00EE               	movwf	_Voldc
  4502  097D                     l3896:	
  4503                           
  4504                           ;./LCD2.h: 137:     voltaje=Voldc*5.0/255.0;
  4505  097D  3043               	movlw	67
  4506  097E  00BD               	movwf	___fldiv@a+3
  4507  097F  307F               	movlw	127
  4508  0980  00BC               	movwf	___fldiv@a+2
  4509  0981  3000               	movlw	0
  4510  0982  00BB               	movwf	___fldiv@a+1
  4511  0983  3000               	movlw	0
  4512  0984  00BA               	movwf	___fldiv@a
  4513  0985  3040               	movlw	64
  4514  0986  00A3               	movwf	___flmul@b+3
  4515  0987  30A0               	movlw	160
  4516  0988  00A2               	movwf	___flmul@b+2
  4517  0989  3000               	movlw	0
  4518  098A  00A1               	movwf	___flmul@b+1
  4519  098B  3000               	movlw	0
  4520  098C  00A0               	movwf	___flmul@b
  4521  098D  086E               	movf	_Voldc,w
  4522  098E  00D4               	movwf	??_lee2
  4523  098F  01D5               	clrf	??_lee2+1
  4524  0990  01D6               	clrf	??_lee2+2
  4525  0991  01D7               	clrf	??_lee2+3
  4526  0992  0857               	movf	??_lee2+3,w
  4527  0993  00F3               	movwf	___xxtofl@val+3
  4528  0994  0856               	movf	??_lee2+2,w
  4529  0995  00F2               	movwf	___xxtofl@val+2
  4530  0996  0855               	movf	??_lee2+1,w
  4531  0997  00F1               	movwf	___xxtofl@val+1
  4532  0998  0854               	movf	??_lee2,w
  4533  0999  00F0               	movwf	___xxtofl@val
  4534  099A  3001               	movlw	1
  4535  099B  120A  158A  2208  120A  158A  	fcall	___xxtofl
  4536  09A0  0873               	movf	?___xxtofl+3,w
  4537  09A1  1283               	bcf	3,5	;RP0=0, select bank0
  4538  09A2  1303               	bcf	3,6	;RP1=0, select bank0
  4539  09A3  00A7               	movwf	___flmul@a+3
  4540  09A4  0872               	movf	?___xxtofl+2,w
  4541  09A5  00A6               	movwf	___flmul@a+2
  4542  09A6  0871               	movf	?___xxtofl+1,w
  4543  09A7  00A5               	movwf	___flmul@a+1
  4544  09A8  0870               	movf	?___xxtofl,w
  4545  09A9  00A4               	movwf	___flmul@a
  4546  09AA  120A  158A  249F  120A  158A  	fcall	___flmul
  4547  09AF  1283               	bcf	3,5	;RP0=0, select bank0
  4548  09B0  1303               	bcf	3,6	;RP1=0, select bank0
  4549  09B1  0823               	movf	?___flmul+3,w
  4550  09B2  00C1               	movwf	___fldiv@b+3
  4551  09B3  0822               	movf	?___flmul+2,w
  4552  09B4  00C0               	movwf	___fldiv@b+2
  4553  09B5  0821               	movf	?___flmul+1,w
  4554  09B6  00BF               	movwf	___fldiv@b+1
  4555  09B7  0820               	movf	?___flmul,w
  4556  09B8  00BE               	movwf	___fldiv@b
  4557  09B9  120A  158A  22C2  120A  158A  	fcall	___fldiv
  4558  09BE  1283               	bcf	3,5	;RP0=0, select bank0
  4559  09BF  1303               	bcf	3,6	;RP1=0, select bank0
  4560  09C0  083D               	movf	?___fldiv+3,w
  4561  09C1  1683               	bsf	3,5	;RP0=1, select bank1
  4562  09C2  1303               	bcf	3,6	;RP1=0, select bank1
  4563  09C3  00D5               	movwf	(_voltaje+3)^(0+128)
  4564  09C4  1283               	bcf	3,5	;RP0=0, select bank0
  4565  09C5  1303               	bcf	3,6	;RP1=0, select bank0
  4566  09C6  083C               	movf	?___fldiv+2,w
  4567  09C7  1683               	bsf	3,5	;RP0=1, select bank1
  4568  09C8  1303               	bcf	3,6	;RP1=0, select bank1
  4569  09C9  00D4               	movwf	(_voltaje+2)^(0+128)
  4570  09CA  1283               	bcf	3,5	;RP0=0, select bank0
  4571  09CB  1303               	bcf	3,6	;RP1=0, select bank0
  4572  09CC  083B               	movf	?___fldiv+1,w
  4573  09CD  1683               	bsf	3,5	;RP0=1, select bank1
  4574  09CE  1303               	bcf	3,6	;RP1=0, select bank1
  4575  09CF  00D3               	movwf	(_voltaje+1)^(0+128)
  4576  09D0  1283               	bcf	3,5	;RP0=0, select bank0
  4577  09D1  1303               	bcf	3,6	;RP1=0, select bank0
  4578  09D2  083A               	movf	?___fldiv,w
  4579  09D3  1683               	bsf	3,5	;RP0=1, select bank1
  4580  09D4  1303               	bcf	3,6	;RP1=0, select bank1
  4581  09D5  00D2               	movwf	_voltaje^(0+128)
  4582  09D6                     l3898:	
  4583                           
  4584                           ;./LCD2.h: 138:      itoa(guardar,voltaje,10);
  4585  09D6  0855               	movf	(_voltaje+3)^(0+128),w
  4586  09D7  00F3               	movwf	___fltol@f1+3
  4587  09D8  0854               	movf	(_voltaje+2)^(0+128),w
  4588  09D9  00F2               	movwf	___fltol@f1+2
  4589  09DA  0853               	movf	(_voltaje+1)^(0+128),w
  4590  09DB  00F1               	movwf	___fltol@f1+1
  4591  09DC  0852               	movf	_voltaje^(0+128),w
  4592  09DD  00F0               	movwf	___fltol@f1
  4593  09DE  120A  158A  20F2  120A  158A  	fcall	___fltol
  4594  09E3  0871               	movf	?___fltol+1,w
  4595  09E4  1283               	bcf	3,5	;RP0=0, select bank0
  4596  09E5  1303               	bcf	3,6	;RP1=0, select bank0
  4597  09E6  00A5               	movwf	itoa@val+1
  4598  09E7  0870               	movf	?___fltol,w
  4599  09E8  00A4               	movwf	itoa@val
  4600  09E9  300A               	movlw	10
  4601  09EA  00A6               	movwf	itoa@base
  4602  09EB  3000               	movlw	0
  4603  09EC  00A7               	movwf	itoa@base+1
  4604  09ED  309A               	movlw	(low (_guardar| (0+256)))& (0+255)
  4605  09EE  160A  118A  2443  120A  158A  	fcall	_itoa
  4606  09F3                     l3900:	
  4607                           
  4608                           ;./LCD2.h: 141:     word(guardar);
  4609  09F3  309A               	movlw	(low (_guardar| (0+256)))& (0+255)
  4610  09F4  00F3               	movwf	word@a
  4611  09F5  3001               	movlw	1
  4612  09F6  00F4               	movwf	word@a+1
  4613  09F7  160A  118A  2571  120A  158A  	fcall	_word
  4614  09FC                     l3902:	
  4615                           
  4616                           ;./LCD2.h: 143:     _delay((unsigned long)((5)*(4000000/4000.0)));
  4617  09FC  3007               	movlw	7
  4618  09FD  1283               	bcf	3,5	;RP0=0, select bank0
  4619  09FE  1303               	bcf	3,6	;RP1=0, select bank0
  4620  09FF  00D5               	movwf	??_lee2+1
  4621  0A00  307C               	movlw	124
  4622  0A01  00D4               	movwf	??_lee2
  4623  0A02                     u5257:	
  4624  0A02  0BD4               	decfsz	??_lee2,f
  4625  0A03  2A02               	goto	u5257
  4626  0A04  0BD5               	decfsz	??_lee2+1,f
  4627  0A05  2A02               	goto	u5257
  4628  0A06  0000               	nop
  4629  0A07                     l121:	
  4630  0A07  0008               	return
  4631  0A08                     __end_of_lee2:	
  4632                           
  4633                           	psect	text14
  4634  1571                     __ptext14:	
  4635 ;; *************** function _word *****************
  4636 ;; Defined at:
  4637 ;;		line 102 in file "./LCD2.h"
  4638 ;; Parameters:    Size  Location     Type
  4639 ;;  a               2    3[COMMON] PTR unsigned char 
  4640 ;;		 -> dis(4), dis2(3), time(12), temp(10), 
  4641 ;;		 -> pes2(6), Lcd_Write_Int@buffer(4), guardar2(10), guardar(10), 
  4642 ;; Auto vars:     Size  Location     Type
  4643 ;;  i               2    8[COMMON] int 
  4644 ;; Return value:  Size  Location     Type
  4645 ;;                  1    wreg      void 
  4646 ;; Registers used:
  4647 ;;		wreg, fsr0l, fsr0h, status,2, status,0, pclath, cstack
  4648 ;; Tracked objects:
  4649 ;;		On entry : 0/0
  4650 ;;		On exit  : 0/0
  4651 ;;		Unchanged: 0/0
  4652 ;; Data sizes:     COMMON   BANK0   BANK1   BANK3   BANK2
  4653 ;;      Params:         2       0       0       0       0
  4654 ;;      Locals:         2       0       0       0       0
  4655 ;;      Temps:          3       0       0       0       0
  4656 ;;      Totals:         7       0       0       0       0
  4657 ;;Total ram usage:        7 bytes
  4658 ;; Hardware stack levels used:    1
  4659 ;; Hardware stack levels required when called:    2
  4660 ;; This function calls:
  4661 ;;		_letra
  4662 ;; This function is called by:
  4663 ;;		_lee2
  4664 ;;		_main
  4665 ;;		_lee1
  4666 ;;		_lee3
  4667 ;;		_Lcd_Write_Int
  4668 ;; This function uses a non-reentrant model
  4669 ;;
  4670                           
  4671                           
  4672                           ;psect for function _word
  4673  1571                     _word:	
  4674  1571                     l3886:	
  4675                           ;incstack = 0
  4676                           ; Regs used in _word: [wreg-fsr0h+status,2+status,0+pclath+cstack]
  4677                           
  4678                           
  4679                           ;./LCD2.h: 102: void word(char *a);./LCD2.h: 103: {;./LCD2.h: 104:  int i;;./LCD2.h: 105
      +                          :  for(i=0;a[i]!='\0';i++)
  4680  1571  01F8               	clrf	word@i
  4681  1572  01F9               	clrf	word@i+1
  4682  1573  2D91               	goto	l3892
  4683  1574                     l3888:	
  4684                           
  4685                           ;./LCD2.h: 106:     letra(a[i]);
  4686  1574  0878               	movf	word@i,w
  4687  1575  0773               	addwf	word@a,w
  4688  1576  00F6               	movwf	??_word+1
  4689  1577  0874               	movf	word@a+1,w
  4690  1578  00F5               	movwf	??_word
  4691  1579  1803               	skipnc
  4692  157A  0AF5               	incf	??_word,f
  4693  157B  1FF8               	btfss	word@i,7
  4694  157C  2D7E               	goto	u4680
  4695  157D  03F5               	decf	??_word,f
  4696  157E                     u4680:	
  4697  157E  0875               	movf	??_word,w
  4698  157F  00F7               	movwf	??_word+2
  4699  1580  0876               	movf	??_word+1,w
  4700  1581  0084               	movwf	4
  4701  1582  1783               	bsf	3,7
  4702  1583  1C77               	btfss	??_word+2,0
  4703  1584  1383               	bcf	3,7
  4704  1585  0800               	movf	0,w
  4705  1586  120A  158A  2002  160A  118A  	fcall	_letra
  4706  158B                     l3890:	
  4707  158B  3001               	movlw	1
  4708  158C  07F8               	addwf	word@i,f
  4709  158D  1803               	skipnc
  4710  158E  0AF9               	incf	word@i+1,f
  4711  158F  3000               	movlw	0
  4712  1590  07F9               	addwf	word@i+1,f
  4713  1591                     l3892:	
  4714  1591  0878               	movf	word@i,w
  4715  1592  0773               	addwf	word@a,w
  4716  1593  00F6               	movwf	??_word+1
  4717  1594  0874               	movf	word@a+1,w
  4718  1595  00F5               	movwf	??_word
  4719  1596  1803               	skipnc
  4720  1597  0AF5               	incf	??_word,f
  4721  1598  1FF8               	btfss	word@i,7
  4722  1599  2D9B               	goto	u4690
  4723  159A  03F5               	decf	??_word,f
  4724  159B                     u4690:	
  4725  159B  0875               	movf	??_word,w
  4726  159C  00F7               	movwf	??_word+2
  4727  159D  0876               	movf	??_word+1,w
  4728  159E  0084               	movwf	4
  4729  159F  1783               	bsf	3,7
  4730  15A0  1C77               	btfss	??_word+2,0
  4731  15A1  1383               	bcf	3,7
  4732  15A2  0800               	movf	0,w
  4733  15A3  1D03               	btfss	3,2
  4734  15A4  2DA6               	goto	u4701
  4735  15A5  2DA7               	goto	u4700
  4736  15A6                     u4701:	
  4737  15A6  2D74               	goto	l3888
  4738  15A7                     u4700:	
  4739  15A7                     l109:	
  4740  15A7  0008               	return
  4741  15A8                     __end_of_word:	
  4742                           
  4743                           	psect	text15
  4744  0802                     __ptext15:	
  4745 ;; *************** function _letra *****************
  4746 ;; Defined at:
  4747 ;;		line 91 in file "./LCD2.h"
  4748 ;; Parameters:    Size  Location     Type
  4749 ;;  E               1    wreg     unsigned char 
  4750 ;; Auto vars:     Size  Location     Type
  4751 ;;  E               1    2[COMMON] unsigned char 
  4752 ;; Return value:  Size  Location     Type
  4753 ;;                  1    wreg      void 
  4754 ;; Registers used:
  4755 ;;		wreg, status,2, status,0, pclath, cstack
  4756 ;; Tracked objects:
  4757 ;;		On entry : 0/0
  4758 ;;		On exit  : 0/0
  4759 ;;		Unchanged: 0/0
  4760 ;; Data sizes:     COMMON   BANK0   BANK1   BANK3   BANK2
  4761 ;;      Params:         0       0       0       0       0
  4762 ;;      Locals:         1       0       0       0       0
  4763 ;;      Temps:          1       0       0       0       0
  4764 ;;      Totals:         2       0       0       0       0
  4765 ;;Total ram usage:        2 bytes
  4766 ;; Hardware stack levels used:    1
  4767 ;; Hardware stack levels required when called:    1
  4768 ;; This function calls:
  4769 ;;		_port
  4770 ;; This function is called by:
  4771 ;;		_word
  4772 ;; This function uses a non-reentrant model
  4773 ;;
  4774                           
  4775                           
  4776                           ;psect for function _letra
  4777  0802                     _letra:	
  4778                           
  4779                           ;incstack = 0
  4780                           ; Regs used in _letra: [wreg+status,2+status,0+pclath+cstack]
  4781                           ;letra@E stored from wreg
  4782  0802  00F2               	movwf	letra@E
  4783  0803                     l2294:	
  4784                           
  4785                           ;./LCD2.h: 91: void letra(char E);./LCD2.h: 92: {;./LCD2.h: 93:    PORTDbits.RD0 = 1;
  4786  0803  1283               	bcf	3,5	;RP0=0, select bank0
  4787  0804  1303               	bcf	3,6	;RP1=0, select bank0
  4788  0805  1408               	bsf	8,0	;volatile
  4789  0806                     l2296:	
  4790                           
  4791                           ;./LCD2.h: 94:    port(E);
  4792  0806  0872               	movf	letra@E,w
  4793  0807  160A  118A  236C  120A  158A  	fcall	_port
  4794  080C                     l2298:	
  4795                           
  4796                           ;./LCD2.h: 95:    PORTDbits.RD2 = 1;
  4797  080C  1283               	bcf	3,5	;RP0=0, select bank0
  4798  080D  1303               	bcf	3,6	;RP1=0, select bank0
  4799  080E  1508               	bsf	8,2	;volatile
  4800  080F                     l2300:	
  4801                           
  4802                           ;./LCD2.h: 96:    _delay((unsigned long)((40)*(4000000/4000000.0)));
  4803  080F  300D               	movlw	13
  4804  0810  00F1               	movwf	??_letra
  4805  0811                     u5267:	
  4806  0811  0BF1               	decfsz	??_letra,f
  4807  0812  2811               	goto	u5267
  4808  0813                     l2302:	
  4809                           
  4810                           ;./LCD2.h: 97:    PORTDbits.RD2 = 0;
  4811  0813  1283               	bcf	3,5	;RP0=0, select bank0
  4812  0814  1303               	bcf	3,6	;RP1=0, select bank0
  4813  0815  1108               	bcf	8,2	;volatile
  4814  0816                     l103:	
  4815  0816  0008               	return
  4816  0817                     __end_of_letra:	
  4817                           
  4818                           	psect	text16
  4819  1443                     __ptext16:	
  4820 ;; *************** function _itoa *****************
  4821 ;; Defined at:
  4822 ;;		line 4 in file "C:\Program Files (x86)\Microchip\xc8\v2.10\pic\sources\c90\common\itoa.c"
  4823 ;; Parameters:    Size  Location     Type
  4824 ;;  buf             1    wreg     PTR unsigned char 
  4825 ;;		 -> guardar2(10), guardar(10), 
  4826 ;;  val             2    4[BANK0 ] int 
  4827 ;;  base            2    6[BANK0 ] int 
  4828 ;; Auto vars:     Size  Location     Type
  4829 ;;  buf             1    9[BANK0 ] PTR unsigned char 
  4830 ;;		 -> guardar2(10), guardar(10), 
  4831 ;;  cp              1    0        PTR unsigned char 
  4832 ;;		 -> guardar2(10), guardar(10), 
  4833 ;; Return value:  Size  Location     Type
  4834 ;;                  1    wreg      PTR unsigned char 
  4835 ;; Registers used:
  4836 ;;		wreg, fsr0l, fsr0h, status,2, status,0, pclath, cstack
  4837 ;; Tracked objects:
  4838 ;;		On entry : 0/0
  4839 ;;		On exit  : 0/0
  4840 ;;		Unchanged: 0/0
  4841 ;; Data sizes:     COMMON   BANK0   BANK1   BANK3   BANK2
  4842 ;;      Params:         0       4       0       0       0
  4843 ;;      Locals:         0       2       0       0       0
  4844 ;;      Temps:          1       0       0       0       0
  4845 ;;      Totals:         1       6       0       0       0
  4846 ;;Total ram usage:        7 bytes
  4847 ;; Hardware stack levels used:    1
  4848 ;; Hardware stack levels required when called:    2
  4849 ;; This function calls:
  4850 ;;		_utoa
  4851 ;; This function is called by:
  4852 ;;		_lee2
  4853 ;;		_lee3
  4854 ;; This function uses a non-reentrant model
  4855 ;;
  4856                           
  4857                           
  4858                           ;psect for function _itoa
  4859  1443                     _itoa:	
  4860                           
  4861                           ;incstack = 0
  4862                           ; Regs used in _itoa: [wreg-fsr0h+status,2+status,0+pclath+cstack]
  4863                           ;itoa@buf stored from wreg
  4864  1443  1283               	bcf	3,5	;RP0=0, select bank0
  4865  1444  1303               	bcf	3,6	;RP1=0, select bank0
  4866  1445  00A9               	movwf	itoa@buf
  4867  1446                     l2406:	
  4868  1446                     l2408:	
  4869  1446  1FA5               	btfss	itoa@val+1,7
  4870  1447  2C49               	goto	u2281
  4871  1448  2C4A               	goto	u2280
  4872  1449                     u2281:	
  4873  1449  2C5A               	goto	l2416
  4874  144A                     u2280:	
  4875  144A                     l2410:	
  4876  144A  302D               	movlw	45
  4877  144B  00FD               	movwf	??_itoa
  4878  144C  0829               	movf	itoa@buf,w
  4879  144D  0084               	movwf	4
  4880  144E  087D               	movf	??_itoa,w
  4881  144F  1783               	bsf	3,7	;select IRP bank2
  4882  1450  0080               	movwf	0
  4883  1451                     l2412:	
  4884  1451  3001               	movlw	1
  4885  1452  00FD               	movwf	??_itoa
  4886  1453  087D               	movf	??_itoa,w
  4887  1454  07A9               	addwf	itoa@buf,f
  4888  1455                     l2414:	
  4889  1455  09A4               	comf	itoa@val,f
  4890  1456  09A5               	comf	itoa@val+1,f
  4891  1457  0AA4               	incf	itoa@val,f
  4892  1458  1903               	skipnz
  4893  1459  0AA5               	incf	itoa@val+1,f
  4894  145A                     l2416:	
  4895  145A  0825               	movf	itoa@val+1,w
  4896  145B  00F9               	movwf	utoa@val+1
  4897  145C  0824               	movf	itoa@val,w
  4898  145D  00F8               	movwf	utoa@val
  4899  145E  0827               	movf	itoa@base+1,w
  4900  145F  00FB               	movwf	utoa@base+1
  4901  1460  0826               	movf	itoa@base,w
  4902  1461  00FA               	movwf	utoa@base
  4903  1462  0829               	movf	itoa@buf,w
  4904  1463  120A  158A  2080  160A  118A  	fcall	_utoa
  4905  1468                     l860:	
  4906  1468  0008               	return
  4907  1469                     __end_of_itoa:	
  4908                           
  4909                           	psect	text17
  4910  0880                     __ptext17:	
  4911 ;; *************** function _utoa *****************
  4912 ;; Defined at:
  4913 ;;		line 17 in file "C:\Program Files (x86)\Microchip\xc8\v2.10\pic\sources\c90\common\itoa.c"
  4914 ;; Parameters:    Size  Location     Type
  4915 ;;  buf             1    wreg     PTR unsigned char 
  4916 ;;		 -> guardar2(10), guardar(10), 
  4917 ;;  val             2    8[COMMON] unsigned int 
  4918 ;;  base            2   10[COMMON] int 
  4919 ;; Auto vars:     Size  Location     Type
  4920 ;;  buf             1    3[BANK0 ] PTR unsigned char 
  4921 ;;		 -> guardar2(10), guardar(10), 
  4922 ;;  v               2    0[BANK0 ] unsigned int 
  4923 ;;  c               1    2[BANK0 ] unsigned char 
  4924 ;; Return value:  Size  Location     Type
  4925 ;;                  1    wreg      PTR unsigned char 
  4926 ;; Registers used:
  4927 ;;		wreg, fsr0l, fsr0h, status,2, status,0, pclath, cstack
  4928 ;; Tracked objects:
  4929 ;;		On entry : 0/0
  4930 ;;		On exit  : 0/0
  4931 ;;		Unchanged: 0/0
  4932 ;; Data sizes:     COMMON   BANK0   BANK1   BANK3   BANK2
  4933 ;;      Params:         4       0       0       0       0
  4934 ;;      Locals:         0       4       0       0       0
  4935 ;;      Temps:          1       0       0       0       0
  4936 ;;      Totals:         5       4       0       0       0
  4937 ;;Total ram usage:        9 bytes
  4938 ;; Hardware stack levels used:    1
  4939 ;; Hardware stack levels required when called:    1
  4940 ;; This function calls:
  4941 ;;		___lwdiv
  4942 ;;		___lwmod
  4943 ;; This function is called by:
  4944 ;;		_itoa
  4945 ;; This function uses a non-reentrant model
  4946 ;;
  4947                           
  4948                           
  4949                           ;psect for function _utoa
  4950  0880                     _utoa:	
  4951                           
  4952                           ;incstack = 0
  4953                           ; Regs used in _utoa: [wreg-fsr0h+status,2+status,0+pclath+cstack]
  4954                           ;utoa@buf stored from wreg
  4955  0880  1283               	bcf	3,5	;RP0=0, select bank0
  4956  0881  1303               	bcf	3,6	;RP1=0, select bank0
  4957  0882  00A3               	movwf	utoa@buf
  4958  0883                     l2358:	
  4959  0883  0879               	movf	utoa@val+1,w
  4960  0884  00A1               	movwf	utoa@v+1
  4961  0885  0878               	movf	utoa@val,w
  4962  0886  00A0               	movwf	utoa@v
  4963  0887                     l2360:	
  4964  0887  087B               	movf	utoa@base+1,w
  4965  0888  00F1               	movwf	___lwdiv@divisor+1
  4966  0889  087A               	movf	utoa@base,w
  4967  088A  00F0               	movwf	___lwdiv@divisor
  4968  088B  0821               	movf	utoa@v+1,w
  4969  088C  00F3               	movwf	___lwdiv@dividend+1
  4970  088D  0820               	movf	utoa@v,w
  4971  088E  00F2               	movwf	___lwdiv@dividend
  4972  088F  160A  118A  2692  120A  158A  	fcall	___lwdiv
  4973  0894  0871               	movf	?___lwdiv+1,w
  4974  0895  1283               	bcf	3,5	;RP0=0, select bank0
  4975  0896  1303               	bcf	3,6	;RP1=0, select bank0
  4976  0897  00A1               	movwf	utoa@v+1
  4977  0898  0870               	movf	?___lwdiv,w
  4978  0899  00A0               	movwf	utoa@v
  4979  089A                     l2362:	
  4980  089A  3001               	movlw	1
  4981  089B  00FC               	movwf	??_utoa
  4982  089C  087C               	movf	??_utoa,w
  4983  089D  07A3               	addwf	utoa@buf,f
  4984  089E                     l2364:	
  4985  089E  0820               	movf	utoa@v,w
  4986  089F  0421               	iorwf	utoa@v+1,w
  4987  08A0  1D03               	btfss	3,2
  4988  08A1  28A3               	goto	u2221
  4989  08A2  28A4               	goto	u2220
  4990  08A3                     u2221:	
  4991  08A3  2887               	goto	l2360
  4992  08A4                     u2220:	
  4993  08A4                     l2366:	
  4994  08A4  0823               	movf	utoa@buf,w
  4995  08A5  0084               	movwf	4
  4996  08A6  1783               	bsf	3,7	;select IRP bank2
  4997  08A7  0180               	clrf	0
  4998  08A8                     l2368:	
  4999  08A8  3001               	movlw	1
  5000  08A9  02A3               	subwf	utoa@buf,f
  5001  08AA                     l2370:	
  5002  08AA  087B               	movf	utoa@base+1,w
  5003  08AB  00F1               	movwf	___lwmod@divisor+1
  5004  08AC  087A               	movf	utoa@base,w
  5005  08AD  00F0               	movwf	___lwmod@divisor
  5006  08AE  0879               	movf	utoa@val+1,w
  5007  08AF  00F3               	movwf	___lwmod@dividend+1
  5008  08B0  0878               	movf	utoa@val,w
  5009  08B1  00F2               	movwf	___lwmod@dividend
  5010  08B2  160A  118A  25E0  120A  158A  	fcall	___lwmod
  5011  08B7  0870               	movf	?___lwmod,w
  5012  08B8  00FC               	movwf	??_utoa
  5013  08B9  087C               	movf	??_utoa,w
  5014  08BA  1283               	bcf	3,5	;RP0=0, select bank0
  5015  08BB  1303               	bcf	3,6	;RP1=0, select bank0
  5016  08BC  00A2               	movwf	utoa@c
  5017  08BD                     l2372:	
  5018  08BD  087B               	movf	utoa@base+1,w
  5019  08BE  00F1               	movwf	___lwdiv@divisor+1
  5020  08BF  087A               	movf	utoa@base,w
  5021  08C0  00F0               	movwf	___lwdiv@divisor
  5022  08C1  0879               	movf	utoa@val+1,w
  5023  08C2  00F3               	movwf	___lwdiv@dividend+1
  5024  08C3  0878               	movf	utoa@val,w
  5025  08C4  00F2               	movwf	___lwdiv@dividend
  5026  08C5  160A  118A  2692  120A  158A  	fcall	___lwdiv
  5027  08CA  0871               	movf	?___lwdiv+1,w
  5028  08CB  00F9               	movwf	utoa@val+1
  5029  08CC  0870               	movf	?___lwdiv,w
  5030  08CD  00F8               	movwf	utoa@val
  5031  08CE                     l2374:	
  5032  08CE  300A               	movlw	10
  5033  08CF  1283               	bcf	3,5	;RP0=0, select bank0
  5034  08D0  1303               	bcf	3,6	;RP1=0, select bank0
  5035  08D1  0222               	subwf	utoa@c,w
  5036  08D2  1C03               	skipc
  5037  08D3  28D5               	goto	u2231
  5038  08D4  28D6               	goto	u2230
  5039  08D5                     u2231:	
  5040  08D5  28DA               	goto	l866
  5041  08D6                     u2230:	
  5042  08D6                     l2376:	
  5043  08D6  3007               	movlw	7
  5044  08D7  00FC               	movwf	??_utoa
  5045  08D8  087C               	movf	??_utoa,w
  5046  08D9  07A2               	addwf	utoa@c,f
  5047  08DA                     l866:	
  5048  08DA  3030               	movlw	48
  5049  08DB  00FC               	movwf	??_utoa
  5050  08DC  087C               	movf	??_utoa,w
  5051  08DD  07A2               	addwf	utoa@c,f
  5052  08DE                     l2378:	
  5053  08DE  0822               	movf	utoa@c,w
  5054  08DF  00FC               	movwf	??_utoa
  5055  08E0  0823               	movf	utoa@buf,w
  5056  08E1  0084               	movwf	4
  5057  08E2  087C               	movf	??_utoa,w
  5058  08E3  1783               	bsf	3,7	;select IRP bank2
  5059  08E4  0080               	movwf	0
  5060  08E5                     l2380:	
  5061  08E5  3001               	movlw	1
  5062  08E6  02A3               	subwf	utoa@buf,f
  5063  08E7                     l2382:	
  5064  08E7  0878               	movf	utoa@val,w
  5065  08E8  0479               	iorwf	utoa@val+1,w
  5066  08E9  1D03               	btfss	3,2
  5067  08EA  28EC               	goto	u2241
  5068  08EB  28ED               	goto	u2240
  5069  08EC                     u2241:	
  5070  08EC  28AA               	goto	l2370
  5071  08ED                     u2240:	
  5072  08ED                     l2384:	
  5073                           
  5074                           ;	Return value of _utoa is never used
  5075  08ED  3001               	movlw	1
  5076  08EE  00FC               	movwf	??_utoa
  5077  08EF  087C               	movf	??_utoa,w
  5078  08F0  07A3               	addwf	utoa@buf,f
  5079  08F1                     l868:	
  5080  08F1  0008               	return
  5081  08F2                     __end_of_utoa:	
  5082                           
  5083                           	psect	text18
  5084  15E0                     __ptext18:	
  5085 ;; *************** function ___lwmod *****************
  5086 ;; Defined at:
  5087 ;;		line 5 in file "C:\Program Files (x86)\Microchip\xc8\v2.10\pic\sources\c90\common\lwmod.c"
  5088 ;; Parameters:    Size  Location     Type
  5089 ;;  divisor         2    0[COMMON] unsigned int 
  5090 ;;  dividend        2    2[COMMON] unsigned int 
  5091 ;; Auto vars:     Size  Location     Type
  5092 ;;  counter         1    5[COMMON] unsigned char 
  5093 ;; Return value:  Size  Location     Type
  5094 ;;                  2    0[COMMON] unsigned int 
  5095 ;; Registers used:
  5096 ;;		wreg, status,2, status,0
  5097 ;; Tracked objects:
  5098 ;;		On entry : 0/0
  5099 ;;		On exit  : 0/0
  5100 ;;		Unchanged: 0/0
  5101 ;; Data sizes:     COMMON   BANK0   BANK1   BANK3   BANK2
  5102 ;;      Params:         4       0       0       0       0
  5103 ;;      Locals:         1       0       0       0       0
  5104 ;;      Temps:          1       0       0       0       0
  5105 ;;      Totals:         6       0       0       0       0
  5106 ;;Total ram usage:        6 bytes
  5107 ;; Hardware stack levels used:    1
  5108 ;; This function calls:
  5109 ;;		Nothing
  5110 ;; This function is called by:
  5111 ;;		_utoa
  5112 ;; This function uses a non-reentrant model
  5113 ;;
  5114                           
  5115                           
  5116                           ;psect for function ___lwmod
  5117  15E0                     ___lwmod:	
  5118  15E0                     l2272:	
  5119                           ;incstack = 0
  5120                           ; Regs used in ___lwmod: [wreg+status,2+status,0]
  5121                           
  5122  15E0  0870               	movf	___lwmod@divisor,w
  5123  15E1  0471               	iorwf	___lwmod@divisor+1,w
  5124  15E2  1903               	btfsc	3,2
  5125  15E3  2DE5               	goto	u2011
  5126  15E4  2DE6               	goto	u2010
  5127  15E5                     u2011:	
  5128  15E5  2E15               	goto	l2290
  5129  15E6                     u2010:	
  5130  15E6                     l2274:	
  5131  15E6  01F5               	clrf	___lwmod@counter
  5132  15E7  0AF5               	incf	___lwmod@counter,f
  5133  15E8  2DF4               	goto	l2280
  5134  15E9                     l2276:	
  5135  15E9  3001               	movlw	1
  5136  15EA                     u2025:	
  5137  15EA  1003               	clrc
  5138  15EB  0DF0               	rlf	___lwmod@divisor,f
  5139  15EC  0DF1               	rlf	___lwmod@divisor+1,f
  5140  15ED  3EFF               	addlw	-1
  5141  15EE  1D03               	skipz
  5142  15EF  2DEA               	goto	u2025
  5143  15F0                     l2278:	
  5144  15F0  3001               	movlw	1
  5145  15F1  00F4               	movwf	??___lwmod
  5146  15F2  0874               	movf	??___lwmod,w
  5147  15F3  07F5               	addwf	___lwmod@counter,f
  5148  15F4                     l2280:	
  5149  15F4  1FF1               	btfss	___lwmod@divisor+1,7
  5150  15F5  2DF7               	goto	u2031
  5151  15F6  2DF8               	goto	u2030
  5152  15F7                     u2031:	
  5153  15F7  2DE9               	goto	l2276
  5154  15F8                     u2030:	
  5155  15F8                     l2282:	
  5156  15F8  0871               	movf	___lwmod@divisor+1,w
  5157  15F9  0273               	subwf	___lwmod@dividend+1,w
  5158  15FA  1D03               	skipz
  5159  15FB  2DFE               	goto	u2045
  5160  15FC  0870               	movf	___lwmod@divisor,w
  5161  15FD  0272               	subwf	___lwmod@dividend,w
  5162  15FE                     u2045:	
  5163  15FE  1C03               	skipc
  5164  15FF  2E01               	goto	u2041
  5165  1600  2E02               	goto	u2040
  5166  1601                     u2041:	
  5167  1601  2E08               	goto	l2286
  5168  1602                     u2040:	
  5169  1602                     l2284:	
  5170  1602  0870               	movf	___lwmod@divisor,w
  5171  1603  02F2               	subwf	___lwmod@dividend,f
  5172  1604  0871               	movf	___lwmod@divisor+1,w
  5173  1605  1C03               	skipc
  5174  1606  03F3               	decf	___lwmod@dividend+1,f
  5175  1607  02F3               	subwf	___lwmod@dividend+1,f
  5176  1608                     l2286:	
  5177  1608  3001               	movlw	1
  5178  1609                     u2055:	
  5179  1609  1003               	clrc
  5180  160A  0CF1               	rrf	___lwmod@divisor+1,f
  5181  160B  0CF0               	rrf	___lwmod@divisor,f
  5182  160C  3EFF               	addlw	-1
  5183  160D  1D03               	skipz
  5184  160E  2E09               	goto	u2055
  5185  160F                     l2288:	
  5186  160F  3001               	movlw	1
  5187  1610  02F5               	subwf	___lwmod@counter,f
  5188  1611  1D03               	btfss	3,2
  5189  1612  2E14               	goto	u2061
  5190  1613  2E15               	goto	u2060
  5191  1614                     u2061:	
  5192  1614  2DF8               	goto	l2282
  5193  1615                     u2060:	
  5194  1615                     l2290:	
  5195  1615  0873               	movf	___lwmod@dividend+1,w
  5196  1616  00F1               	movwf	?___lwmod+1
  5197  1617  0872               	movf	___lwmod@dividend,w
  5198  1618  00F0               	movwf	?___lwmod
  5199  1619                     l690:	
  5200  1619  0008               	return
  5201  161A                     __end_of___lwmod:	
  5202                           
  5203                           	psect	text19
  5204  1692                     __ptext19:	
  5205 ;; *************** function ___lwdiv *****************
  5206 ;; Defined at:
  5207 ;;		line 5 in file "C:\Program Files (x86)\Microchip\xc8\v2.10\pic\sources\c90\common\lwdiv.c"
  5208 ;; Parameters:    Size  Location     Type
  5209 ;;  divisor         2    0[COMMON] unsigned int 
  5210 ;;  dividend        2    2[COMMON] unsigned int 
  5211 ;; Auto vars:     Size  Location     Type
  5212 ;;  quotient        2    5[COMMON] unsigned int 
  5213 ;;  counter         1    7[COMMON] unsigned char 
  5214 ;; Return value:  Size  Location     Type
  5215 ;;                  2    0[COMMON] unsigned int 
  5216 ;; Registers used:
  5217 ;;		wreg, status,2, status,0
  5218 ;; Tracked objects:
  5219 ;;		On entry : 0/0
  5220 ;;		On exit  : 0/0
  5221 ;;		Unchanged: 0/0
  5222 ;; Data sizes:     COMMON   BANK0   BANK1   BANK3   BANK2
  5223 ;;      Params:         4       0       0       0       0
  5224 ;;      Locals:         3       0       0       0       0
  5225 ;;      Temps:          1       0       0       0       0
  5226 ;;      Totals:         8       0       0       0       0
  5227 ;;Total ram usage:        8 bytes
  5228 ;; Hardware stack levels used:    1
  5229 ;; This function calls:
  5230 ;;		Nothing
  5231 ;; This function is called by:
  5232 ;;		_utoa
  5233 ;; This function uses a non-reentrant model
  5234 ;;
  5235                           
  5236                           
  5237                           ;psect for function ___lwdiv
  5238  1692                     ___lwdiv:	
  5239  1692                     l2246:	
  5240                           ;incstack = 0
  5241                           ; Regs used in ___lwdiv: [wreg+status,2+status,0]
  5242                           
  5243  1692  01F5               	clrf	___lwdiv@quotient
  5244  1693  01F6               	clrf	___lwdiv@quotient+1
  5245  1694                     l2248:	
  5246  1694  0870               	movf	___lwdiv@divisor,w
  5247  1695  0471               	iorwf	___lwdiv@divisor+1,w
  5248  1696  1903               	btfsc	3,2
  5249  1697  2E99               	goto	u1941
  5250  1698  2E9A               	goto	u1940
  5251  1699                     u1941:	
  5252  1699  2ED1               	goto	l2268
  5253  169A                     u1940:	
  5254  169A                     l2250:	
  5255  169A  01F7               	clrf	___lwdiv@counter
  5256  169B  0AF7               	incf	___lwdiv@counter,f
  5257  169C  2EA8               	goto	l2256
  5258  169D                     l2252:	
  5259  169D  3001               	movlw	1
  5260  169E                     u1955:	
  5261  169E  1003               	clrc
  5262  169F  0DF0               	rlf	___lwdiv@divisor,f
  5263  16A0  0DF1               	rlf	___lwdiv@divisor+1,f
  5264  16A1  3EFF               	addlw	-1
  5265  16A2  1D03               	skipz
  5266  16A3  2E9E               	goto	u1955
  5267  16A4                     l2254:	
  5268  16A4  3001               	movlw	1
  5269  16A5  00F4               	movwf	??___lwdiv
  5270  16A6  0874               	movf	??___lwdiv,w
  5271  16A7  07F7               	addwf	___lwdiv@counter,f
  5272  16A8                     l2256:	
  5273  16A8  1FF1               	btfss	___lwdiv@divisor+1,7
  5274  16A9  2EAB               	goto	u1961
  5275  16AA  2EAC               	goto	u1960
  5276  16AB                     u1961:	
  5277  16AB  2E9D               	goto	l2252
  5278  16AC                     u1960:	
  5279  16AC                     l2258:	
  5280  16AC  3001               	movlw	1
  5281  16AD                     u1975:	
  5282  16AD  1003               	clrc
  5283  16AE  0DF5               	rlf	___lwdiv@quotient,f
  5284  16AF  0DF6               	rlf	___lwdiv@quotient+1,f
  5285  16B0  3EFF               	addlw	-1
  5286  16B1  1D03               	skipz
  5287  16B2  2EAD               	goto	u1975
  5288  16B3  0871               	movf	___lwdiv@divisor+1,w
  5289  16B4  0273               	subwf	___lwdiv@dividend+1,w
  5290  16B5  1D03               	skipz
  5291  16B6  2EB9               	goto	u1985
  5292  16B7  0870               	movf	___lwdiv@divisor,w
  5293  16B8  0272               	subwf	___lwdiv@dividend,w
  5294  16B9                     u1985:	
  5295  16B9  1C03               	skipc
  5296  16BA  2EBC               	goto	u1981
  5297  16BB  2EBD               	goto	u1980
  5298  16BC                     u1981:	
  5299  16BC  2EC4               	goto	l2264
  5300  16BD                     u1980:	
  5301  16BD                     l2260:	
  5302  16BD  0870               	movf	___lwdiv@divisor,w
  5303  16BE  02F2               	subwf	___lwdiv@dividend,f
  5304  16BF  0871               	movf	___lwdiv@divisor+1,w
  5305  16C0  1C03               	skipc
  5306  16C1  03F3               	decf	___lwdiv@dividend+1,f
  5307  16C2  02F3               	subwf	___lwdiv@dividend+1,f
  5308  16C3                     l2262:	
  5309  16C3  1475               	bsf	___lwdiv@quotient,0
  5310  16C4                     l2264:	
  5311  16C4  3001               	movlw	1
  5312  16C5                     u1995:	
  5313  16C5  1003               	clrc
  5314  16C6  0CF1               	rrf	___lwdiv@divisor+1,f
  5315  16C7  0CF0               	rrf	___lwdiv@divisor,f
  5316  16C8  3EFF               	addlw	-1
  5317  16C9  1D03               	skipz
  5318  16CA  2EC5               	goto	u1995
  5319  16CB                     l2266:	
  5320  16CB  3001               	movlw	1
  5321  16CC  02F7               	subwf	___lwdiv@counter,f
  5322  16CD  1D03               	btfss	3,2
  5323  16CE  2ED0               	goto	u2001
  5324  16CF  2ED1               	goto	u2000
  5325  16D0                     u2001:	
  5326  16D0  2EAC               	goto	l2258
  5327  16D1                     u2000:	
  5328  16D1                     l2268:	
  5329  16D1  0876               	movf	___lwdiv@quotient+1,w
  5330  16D2  00F1               	movwf	?___lwdiv+1
  5331  16D3  0875               	movf	___lwdiv@quotient,w
  5332  16D4  00F0               	movwf	?___lwdiv
  5333  16D5                     l680:	
  5334  16D5  0008               	return
  5335  16D6                     __end_of___lwdiv:	
  5336                           
  5337                           	psect	text20
  5338  0A08                     __ptext20:	
  5339 ;; *************** function ___xxtofl *****************
  5340 ;; Defined at:
  5341 ;;		line 10 in file "C:\Program Files (x86)\Microchip\xc8\v2.10\pic\sources\c90\common\xxtofl.c"
  5342 ;; Parameters:    Size  Location     Type
  5343 ;;  sign            1    wreg     unsigned char 
  5344 ;;  val             4    0[COMMON] long 
  5345 ;; Auto vars:     Size  Location     Type
  5346 ;;  sign            1    8[COMMON] unsigned char 
  5347 ;;  arg             4   10[COMMON] unsigned long 
  5348 ;;  exp             1    9[COMMON] unsigned char 
  5349 ;; Return value:  Size  Location     Type
  5350 ;;                  4    0[COMMON] unsigned char 
  5351 ;; Registers used:
  5352 ;;		wreg, status,2, status,0
  5353 ;; Tracked objects:
  5354 ;;		On entry : 0/0
  5355 ;;		On exit  : 0/0
  5356 ;;		Unchanged: 0/0
  5357 ;; Data sizes:     COMMON   BANK0   BANK1   BANK3   BANK2
  5358 ;;      Params:         4       0       0       0       0
  5359 ;;      Locals:         6       0       0       0       0
  5360 ;;      Temps:          4       0       0       0       0
  5361 ;;      Totals:        14       0       0       0       0
  5362 ;;Total ram usage:       14 bytes
  5363 ;; Hardware stack levels used:    1
  5364 ;; This function calls:
  5365 ;;		Nothing
  5366 ;; This function is called by:
  5367 ;;		_lee2
  5368 ;;		_lee1
  5369 ;;		_ftoa2
  5370 ;;		_pow
  5371 ;;		_log
  5372 ;;		_exp
  5373 ;;		_floor
  5374 ;; This function uses a non-reentrant model
  5375 ;;
  5376                           
  5377                           
  5378                           ;psect for function ___xxtofl
  5379  0A08                     ___xxtofl:	
  5380                           
  5381                           ;incstack = 0
  5382                           ; Regs used in ___xxtofl: [wreg+status,2+status,0]
  5383                           ;___xxtofl@sign stored from wreg
  5384  0A08  00F8               	movwf	___xxtofl@sign
  5385  0A09                     l2910:	
  5386  0A09  0878               	movf	___xxtofl@sign,w
  5387  0A0A  1903               	btfsc	3,2
  5388  0A0B  2A0D               	goto	u3381
  5389  0A0C  2A0E               	goto	u3380
  5390  0A0D                     u3381:	
  5391  0A0D  2A22               	goto	l2916
  5392  0A0E                     u3380:	
  5393  0A0E                     l2912:	
  5394  0A0E  1FF3               	btfss	___xxtofl@val+3,7
  5395  0A0F  2A11               	goto	u3391
  5396  0A10  2A12               	goto	u3390
  5397  0A11                     u3391:	
  5398  0A11  2A22               	goto	l2916
  5399  0A12                     u3390:	
  5400  0A12                     l2914:	
  5401  0A12  0970               	comf	___xxtofl@val,w
  5402  0A13  00FA               	movwf	___xxtofl@arg
  5403  0A14  0971               	comf	___xxtofl@val+1,w
  5404  0A15  00FB               	movwf	___xxtofl@arg+1
  5405  0A16  0972               	comf	___xxtofl@val+2,w
  5406  0A17  00FC               	movwf	___xxtofl@arg+2
  5407  0A18  0973               	comf	___xxtofl@val+3,w
  5408  0A19  00FD               	movwf	___xxtofl@arg+3
  5409  0A1A  0AFA               	incf	___xxtofl@arg,f
  5410  0A1B  1903               	skipnz
  5411  0A1C  0AFB               	incf	___xxtofl@arg+1,f
  5412  0A1D  1903               	skipnz
  5413  0A1E  0AFC               	incf	___xxtofl@arg+2,f
  5414  0A1F  1903               	skipnz
  5415  0A20  0AFD               	incf	___xxtofl@arg+3,f
  5416  0A21  2A2A               	goto	l835
  5417  0A22                     l2916:	
  5418  0A22  0873               	movf	___xxtofl@val+3,w
  5419  0A23  00FD               	movwf	___xxtofl@arg+3
  5420  0A24  0872               	movf	___xxtofl@val+2,w
  5421  0A25  00FC               	movwf	___xxtofl@arg+2
  5422  0A26  0871               	movf	___xxtofl@val+1,w
  5423  0A27  00FB               	movwf	___xxtofl@arg+1
  5424  0A28  0870               	movf	___xxtofl@val,w
  5425  0A29  00FA               	movwf	___xxtofl@arg
  5426  0A2A                     l835:	
  5427  0A2A  0873               	movf	___xxtofl@val+3,w
  5428  0A2B  0472               	iorwf	___xxtofl@val+2,w
  5429  0A2C  0471               	iorwf	___xxtofl@val+1,w
  5430  0A2D  0470               	iorwf	___xxtofl@val,w
  5431  0A2E  1D03               	skipz
  5432  0A2F  2A31               	goto	u3401
  5433  0A30  2A32               	goto	u3400
  5434  0A31                     u3401:	
  5435  0A31  2A3B               	goto	l2922
  5436  0A32                     u3400:	
  5437  0A32                     l2918:	
  5438  0A32  3000               	movlw	0
  5439  0A33  00F3               	movwf	?___xxtofl+3
  5440  0A34  3000               	movlw	0
  5441  0A35  00F2               	movwf	?___xxtofl+2
  5442  0A36  3000               	movlw	0
  5443  0A37  00F1               	movwf	?___xxtofl+1
  5444  0A38  3000               	movlw	0
  5445  0A39  00F0               	movwf	?___xxtofl
  5446  0A3A  2AC1               	goto	l837
  5447  0A3B                     l2922:	
  5448  0A3B  3096               	movlw	150
  5449  0A3C  00F4               	movwf	??___xxtofl
  5450  0A3D  0874               	movf	??___xxtofl,w
  5451  0A3E  00F9               	movwf	___xxtofl@exp
  5452  0A3F  2A4D               	goto	l2926
  5453  0A40                     l2924:	
  5454  0A40  3001               	movlw	1
  5455  0A41  00F4               	movwf	??___xxtofl
  5456  0A42  0874               	movf	??___xxtofl,w
  5457  0A43  07F9               	addwf	___xxtofl@exp,f
  5458  0A44  3001               	movlw	1
  5459  0A45                     u3415:	
  5460  0A45  1003               	clrc
  5461  0A46  0CFD               	rrf	___xxtofl@arg+3,f
  5462  0A47  0CFC               	rrf	___xxtofl@arg+2,f
  5463  0A48  0CFB               	rrf	___xxtofl@arg+1,f
  5464  0A49  0CFA               	rrf	___xxtofl@arg,f
  5465  0A4A  3EFF               	addlw	-1
  5466  0A4B  1D03               	skipz
  5467  0A4C  2A45               	goto	u3415
  5468  0A4D                     l2926:	
  5469  0A4D  30FE               	movlw	254
  5470  0A4E  057D               	andwf	___xxtofl@arg+3,w
  5471  0A4F  1D03               	btfss	3,2
  5472  0A50  2A52               	goto	u3421
  5473  0A51  2A53               	goto	u3420
  5474  0A52                     u3421:	
  5475  0A52  2A40               	goto	l2924
  5476  0A53                     u3420:	
  5477  0A53  2A6F               	goto	l841
  5478  0A54                     l2928:	
  5479  0A54  3001               	movlw	1
  5480  0A55  00F4               	movwf	??___xxtofl
  5481  0A56  0874               	movf	??___xxtofl,w
  5482  0A57  07F9               	addwf	___xxtofl@exp,f
  5483  0A58                     l2930:	
  5484  0A58  3001               	movlw	1
  5485  0A59  07FA               	addwf	___xxtofl@arg,f
  5486  0A5A  3000               	movlw	0
  5487  0A5B  1803               	skipnc
  5488  0A5C  3001               	movlw	1
  5489  0A5D  07FB               	addwf	___xxtofl@arg+1,f
  5490  0A5E  3000               	movlw	0
  5491  0A5F  1803               	skipnc
  5492  0A60  3001               	movlw	1
  5493  0A61  07FC               	addwf	___xxtofl@arg+2,f
  5494  0A62  3000               	movlw	0
  5495  0A63  1803               	skipnc
  5496  0A64  3001               	movlw	1
  5497  0A65  07FD               	addwf	___xxtofl@arg+3,f
  5498  0A66                     l2932:	
  5499  0A66  3001               	movlw	1
  5500  0A67                     u3435:	
  5501  0A67  1003               	clrc
  5502  0A68  0CFD               	rrf	___xxtofl@arg+3,f
  5503  0A69  0CFC               	rrf	___xxtofl@arg+2,f
  5504  0A6A  0CFB               	rrf	___xxtofl@arg+1,f
  5505  0A6B  0CFA               	rrf	___xxtofl@arg,f
  5506  0A6C  3EFF               	addlw	-1
  5507  0A6D  1D03               	skipz
  5508  0A6E  2A67               	goto	u3435
  5509  0A6F                     l841:	
  5510  0A6F  30FF               	movlw	255
  5511  0A70  057D               	andwf	___xxtofl@arg+3,w
  5512  0A71  1D03               	btfss	3,2
  5513  0A72  2A74               	goto	u3441
  5514  0A73  2A75               	goto	u3440
  5515  0A74                     u3441:	
  5516  0A74  2A54               	goto	l2928
  5517  0A75                     u3440:	
  5518  0A75  2A81               	goto	l2936
  5519  0A76                     l2934:	
  5520  0A76  3001               	movlw	1
  5521  0A77  02F9               	subwf	___xxtofl@exp,f
  5522  0A78  3001               	movlw	1
  5523  0A79  00F4               	movwf	??___xxtofl
  5524  0A7A                     u3455:	
  5525  0A7A  1003               	clrc
  5526  0A7B  0DFA               	rlf	___xxtofl@arg,f
  5527  0A7C  0DFB               	rlf	___xxtofl@arg+1,f
  5528  0A7D  0DFC               	rlf	___xxtofl@arg+2,f
  5529  0A7E  0DFD               	rlf	___xxtofl@arg+3,f
  5530  0A7F  0BF4               	decfsz	??___xxtofl,f
  5531  0A80  2A7A               	goto	u3455
  5532  0A81                     l2936:	
  5533  0A81  1BFC               	btfsc	___xxtofl@arg+2,7
  5534  0A82  2A84               	goto	u3461
  5535  0A83  2A85               	goto	u3460
  5536  0A84                     u3461:	
  5537  0A84  2A8B               	goto	l848
  5538  0A85                     u3460:	
  5539  0A85                     l2938:	
  5540  0A85  3002               	movlw	2
  5541  0A86  0279               	subwf	___xxtofl@exp,w
  5542  0A87  1803               	skipnc
  5543  0A88  2A8A               	goto	u3471
  5544  0A89  2A8B               	goto	u3470
  5545  0A8A                     u3471:	
  5546  0A8A  2A76               	goto	l2934
  5547  0A8B                     u3470:	
  5548  0A8B                     l848:	
  5549  0A8B  1879               	btfsc	___xxtofl@exp,0
  5550  0A8C  2A8E               	goto	u3481
  5551  0A8D  2A8F               	goto	u3480
  5552  0A8E                     u3481:	
  5553  0A8E  2A97               	goto	l849
  5554  0A8F                     u3480:	
  5555  0A8F                     l2940:	
  5556  0A8F  30FF               	movlw	255
  5557  0A90  05FA               	andwf	___xxtofl@arg,f
  5558  0A91  30FF               	movlw	255
  5559  0A92  05FB               	andwf	___xxtofl@arg+1,f
  5560  0A93  307F               	movlw	127
  5561  0A94  05FC               	andwf	___xxtofl@arg+2,f
  5562  0A95  30FF               	movlw	255
  5563  0A96  05FD               	andwf	___xxtofl@arg+3,f
  5564  0A97                     l849:	
  5565  0A97  1003               	clrc
  5566  0A98  0CF9               	rrf	___xxtofl@exp,f
  5567  0A99                     l2942:	
  5568  0A99  0879               	movf	___xxtofl@exp,w
  5569  0A9A  00F4               	movwf	??___xxtofl
  5570  0A9B  01F5               	clrf	??___xxtofl+1
  5571  0A9C  01F6               	clrf	??___xxtofl+2
  5572  0A9D  01F7               	clrf	??___xxtofl+3
  5573  0A9E  3018               	movlw	24
  5574  0A9F                     u3495:	
  5575  0A9F  1003               	clrc
  5576  0AA0  0DF4               	rlf	??___xxtofl,f
  5577  0AA1  0DF5               	rlf	??___xxtofl+1,f
  5578  0AA2  0DF6               	rlf	??___xxtofl+2,f
  5579  0AA3  0DF7               	rlf	??___xxtofl+3,f
  5580  0AA4                     u3490:	
  5581  0AA4  3EFF               	addlw	-1
  5582  0AA5  1D03               	skipz
  5583  0AA6  2A9F               	goto	u3495
  5584  0AA7  0874               	movf	??___xxtofl,w
  5585  0AA8  04FA               	iorwf	___xxtofl@arg,f
  5586  0AA9  0875               	movf	??___xxtofl+1,w
  5587  0AAA  04FB               	iorwf	___xxtofl@arg+1,f
  5588  0AAB  0876               	movf	??___xxtofl+2,w
  5589  0AAC  04FC               	iorwf	___xxtofl@arg+2,f
  5590  0AAD  0877               	movf	??___xxtofl+3,w
  5591  0AAE  04FD               	iorwf	___xxtofl@arg+3,f
  5592  0AAF                     l2944:	
  5593  0AAF  0878               	movf	___xxtofl@sign,w
  5594  0AB0  1903               	btfsc	3,2
  5595  0AB1  2AB3               	goto	u3501
  5596  0AB2  2AB4               	goto	u3500
  5597  0AB3                     u3501:	
  5598  0AB3  2AB9               	goto	l2950
  5599  0AB4                     u3500:	
  5600  0AB4                     l2946:	
  5601  0AB4  1FF3               	btfss	___xxtofl@val+3,7
  5602  0AB5  2AB7               	goto	u3511
  5603  0AB6  2AB8               	goto	u3510
  5604  0AB7                     u3511:	
  5605  0AB7  2AB9               	goto	l2950
  5606  0AB8                     u3510:	
  5607  0AB8                     l2948:	
  5608  0AB8  17FD               	bsf	___xxtofl@arg+3,7
  5609  0AB9                     l2950:	
  5610  0AB9  087D               	movf	___xxtofl@arg+3,w
  5611  0ABA  00F3               	movwf	?___xxtofl+3
  5612  0ABB  087C               	movf	___xxtofl@arg+2,w
  5613  0ABC  00F2               	movwf	?___xxtofl+2
  5614  0ABD  087B               	movf	___xxtofl@arg+1,w
  5615  0ABE  00F1               	movwf	?___xxtofl+1
  5616  0ABF  087A               	movf	___xxtofl@arg,w
  5617  0AC0  00F0               	movwf	?___xxtofl
  5618  0AC1                     l837:	
  5619  0AC1  0008               	return
  5620  0AC2                     __end_of___xxtofl:	
  5621                           
  5622                           	psect	text21
  5623  08F2                     __ptext21:	
  5624 ;; *************** function ___fltol *****************
  5625 ;; Defined at:
  5626 ;;		line 43 in file "C:\Program Files (x86)\Microchip\xc8\v2.10\pic\sources\c90\common\fltol.c"
  5627 ;; Parameters:    Size  Location     Type
  5628 ;;  f1              4    0[COMMON] unsigned char 
  5629 ;; Auto vars:     Size  Location     Type
  5630 ;;  exp1            1   10[COMMON] unsigned char 
  5631 ;;  sign1           1    9[COMMON] unsigned char 
  5632 ;; Return value:  Size  Location     Type
  5633 ;;                  4    0[COMMON] long 
  5634 ;; Registers used:
  5635 ;;		wreg, status,2, status,0
  5636 ;; Tracked objects:
  5637 ;;		On entry : 0/0
  5638 ;;		On exit  : 0/0
  5639 ;;		Unchanged: 0/0
  5640 ;; Data sizes:     COMMON   BANK0   BANK1   BANK3   BANK2
  5641 ;;      Params:         4       0       0       0       0
  5642 ;;      Locals:         2       0       0       0       0
  5643 ;;      Temps:          5       0       0       0       0
  5644 ;;      Totals:        11       0       0       0       0
  5645 ;;Total ram usage:       11 bytes
  5646 ;; Hardware stack levels used:    1
  5647 ;; This function calls:
  5648 ;;		Nothing
  5649 ;; This function is called by:
  5650 ;;		_lee2
  5651 ;;		_ftoa2
  5652 ;;		_pow
  5653 ;;		_exp
  5654 ;;		_floor
  5655 ;; This function uses a non-reentrant model
  5656 ;;
  5657                           
  5658                           
  5659                           ;psect for function ___fltol
  5660  08F2                     ___fltol:	
  5661  08F2                     l2592:	
  5662                           ;incstack = 0
  5663                           ; Regs used in ___fltol: [wreg+status,2+status,0]
  5664                           
  5665  08F2  1003               	clrc
  5666  08F3  0D72               	rlf	___fltol@f1+2,w
  5667  08F4  0D73               	rlf	___fltol@f1+3,w
  5668  08F5  00F4               	movwf	??___fltol
  5669  08F6  0874               	movf	??___fltol,w
  5670  08F7  00FA               	movwf	___fltol@exp1
  5671  08F8  087A               	movf	___fltol@exp1,w
  5672  08F9  1D03               	btfss	3,2
  5673  08FA  28FC               	goto	u2621
  5674  08FB  28FD               	goto	u2620
  5675  08FC                     u2621:	
  5676  08FC  2906               	goto	l2598
  5677  08FD                     u2620:	
  5678  08FD                     l2594:	
  5679  08FD  3000               	movlw	0
  5680  08FE  00F3               	movwf	?___fltol+3
  5681  08FF  3000               	movlw	0
  5682  0900  00F2               	movwf	?___fltol+2
  5683  0901  3000               	movlw	0
  5684  0902  00F1               	movwf	?___fltol+1
  5685  0903  3000               	movlw	0
  5686  0904  00F0               	movwf	?___fltol
  5687  0905  296B               	goto	l594
  5688  0906                     l2598:	
  5689  0906  0870               	movf	___fltol@f1,w
  5690  0907  00F4               	movwf	??___fltol
  5691  0908  0871               	movf	___fltol@f1+1,w
  5692  0909  00F5               	movwf	??___fltol+1
  5693  090A  0872               	movf	___fltol@f1+2,w
  5694  090B  00F6               	movwf	??___fltol+2
  5695  090C  0873               	movf	___fltol@f1+3,w
  5696  090D  00F7               	movwf	??___fltol+3
  5697  090E  301F               	movlw	31
  5698  090F                     u2635:	
  5699  090F  1003               	clrc
  5700  0910  0CF7               	rrf	??___fltol+3,f
  5701  0911  0CF6               	rrf	??___fltol+2,f
  5702  0912  0CF5               	rrf	??___fltol+1,f
  5703  0913  0CF4               	rrf	??___fltol,f
  5704  0914                     u2630:	
  5705  0914  3EFF               	addlw	-1
  5706  0915  1D03               	skipz
  5707  0916  290F               	goto	u2635
  5708  0917  0874               	movf	??___fltol,w
  5709  0918  00F8               	movwf	??___fltol+4
  5710  0919  0878               	movf	??___fltol+4,w
  5711  091A  00F9               	movwf	___fltol@sign1
  5712  091B                     l2600:	
  5713  091B  17F2               	bsf	___fltol@f1+2,7
  5714  091C                     l2602:	
  5715  091C  30FF               	movlw	255
  5716  091D  05F0               	andwf	___fltol@f1,f
  5717  091E  30FF               	movlw	255
  5718  091F  05F1               	andwf	___fltol@f1+1,f
  5719  0920  30FF               	movlw	255
  5720  0921  05F2               	andwf	___fltol@f1+2,f
  5721  0922  3000               	movlw	0
  5722  0923  05F3               	andwf	___fltol@f1+3,f
  5723  0924                     l2604:	
  5724  0924  3096               	movlw	150
  5725  0925  02FA               	subwf	___fltol@exp1,f
  5726  0926                     l2606:	
  5727  0926  1FFA               	btfss	___fltol@exp1,7
  5728  0927  2929               	goto	u2641
  5729  0928  292A               	goto	u2640
  5730  0929                     u2641:	
  5731  0929  2944               	goto	l2616
  5732  092A                     u2640:	
  5733  092A                     l2608:	
  5734  092A  087A               	movf	___fltol@exp1,w
  5735  092B  3A80               	xorlw	128
  5736  092C  3E97               	addlw	151
  5737  092D  1803               	skipnc
  5738  092E  2930               	goto	u2651
  5739  092F  2931               	goto	u2650
  5740  0930                     u2651:	
  5741  0930  2932               	goto	l2614
  5742  0931                     u2650:	
  5743  0931  28FD               	goto	l2594
  5744  0932                     l2614:	
  5745  0932  3001               	movlw	1
  5746  0933                     u2665:	
  5747  0933  1003               	clrc
  5748  0934  0CF3               	rrf	___fltol@f1+3,f
  5749  0935  0CF2               	rrf	___fltol@f1+2,f
  5750  0936  0CF1               	rrf	___fltol@f1+1,f
  5751  0937  0CF0               	rrf	___fltol@f1,f
  5752  0938  3EFF               	addlw	-1
  5753  0939  1D03               	skipz
  5754  093A  2933               	goto	u2665
  5755  093B  3001               	movlw	1
  5756  093C  00F4               	movwf	??___fltol
  5757  093D  0874               	movf	??___fltol,w
  5758  093E  07FA               	addwf	___fltol@exp1,f
  5759  093F  1D03               	btfss	3,2
  5760  0940  2942               	goto	u2671
  5761  0941  2943               	goto	u2670
  5762  0942                     u2671:	
  5763  0942  2932               	goto	l2614
  5764  0943                     u2670:	
  5765  0943  295B               	goto	l2624
  5766  0944                     l2616:	
  5767  0944  3020               	movlw	32
  5768  0945  027A               	subwf	___fltol@exp1,w
  5769  0946  1C03               	skipc
  5770  0947  2949               	goto	u2681
  5771  0948  294A               	goto	u2680
  5772  0949                     u2681:	
  5773  0949  2956               	goto	l601
  5774  094A                     u2680:	
  5775  094A  28FD               	goto	l2594
  5776  094B                     l2622:	
  5777  094B  3001               	movlw	1
  5778  094C  00F4               	movwf	??___fltol
  5779  094D                     u2695:	
  5780  094D  1003               	clrc
  5781  094E  0DF0               	rlf	___fltol@f1,f
  5782  094F  0DF1               	rlf	___fltol@f1+1,f
  5783  0950  0DF2               	rlf	___fltol@f1+2,f
  5784  0951  0DF3               	rlf	___fltol@f1+3,f
  5785  0952  0BF4               	decfsz	??___fltol,f
  5786  0953  294D               	goto	u2695
  5787  0954  3001               	movlw	1
  5788  0955  02FA               	subwf	___fltol@exp1,f
  5789  0956                     l601:	
  5790  0956  087A               	movf	___fltol@exp1,w
  5791  0957  1D03               	btfss	3,2
  5792  0958  295A               	goto	u2701
  5793  0959  295B               	goto	u2700
  5794  095A                     u2701:	
  5795  095A  294B               	goto	l2622
  5796  095B                     u2700:	
  5797  095B                     l2624:	
  5798  095B  0879               	movf	___fltol@sign1,w
  5799  095C  1903               	btfsc	3,2
  5800  095D  295F               	goto	u2711
  5801  095E  2960               	goto	u2710
  5802  095F                     u2711:	
  5803  095F  296B               	goto	l604
  5804  0960                     u2710:	
  5805  0960                     l2626:	
  5806  0960  09F0               	comf	___fltol@f1,f
  5807  0961  09F1               	comf	___fltol@f1+1,f
  5808  0962  09F2               	comf	___fltol@f1+2,f
  5809  0963  09F3               	comf	___fltol@f1+3,f
  5810  0964  0AF0               	incf	___fltol@f1,f
  5811  0965  1903               	skipnz
  5812  0966  0AF1               	incf	___fltol@f1+1,f
  5813  0967  1903               	skipnz
  5814  0968  0AF2               	incf	___fltol@f1+2,f
  5815  0969  1903               	skipnz
  5816  096A  0AF3               	incf	___fltol@f1+3,f
  5817  096B                     l604:	
  5818  096B                     l594:	
  5819  096B  0008               	return
  5820  096C                     __end_of___fltol:	
  5821                           
  5822                           	psect	text22
  5823  0C9F                     __ptext22:	
  5824 ;; *************** function ___flmul *****************
  5825 ;; Defined at:
  5826 ;;		line 8 in file "C:\Program Files (x86)\Microchip\xc8\v2.10\pic\sources\c90\common\sprcmul.c"
  5827 ;; Parameters:    Size  Location     Type
  5828 ;;  b               4    0[BANK0 ] long 
  5829 ;;  a               4    4[BANK0 ] long 
  5830 ;; Auto vars:     Size  Location     Type
  5831 ;;  prod            4   20[BANK0 ] struct .
  5832 ;;  grs             4   14[BANK0 ] unsigned long 
  5833 ;;  temp            2   24[BANK0 ] struct .
  5834 ;;  bexp            1   19[BANK0 ] unsigned char 
  5835 ;;  aexp            1   18[BANK0 ] unsigned char 
  5836 ;;  sign            1   13[BANK0 ] unsigned char 
  5837 ;; Return value:  Size  Location     Type
  5838 ;;                  4    0[BANK0 ] unsigned char 
  5839 ;; Registers used:
  5840 ;;		wreg, status,2, status,0, btemp+1, pclath, cstack
  5841 ;; Tracked objects:
  5842 ;;		On entry : 0/0
  5843 ;;		On exit  : 0/0
  5844 ;;		Unchanged: 0/0
  5845 ;; Data sizes:     COMMON   BANK0   BANK1   BANK3   BANK2
  5846 ;;      Params:         0       8       0       0       0
  5847 ;;      Locals:         0      13       0       0       0
  5848 ;;      Temps:          0       5       0       0       0
  5849 ;;      Totals:         0      26       0       0       0
  5850 ;;Total ram usage:       26 bytes
  5851 ;; Hardware stack levels used:    1
  5852 ;; Hardware stack levels required when called:    1
  5853 ;; This function calls:
  5854 ;;		__Umul8_16
  5855 ;; This function is called by:
  5856 ;;		_lee2
  5857 ;;		_lee1
  5858 ;;		_ftoa2
  5859 ;;		_pow
  5860 ;;		_log
  5861 ;;		_exp
  5862 ;;		_eval_poly
  5863 ;; This function uses a non-reentrant model
  5864 ;;
  5865                           
  5866                           
  5867                           ;psect for function ___flmul
  5868  0C9F                     ___flmul:	
  5869  0C9F                     l2770:	
  5870                           ;incstack = 0
  5871                           ; Regs used in ___flmul: [wreg+status,2+status,0+btemp+1+pclath+cstack]
  5872                           
  5873  0C9F  1283               	bcf	3,5	;RP0=0, select bank0
  5874  0CA0  1303               	bcf	3,6	;RP1=0, select bank0
  5875  0CA1  0823               	movf	___flmul@b+3,w
  5876  0CA2  3980               	andlw	128
  5877  0CA3  00A8               	movwf	??___flmul
  5878  0CA4  0828               	movf	??___flmul,w
  5879  0CA5  00AD               	movwf	___flmul@sign
  5880  0CA6                     l2772:	
  5881  0CA6  0823               	movf	___flmul@b+3,w
  5882  0CA7  00A8               	movwf	??___flmul
  5883  0CA8  0728               	addwf	??___flmul,w
  5884  0CA9  00A9               	movwf	??___flmul+1
  5885  0CAA  0829               	movf	??___flmul+1,w
  5886  0CAB  00B3               	movwf	___flmul@bexp
  5887  0CAC                     l2774:	
  5888  0CAC  1FA2               	btfss	___flmul@b+2,7
  5889  0CAD  2CAF               	goto	u3011
  5890  0CAE  2CB0               	goto	u3010
  5891  0CAF                     u3011:	
  5892  0CAF  2CB1               	goto	l2778
  5893  0CB0                     u3010:	
  5894  0CB0                     l2776:	
  5895  0CB0  1433               	bsf	___flmul@bexp,0
  5896  0CB1                     l2778:	
  5897  0CB1  0833               	movf	___flmul@bexp,w
  5898  0CB2  1903               	btfsc	3,2
  5899  0CB3  2CB5               	goto	u3021
  5900  0CB4  2CB6               	goto	u3020
  5901  0CB5                     u3021:	
  5902  0CB5  2CC5               	goto	l2786
  5903  0CB6                     u3020:	
  5904  0CB6                     l2780:	
  5905  0CB6  0A33               	incf	___flmul@bexp,w
  5906  0CB7  1D03               	btfss	3,2
  5907  0CB8  2CBA               	goto	u3031
  5908  0CB9  2CBB               	goto	u3030
  5909  0CBA                     u3031:	
  5910  0CBA  2CC3               	goto	l2784
  5911  0CBB                     u3030:	
  5912  0CBB                     l2782:	
  5913  0CBB  3000               	movlw	0
  5914  0CBC  00A3               	movwf	___flmul@b+3
  5915  0CBD  3000               	movlw	0
  5916  0CBE  00A2               	movwf	___flmul@b+2
  5917  0CBF  3000               	movlw	0
  5918  0CC0  00A1               	movwf	___flmul@b+1
  5919  0CC1  3000               	movlw	0
  5920  0CC2  00A0               	movwf	___flmul@b
  5921  0CC3                     l2784:	
  5922  0CC3  17A2               	bsf	___flmul@b+2,7
  5923  0CC4  2CCD               	goto	l2788
  5924  0CC5                     l2786:	
  5925  0CC5  3000               	movlw	0
  5926  0CC6  00A3               	movwf	___flmul@b+3
  5927  0CC7  3000               	movlw	0
  5928  0CC8  00A2               	movwf	___flmul@b+2
  5929  0CC9  3000               	movlw	0
  5930  0CCA  00A1               	movwf	___flmul@b+1
  5931  0CCB  3000               	movlw	0
  5932  0CCC  00A0               	movwf	___flmul@b
  5933  0CCD                     l2788:	
  5934  0CCD  0827               	movf	___flmul@a+3,w
  5935  0CCE  3980               	andlw	128
  5936  0CCF  00A8               	movwf	??___flmul
  5937  0CD0  0828               	movf	??___flmul,w
  5938  0CD1  06AD               	xorwf	___flmul@sign,f
  5939  0CD2                     l2790:	
  5940  0CD2  0827               	movf	___flmul@a+3,w
  5941  0CD3  00A8               	movwf	??___flmul
  5942  0CD4  0728               	addwf	??___flmul,w
  5943  0CD5  00A9               	movwf	??___flmul+1
  5944  0CD6  0829               	movf	??___flmul+1,w
  5945  0CD7  00B2               	movwf	___flmul@aexp
  5946  0CD8                     l2792:	
  5947  0CD8  1FA6               	btfss	___flmul@a+2,7
  5948  0CD9  2CDB               	goto	u3041
  5949  0CDA  2CDC               	goto	u3040
  5950  0CDB                     u3041:	
  5951  0CDB  2CDD               	goto	l2796
  5952  0CDC                     u3040:	
  5953  0CDC                     l2794:	
  5954  0CDC  1432               	bsf	___flmul@aexp,0
  5955  0CDD                     l2796:	
  5956  0CDD  0832               	movf	___flmul@aexp,w
  5957  0CDE  1903               	btfsc	3,2
  5958  0CDF  2CE1               	goto	u3051
  5959  0CE0  2CE2               	goto	u3050
  5960  0CE1                     u3051:	
  5961  0CE1  2CF1               	goto	l2804
  5962  0CE2                     u3050:	
  5963  0CE2                     l2798:	
  5964  0CE2  0A32               	incf	___flmul@aexp,w
  5965  0CE3  1D03               	btfss	3,2
  5966  0CE4  2CE6               	goto	u3061
  5967  0CE5  2CE7               	goto	u3060
  5968  0CE6                     u3061:	
  5969  0CE6  2CEF               	goto	l2802
  5970  0CE7                     u3060:	
  5971  0CE7                     l2800:	
  5972  0CE7  3000               	movlw	0
  5973  0CE8  00A7               	movwf	___flmul@a+3
  5974  0CE9  3000               	movlw	0
  5975  0CEA  00A6               	movwf	___flmul@a+2
  5976  0CEB  3000               	movlw	0
  5977  0CEC  00A5               	movwf	___flmul@a+1
  5978  0CED  3000               	movlw	0
  5979  0CEE  00A4               	movwf	___flmul@a
  5980  0CEF                     l2802:	
  5981  0CEF  17A6               	bsf	___flmul@a+2,7
  5982  0CF0  2CF9               	goto	l2806
  5983  0CF1                     l2804:	
  5984  0CF1  3000               	movlw	0
  5985  0CF2  00A7               	movwf	___flmul@a+3
  5986  0CF3  3000               	movlw	0
  5987  0CF4  00A6               	movwf	___flmul@a+2
  5988  0CF5  3000               	movlw	0
  5989  0CF6  00A5               	movwf	___flmul@a+1
  5990  0CF7  3000               	movlw	0
  5991  0CF8  00A4               	movwf	___flmul@a
  5992  0CF9                     l2806:	
  5993  0CF9  0832               	movf	___flmul@aexp,w
  5994  0CFA  1903               	btfsc	3,2
  5995  0CFB  2CFD               	goto	u3071
  5996  0CFC  2CFE               	goto	u3070
  5997  0CFD                     u3071:	
  5998  0CFD  2D03               	goto	l2810
  5999  0CFE                     u3070:	
  6000  0CFE                     l2808:	
  6001  0CFE  0833               	movf	___flmul@bexp,w
  6002  0CFF  1D03               	btfss	3,2
  6003  0D00  2D02               	goto	u3081
  6004  0D01  2D03               	goto	u3080
  6005  0D02                     u3081:	
  6006  0D02  2D0C               	goto	l2814
  6007  0D03                     u3080:	
  6008  0D03                     l2810:	
  6009  0D03  3000               	movlw	0
  6010  0D04  00A3               	movwf	?___flmul+3
  6011  0D05  3000               	movlw	0
  6012  0D06  00A2               	movwf	?___flmul+2
  6013  0D07  3000               	movlw	0
  6014  0D08  00A1               	movwf	?___flmul+1
  6015  0D09  3000               	movlw	0
  6016  0D0A  00A0               	movwf	?___flmul
  6017  0D0B  2FFF               	goto	l797
  6018  0D0C                     l2814:	
  6019  0D0C  0820               	movf	___flmul@b,w
  6020  0D0D  00A8               	movwf	??___flmul
  6021  0D0E  0828               	movf	??___flmul,w
  6022  0D0F  00F0               	movwf	__Umul8_16@multiplicand
  6023  0D10  0826               	movf	___flmul@a+2,w
  6024  0D11  160A  118A  248F  120A  158A  	fcall	__Umul8_16
  6025  0D16  0871               	movf	?__Umul8_16+1,w
  6026  0D17  1283               	bcf	3,5	;RP0=0, select bank0
  6027  0D18  1303               	bcf	3,6	;RP1=0, select bank0
  6028  0D19  00B9               	movwf	___flmul@temp+1
  6029  0D1A  0870               	movf	?__Umul8_16,w
  6030  0D1B  00B8               	movwf	___flmul@temp
  6031  0D1C                     l2816:	
  6032  0D1C  0838               	movf	___flmul@temp,w
  6033  0D1D  00A8               	movwf	??___flmul
  6034  0D1E  01A9               	clrf	??___flmul+1
  6035  0D1F  01AA               	clrf	??___flmul+2
  6036  0D20  01AB               	clrf	??___flmul+3
  6037  0D21  082B               	movf	??___flmul+3,w
  6038  0D22  00B1               	movwf	___flmul@grs+3
  6039  0D23  082A               	movf	??___flmul+2,w
  6040  0D24  00B0               	movwf	___flmul@grs+2
  6041  0D25  0829               	movf	??___flmul+1,w
  6042  0D26  00AF               	movwf	___flmul@grs+1
  6043  0D27  0828               	movf	??___flmul,w
  6044  0D28  00AE               	movwf	___flmul@grs
  6045  0D29                     l2818:	
  6046  0D29  0839               	movf	___flmul@temp+1,w
  6047  0D2A  00A8               	movwf	??___flmul
  6048  0D2B  01A9               	clrf	??___flmul+1
  6049  0D2C  01AA               	clrf	??___flmul+2
  6050  0D2D  01AB               	clrf	??___flmul+3
  6051  0D2E  082B               	movf	??___flmul+3,w
  6052  0D2F  00B7               	movwf	___flmul@prod+3
  6053  0D30  082A               	movf	??___flmul+2,w
  6054  0D31  00B6               	movwf	___flmul@prod+2
  6055  0D32  0829               	movf	??___flmul+1,w
  6056  0D33  00B5               	movwf	___flmul@prod+1
  6057  0D34  0828               	movf	??___flmul,w
  6058  0D35  00B4               	movwf	___flmul@prod
  6059  0D36  0821               	movf	___flmul@b+1,w
  6060  0D37  00A8               	movwf	??___flmul
  6061  0D38  0828               	movf	??___flmul,w
  6062  0D39  00F0               	movwf	__Umul8_16@multiplicand
  6063  0D3A  0825               	movf	___flmul@a+1,w
  6064  0D3B  160A  118A  248F  120A  158A  	fcall	__Umul8_16
  6065  0D40  0871               	movf	?__Umul8_16+1,w
  6066  0D41  1283               	bcf	3,5	;RP0=0, select bank0
  6067  0D42  1303               	bcf	3,6	;RP1=0, select bank0
  6068  0D43  00B9               	movwf	___flmul@temp+1
  6069  0D44  0870               	movf	?__Umul8_16,w
  6070  0D45  00B8               	movwf	___flmul@temp
  6071  0D46                     l2820:	
  6072  0D46  0838               	movf	___flmul@temp,w
  6073  0D47  00A8               	movwf	??___flmul
  6074  0D48  01A9               	clrf	??___flmul+1
  6075  0D49  01AA               	clrf	??___flmul+2
  6076  0D4A  01AB               	clrf	??___flmul+3
  6077  0D4B  0828               	movf	??___flmul,w
  6078  0D4C  07AE               	addwf	___flmul@grs,f
  6079  0D4D  0829               	movf	??___flmul+1,w
  6080  0D4E  1103               	clrz
  6081  0D4F  1803               	skipnc
  6082  0D50  3E01               	addlw	1
  6083  0D51  1903               	skipnz
  6084  0D52  2D54               	goto	u3091
  6085  0D53  07AF               	addwf	___flmul@grs+1,f
  6086  0D54                     u3091:	
  6087  0D54  082A               	movf	??___flmul+2,w
  6088  0D55  1103               	clrz
  6089  0D56  1803               	skipnc
  6090  0D57  3E01               	addlw	1
  6091  0D58  1903               	skipnz
  6092  0D59  2D5B               	goto	u3092
  6093  0D5A  07B0               	addwf	___flmul@grs+2,f
  6094  0D5B                     u3092:	
  6095  0D5B  082B               	movf	??___flmul+3,w
  6096  0D5C  1103               	clrz
  6097  0D5D  1803               	skipnc
  6098  0D5E  3E01               	addlw	1
  6099  0D5F  1903               	skipnz
  6100  0D60  2D62               	goto	u3093
  6101  0D61  07B1               	addwf	___flmul@grs+3,f
  6102  0D62                     u3093:	
  6103  0D62                     l2822:	
  6104  0D62  0839               	movf	___flmul@temp+1,w
  6105  0D63  00A8               	movwf	??___flmul
  6106  0D64  01A9               	clrf	??___flmul+1
  6107  0D65  01AA               	clrf	??___flmul+2
  6108  0D66  01AB               	clrf	??___flmul+3
  6109  0D67  0828               	movf	??___flmul,w
  6110  0D68  07B4               	addwf	___flmul@prod,f
  6111  0D69  0829               	movf	??___flmul+1,w
  6112  0D6A  1103               	clrz
  6113  0D6B  1803               	skipnc
  6114  0D6C  3E01               	addlw	1
  6115  0D6D  1903               	skipnz
  6116  0D6E  2D70               	goto	u3101
  6117  0D6F  07B5               	addwf	___flmul@prod+1,f
  6118  0D70                     u3101:	
  6119  0D70  082A               	movf	??___flmul+2,w
  6120  0D71  1103               	clrz
  6121  0D72  1803               	skipnc
  6122  0D73  3E01               	addlw	1
  6123  0D74  1903               	skipnz
  6124  0D75  2D77               	goto	u3102
  6125  0D76  07B6               	addwf	___flmul@prod+2,f
  6126  0D77                     u3102:	
  6127  0D77  082B               	movf	??___flmul+3,w
  6128  0D78  1103               	clrz
  6129  0D79  1803               	skipnc
  6130  0D7A  3E01               	addlw	1
  6131  0D7B  1903               	skipnz
  6132  0D7C  2D7E               	goto	u3103
  6133  0D7D  07B7               	addwf	___flmul@prod+3,f
  6134  0D7E                     u3103:	
  6135  0D7E  0822               	movf	___flmul@b+2,w
  6136  0D7F  00A8               	movwf	??___flmul
  6137  0D80  0828               	movf	??___flmul,w
  6138  0D81  00F0               	movwf	__Umul8_16@multiplicand
  6139  0D82  0824               	movf	___flmul@a,w
  6140  0D83  160A  118A  248F  120A  158A  	fcall	__Umul8_16
  6141  0D88  0871               	movf	?__Umul8_16+1,w
  6142  0D89  1283               	bcf	3,5	;RP0=0, select bank0
  6143  0D8A  1303               	bcf	3,6	;RP1=0, select bank0
  6144  0D8B  00B9               	movwf	___flmul@temp+1
  6145  0D8C  0870               	movf	?__Umul8_16,w
  6146  0D8D  00B8               	movwf	___flmul@temp
  6147  0D8E                     l2824:	
  6148  0D8E  0838               	movf	___flmul@temp,w
  6149  0D8F  00A8               	movwf	??___flmul
  6150  0D90  01A9               	clrf	??___flmul+1
  6151  0D91  01AA               	clrf	??___flmul+2
  6152  0D92  01AB               	clrf	??___flmul+3
  6153  0D93  0828               	movf	??___flmul,w
  6154  0D94  07AE               	addwf	___flmul@grs,f
  6155  0D95  0829               	movf	??___flmul+1,w
  6156  0D96  1103               	clrz
  6157  0D97  1803               	skipnc
  6158  0D98  3E01               	addlw	1
  6159  0D99  1903               	skipnz
  6160  0D9A  2D9C               	goto	u3111
  6161  0D9B  07AF               	addwf	___flmul@grs+1,f
  6162  0D9C                     u3111:	
  6163  0D9C  082A               	movf	??___flmul+2,w
  6164  0D9D  1103               	clrz
  6165  0D9E  1803               	skipnc
  6166  0D9F  3E01               	addlw	1
  6167  0DA0  1903               	skipnz
  6168  0DA1  2DA3               	goto	u3112
  6169  0DA2  07B0               	addwf	___flmul@grs+2,f
  6170  0DA3                     u3112:	
  6171  0DA3  082B               	movf	??___flmul+3,w
  6172  0DA4  1103               	clrz
  6173  0DA5  1803               	skipnc
  6174  0DA6  3E01               	addlw	1
  6175  0DA7  1903               	skipnz
  6176  0DA8  2DAA               	goto	u3113
  6177  0DA9  07B1               	addwf	___flmul@grs+3,f
  6178  0DAA                     u3113:	
  6179  0DAA                     l2826:	
  6180  0DAA  0839               	movf	___flmul@temp+1,w
  6181  0DAB  00A8               	movwf	??___flmul
  6182  0DAC  01A9               	clrf	??___flmul+1
  6183  0DAD  01AA               	clrf	??___flmul+2
  6184  0DAE  01AB               	clrf	??___flmul+3
  6185  0DAF  0828               	movf	??___flmul,w
  6186  0DB0  07B4               	addwf	___flmul@prod,f
  6187  0DB1  0829               	movf	??___flmul+1,w
  6188  0DB2  1103               	clrz
  6189  0DB3  1803               	skipnc
  6190  0DB4  3E01               	addlw	1
  6191  0DB5  1903               	skipnz
  6192  0DB6  2DB8               	goto	u3121
  6193  0DB7  07B5               	addwf	___flmul@prod+1,f
  6194  0DB8                     u3121:	
  6195  0DB8  082A               	movf	??___flmul+2,w
  6196  0DB9  1103               	clrz
  6197  0DBA  1803               	skipnc
  6198  0DBB  3E01               	addlw	1
  6199  0DBC  1903               	skipnz
  6200  0DBD  2DBF               	goto	u3122
  6201  0DBE  07B6               	addwf	___flmul@prod+2,f
  6202  0DBF                     u3122:	
  6203  0DBF  082B               	movf	??___flmul+3,w
  6204  0DC0  1103               	clrz
  6205  0DC1  1803               	skipnc
  6206  0DC2  3E01               	addlw	1
  6207  0DC3  1903               	skipnz
  6208  0DC4  2DC6               	goto	u3123
  6209  0DC5  07B7               	addwf	___flmul@prod+3,f
  6210  0DC6                     u3123:	
  6211  0DC6                     l2828:	
  6212  0DC6  3008               	movlw	8
  6213  0DC7  00A8               	movwf	??___flmul
  6214  0DC8                     u3135:	
  6215  0DC8  1003               	clrc
  6216  0DC9  0DAE               	rlf	___flmul@grs,f
  6217  0DCA  0DAF               	rlf	___flmul@grs+1,f
  6218  0DCB  0DB0               	rlf	___flmul@grs+2,f
  6219  0DCC  0DB1               	rlf	___flmul@grs+3,f
  6220  0DCD  0BA8               	decfsz	??___flmul,f
  6221  0DCE  2DC8               	goto	u3135
  6222  0DCF                     l2830:	
  6223  0DCF  0821               	movf	___flmul@b+1,w
  6224  0DD0  00A8               	movwf	??___flmul
  6225  0DD1  0828               	movf	??___flmul,w
  6226  0DD2  00F0               	movwf	__Umul8_16@multiplicand
  6227  0DD3  0824               	movf	___flmul@a,w
  6228  0DD4  160A  118A  248F  120A  158A  	fcall	__Umul8_16
  6229  0DD9  0871               	movf	?__Umul8_16+1,w
  6230  0DDA  1283               	bcf	3,5	;RP0=0, select bank0
  6231  0DDB  1303               	bcf	3,6	;RP1=0, select bank0
  6232  0DDC  00B9               	movwf	___flmul@temp+1
  6233  0DDD  0870               	movf	?__Umul8_16,w
  6234  0DDE  00B8               	movwf	___flmul@temp
  6235  0DDF                     l2832:	
  6236  0DDF  0838               	movf	___flmul@temp,w
  6237  0DE0  00A8               	movwf	??___flmul
  6238  0DE1  0839               	movf	___flmul@temp+1,w
  6239  0DE2  00A9               	movwf	??___flmul+1
  6240  0DE3  01AA               	clrf	??___flmul+2
  6241  0DE4  01AB               	clrf	??___flmul+3
  6242  0DE5  0828               	movf	??___flmul,w
  6243  0DE6  07AE               	addwf	___flmul@grs,f
  6244  0DE7  0829               	movf	??___flmul+1,w
  6245  0DE8  1103               	clrz
  6246  0DE9  1803               	skipnc
  6247  0DEA  3E01               	addlw	1
  6248  0DEB  1903               	skipnz
  6249  0DEC  2DEE               	goto	u3141
  6250  0DED  07AF               	addwf	___flmul@grs+1,f
  6251  0DEE                     u3141:	
  6252  0DEE  082A               	movf	??___flmul+2,w
  6253  0DEF  1103               	clrz
  6254  0DF0  1803               	skipnc
  6255  0DF1  3E01               	addlw	1
  6256  0DF2  1903               	skipnz
  6257  0DF3  2DF5               	goto	u3142
  6258  0DF4  07B0               	addwf	___flmul@grs+2,f
  6259  0DF5                     u3142:	
  6260  0DF5  082B               	movf	??___flmul+3,w
  6261  0DF6  1103               	clrz
  6262  0DF7  1803               	skipnc
  6263  0DF8  3E01               	addlw	1
  6264  0DF9  1903               	skipnz
  6265  0DFA  2DFC               	goto	u3143
  6266  0DFB  07B1               	addwf	___flmul@grs+3,f
  6267  0DFC                     u3143:	
  6268  0DFC                     l2834:	
  6269  0DFC  0820               	movf	___flmul@b,w
  6270  0DFD  00A8               	movwf	??___flmul
  6271  0DFE  0828               	movf	??___flmul,w
  6272  0DFF  00F0               	movwf	__Umul8_16@multiplicand
  6273  0E00  0825               	movf	___flmul@a+1,w
  6274  0E01  160A  118A  248F  120A  158A  	fcall	__Umul8_16
  6275  0E06  0871               	movf	?__Umul8_16+1,w
  6276  0E07  1283               	bcf	3,5	;RP0=0, select bank0
  6277  0E08  1303               	bcf	3,6	;RP1=0, select bank0
  6278  0E09  00B9               	movwf	___flmul@temp+1
  6279  0E0A  0870               	movf	?__Umul8_16,w
  6280  0E0B  00B8               	movwf	___flmul@temp
  6281  0E0C                     l2836:	
  6282  0E0C  0838               	movf	___flmul@temp,w
  6283  0E0D  00A8               	movwf	??___flmul
  6284  0E0E  0839               	movf	___flmul@temp+1,w
  6285  0E0F  00A9               	movwf	??___flmul+1
  6286  0E10  01AA               	clrf	??___flmul+2
  6287  0E11  01AB               	clrf	??___flmul+3
  6288  0E12  0828               	movf	??___flmul,w
  6289  0E13  07AE               	addwf	___flmul@grs,f
  6290  0E14  0829               	movf	??___flmul+1,w
  6291  0E15  1103               	clrz
  6292  0E16  1803               	skipnc
  6293  0E17  3E01               	addlw	1
  6294  0E18  1903               	skipnz
  6295  0E19  2E1B               	goto	u3151
  6296  0E1A  07AF               	addwf	___flmul@grs+1,f
  6297  0E1B                     u3151:	
  6298  0E1B  082A               	movf	??___flmul+2,w
  6299  0E1C  1103               	clrz
  6300  0E1D  1803               	skipnc
  6301  0E1E  3E01               	addlw	1
  6302  0E1F  1903               	skipnz
  6303  0E20  2E22               	goto	u3152
  6304  0E21  07B0               	addwf	___flmul@grs+2,f
  6305  0E22                     u3152:	
  6306  0E22  082B               	movf	??___flmul+3,w
  6307  0E23  1103               	clrz
  6308  0E24  1803               	skipnc
  6309  0E25  3E01               	addlw	1
  6310  0E26  1903               	skipnz
  6311  0E27  2E29               	goto	u3153
  6312  0E28  07B1               	addwf	___flmul@grs+3,f
  6313  0E29                     u3153:	
  6314  0E29                     l2838:	
  6315  0E29  3008               	movlw	8
  6316  0E2A  00A8               	movwf	??___flmul
  6317  0E2B                     u3165:	
  6318  0E2B  1003               	clrc
  6319  0E2C  0DAE               	rlf	___flmul@grs,f
  6320  0E2D  0DAF               	rlf	___flmul@grs+1,f
  6321  0E2E  0DB0               	rlf	___flmul@grs+2,f
  6322  0E2F  0DB1               	rlf	___flmul@grs+3,f
  6323  0E30  0BA8               	decfsz	??___flmul,f
  6324  0E31  2E2B               	goto	u3165
  6325  0E32  0820               	movf	___flmul@b,w
  6326  0E33  00A8               	movwf	??___flmul
  6327  0E34  0828               	movf	??___flmul,w
  6328  0E35  00F0               	movwf	__Umul8_16@multiplicand
  6329  0E36  0824               	movf	___flmul@a,w
  6330  0E37  160A  118A  248F  120A  158A  	fcall	__Umul8_16
  6331  0E3C  0871               	movf	?__Umul8_16+1,w
  6332  0E3D  1283               	bcf	3,5	;RP0=0, select bank0
  6333  0E3E  1303               	bcf	3,6	;RP1=0, select bank0
  6334  0E3F  00B9               	movwf	___flmul@temp+1
  6335  0E40  0870               	movf	?__Umul8_16,w
  6336  0E41  00B8               	movwf	___flmul@temp
  6337  0E42                     l2840:	
  6338  0E42  0838               	movf	___flmul@temp,w
  6339  0E43  00A8               	movwf	??___flmul
  6340  0E44  0839               	movf	___flmul@temp+1,w
  6341  0E45  00A9               	movwf	??___flmul+1
  6342  0E46  01AA               	clrf	??___flmul+2
  6343  0E47  01AB               	clrf	??___flmul+3
  6344  0E48  0828               	movf	??___flmul,w
  6345  0E49  07AE               	addwf	___flmul@grs,f
  6346  0E4A  0829               	movf	??___flmul+1,w
  6347  0E4B  1103               	clrz
  6348  0E4C  1803               	skipnc
  6349  0E4D  3E01               	addlw	1
  6350  0E4E  1903               	skipnz
  6351  0E4F  2E51               	goto	u3171
  6352  0E50  07AF               	addwf	___flmul@grs+1,f
  6353  0E51                     u3171:	
  6354  0E51  082A               	movf	??___flmul+2,w
  6355  0E52  1103               	clrz
  6356  0E53  1803               	skipnc
  6357  0E54  3E01               	addlw	1
  6358  0E55  1903               	skipnz
  6359  0E56  2E58               	goto	u3172
  6360  0E57  07B0               	addwf	___flmul@grs+2,f
  6361  0E58                     u3172:	
  6362  0E58  082B               	movf	??___flmul+3,w
  6363  0E59  1103               	clrz
  6364  0E5A  1803               	skipnc
  6365  0E5B  3E01               	addlw	1
  6366  0E5C  1903               	skipnz
  6367  0E5D  2E5F               	goto	u3173
  6368  0E5E  07B1               	addwf	___flmul@grs+3,f
  6369  0E5F                     u3173:	
  6370  0E5F                     l2842:	
  6371  0E5F  0821               	movf	___flmul@b+1,w
  6372  0E60  00A8               	movwf	??___flmul
  6373  0E61  0828               	movf	??___flmul,w
  6374  0E62  00F0               	movwf	__Umul8_16@multiplicand
  6375  0E63  0826               	movf	___flmul@a+2,w
  6376  0E64  160A  118A  248F  120A  158A  	fcall	__Umul8_16
  6377  0E69  0871               	movf	?__Umul8_16+1,w
  6378  0E6A  1283               	bcf	3,5	;RP0=0, select bank0
  6379  0E6B  1303               	bcf	3,6	;RP1=0, select bank0
  6380  0E6C  00B9               	movwf	___flmul@temp+1
  6381  0E6D  0870               	movf	?__Umul8_16,w
  6382  0E6E  00B8               	movwf	___flmul@temp
  6383  0E6F  0838               	movf	___flmul@temp,w
  6384  0E70  00A8               	movwf	??___flmul
  6385  0E71  0839               	movf	___flmul@temp+1,w
  6386  0E72  00A9               	movwf	??___flmul+1
  6387  0E73  01AA               	clrf	??___flmul+2
  6388  0E74  01AB               	clrf	??___flmul+3
  6389  0E75  0828               	movf	??___flmul,w
  6390  0E76  07B4               	addwf	___flmul@prod,f
  6391  0E77  0829               	movf	??___flmul+1,w
  6392  0E78  1103               	clrz
  6393  0E79  1803               	skipnc
  6394  0E7A  3E01               	addlw	1
  6395  0E7B  1903               	skipnz
  6396  0E7C  2E7E               	goto	u3181
  6397  0E7D  07B5               	addwf	___flmul@prod+1,f
  6398  0E7E                     u3181:	
  6399  0E7E  082A               	movf	??___flmul+2,w
  6400  0E7F  1103               	clrz
  6401  0E80  1803               	skipnc
  6402  0E81  3E01               	addlw	1
  6403  0E82  1903               	skipnz
  6404  0E83  2E85               	goto	u3182
  6405  0E84  07B6               	addwf	___flmul@prod+2,f
  6406  0E85                     u3182:	
  6407  0E85  082B               	movf	??___flmul+3,w
  6408  0E86  1103               	clrz
  6409  0E87  1803               	skipnc
  6410  0E88  3E01               	addlw	1
  6411  0E89  1903               	skipnz
  6412  0E8A  2E8C               	goto	u3183
  6413  0E8B  07B7               	addwf	___flmul@prod+3,f
  6414  0E8C                     u3183:	
  6415  0E8C                     l2844:	
  6416  0E8C  0822               	movf	___flmul@b+2,w
  6417  0E8D  00A8               	movwf	??___flmul
  6418  0E8E  0828               	movf	??___flmul,w
  6419  0E8F  00F0               	movwf	__Umul8_16@multiplicand
  6420  0E90  0825               	movf	___flmul@a+1,w
  6421  0E91  160A  118A  248F  120A  158A  	fcall	__Umul8_16
  6422  0E96  0871               	movf	?__Umul8_16+1,w
  6423  0E97  1283               	bcf	3,5	;RP0=0, select bank0
  6424  0E98  1303               	bcf	3,6	;RP1=0, select bank0
  6425  0E99  00B9               	movwf	___flmul@temp+1
  6426  0E9A  0870               	movf	?__Umul8_16,w
  6427  0E9B  00B8               	movwf	___flmul@temp
  6428  0E9C                     l2846:	
  6429  0E9C  0838               	movf	___flmul@temp,w
  6430  0E9D  00A8               	movwf	??___flmul
  6431  0E9E  0839               	movf	___flmul@temp+1,w
  6432  0E9F  00A9               	movwf	??___flmul+1
  6433  0EA0  01AA               	clrf	??___flmul+2
  6434  0EA1  01AB               	clrf	??___flmul+3
  6435  0EA2  0828               	movf	??___flmul,w
  6436  0EA3  07B4               	addwf	___flmul@prod,f
  6437  0EA4  0829               	movf	??___flmul+1,w
  6438  0EA5  1103               	clrz
  6439  0EA6  1803               	skipnc
  6440  0EA7  3E01               	addlw	1
  6441  0EA8  1903               	skipnz
  6442  0EA9  2EAB               	goto	u3191
  6443  0EAA  07B5               	addwf	___flmul@prod+1,f
  6444  0EAB                     u3191:	
  6445  0EAB  082A               	movf	??___flmul+2,w
  6446  0EAC  1103               	clrz
  6447  0EAD  1803               	skipnc
  6448  0EAE  3E01               	addlw	1
  6449  0EAF  1903               	skipnz
  6450  0EB0  2EB2               	goto	u3192
  6451  0EB1  07B6               	addwf	___flmul@prod+2,f
  6452  0EB2                     u3192:	
  6453  0EB2  082B               	movf	??___flmul+3,w
  6454  0EB3  1103               	clrz
  6455  0EB4  1803               	skipnc
  6456  0EB5  3E01               	addlw	1
  6457  0EB6  1903               	skipnz
  6458  0EB7  2EB9               	goto	u3193
  6459  0EB8  07B7               	addwf	___flmul@prod+3,f
  6460  0EB9                     u3193:	
  6461  0EB9  0822               	movf	___flmul@b+2,w
  6462  0EBA  00A8               	movwf	??___flmul
  6463  0EBB  0828               	movf	??___flmul,w
  6464  0EBC  00F0               	movwf	__Umul8_16@multiplicand
  6465  0EBD  0826               	movf	___flmul@a+2,w
  6466  0EBE  160A  118A  248F  120A  158A  	fcall	__Umul8_16
  6467  0EC3  0871               	movf	?__Umul8_16+1,w
  6468  0EC4  1283               	bcf	3,5	;RP0=0, select bank0
  6469  0EC5  1303               	bcf	3,6	;RP1=0, select bank0
  6470  0EC6  00B9               	movwf	___flmul@temp+1
  6471  0EC7  0870               	movf	?__Umul8_16,w
  6472  0EC8  00B8               	movwf	___flmul@temp
  6473  0EC9                     l2848:	
  6474  0EC9  0838               	movf	___flmul@temp,w
  6475  0ECA  00A8               	movwf	??___flmul
  6476  0ECB  0839               	movf	___flmul@temp+1,w
  6477  0ECC  00A9               	movwf	??___flmul+1
  6478  0ECD  01AA               	clrf	??___flmul+2
  6479  0ECE  01AB               	clrf	??___flmul+3
  6480  0ECF  3008               	movlw	8
  6481  0ED0                     u3205:	
  6482  0ED0  1003               	clrc
  6483  0ED1  0DA8               	rlf	??___flmul,f
  6484  0ED2  0DA9               	rlf	??___flmul+1,f
  6485  0ED3  0DAA               	rlf	??___flmul+2,f
  6486  0ED4  0DAB               	rlf	??___flmul+3,f
  6487  0ED5                     u3200:	
  6488  0ED5  3EFF               	addlw	-1
  6489  0ED6  1D03               	skipz
  6490  0ED7  2ED0               	goto	u3205
  6491  0ED8  0828               	movf	??___flmul,w
  6492  0ED9  07B4               	addwf	___flmul@prod,f
  6493  0EDA  0829               	movf	??___flmul+1,w
  6494  0EDB  1103               	clrz
  6495  0EDC  1803               	skipnc
  6496  0EDD  3E01               	addlw	1
  6497  0EDE  1903               	skipnz
  6498  0EDF  2EE1               	goto	u3211
  6499  0EE0  07B5               	addwf	___flmul@prod+1,f
  6500  0EE1                     u3211:	
  6501  0EE1  082A               	movf	??___flmul+2,w
  6502  0EE2  1103               	clrz
  6503  0EE3  1803               	skipnc
  6504  0EE4  3E01               	addlw	1
  6505  0EE5  1903               	skipnz
  6506  0EE6  2EE8               	goto	u3212
  6507  0EE7  07B6               	addwf	___flmul@prod+2,f
  6508  0EE8                     u3212:	
  6509  0EE8  082B               	movf	??___flmul+3,w
  6510  0EE9  1103               	clrz
  6511  0EEA  1803               	skipnc
  6512  0EEB  3E01               	addlw	1
  6513  0EEC  1903               	skipnz
  6514  0EED  2EEF               	goto	u3213
  6515  0EEE  07B7               	addwf	___flmul@prod+3,f
  6516  0EEF                     u3213:	
  6517  0EEF                     l2850:	
  6518  0EEF  082E               	movf	___flmul@grs,w
  6519  0EF0  00A8               	movwf	??___flmul
  6520  0EF1  082F               	movf	___flmul@grs+1,w
  6521  0EF2  00A9               	movwf	??___flmul+1
  6522  0EF3  0830               	movf	___flmul@grs+2,w
  6523  0EF4  00AA               	movwf	??___flmul+2
  6524  0EF5  0831               	movf	___flmul@grs+3,w
  6525  0EF6  00AB               	movwf	??___flmul+3
  6526  0EF7  3018               	movlw	24
  6527  0EF8                     u3225:	
  6528  0EF8  1003               	clrc
  6529  0EF9  0CAB               	rrf	??___flmul+3,f
  6530  0EFA  0CAA               	rrf	??___flmul+2,f
  6531  0EFB  0CA9               	rrf	??___flmul+1,f
  6532  0EFC  0CA8               	rrf	??___flmul,f
  6533  0EFD                     u3220:	
  6534  0EFD  3EFF               	addlw	-1
  6535  0EFE  1D03               	skipz
  6536  0EFF  2EF8               	goto	u3225
  6537  0F00  0828               	movf	??___flmul,w
  6538  0F01  07B4               	addwf	___flmul@prod,f
  6539  0F02  0829               	movf	??___flmul+1,w
  6540  0F03  1103               	clrz
  6541  0F04  1803               	skipnc
  6542  0F05  3E01               	addlw	1
  6543  0F06  1903               	skipnz
  6544  0F07  2F09               	goto	u3231
  6545  0F08  07B5               	addwf	___flmul@prod+1,f
  6546  0F09                     u3231:	
  6547  0F09  082A               	movf	??___flmul+2,w
  6548  0F0A  1103               	clrz
  6549  0F0B  1803               	skipnc
  6550  0F0C  3E01               	addlw	1
  6551  0F0D  1903               	skipnz
  6552  0F0E  2F10               	goto	u3232
  6553  0F0F  07B6               	addwf	___flmul@prod+2,f
  6554  0F10                     u3232:	
  6555  0F10  082B               	movf	??___flmul+3,w
  6556  0F11  1103               	clrz
  6557  0F12  1803               	skipnc
  6558  0F13  3E01               	addlw	1
  6559  0F14  1903               	skipnz
  6560  0F15  2F17               	goto	u3233
  6561  0F16  07B7               	addwf	___flmul@prod+3,f
  6562  0F17                     u3233:	
  6563  0F17                     l2852:	
  6564  0F17  3008               	movlw	8
  6565  0F18  00A8               	movwf	??___flmul
  6566  0F19                     u3245:	
  6567  0F19  1003               	clrc
  6568  0F1A  0DAE               	rlf	___flmul@grs,f
  6569  0F1B  0DAF               	rlf	___flmul@grs+1,f
  6570  0F1C  0DB0               	rlf	___flmul@grs+2,f
  6571  0F1D  0DB1               	rlf	___flmul@grs+3,f
  6572  0F1E  0BA8               	decfsz	??___flmul,f
  6573  0F1F  2F19               	goto	u3245
  6574  0F20                     l2854:	
  6575  0F20  0833               	movf	___flmul@bexp,w
  6576  0F21  0732               	addwf	___flmul@aexp,w
  6577  0F22  00A8               	movwf	??___flmul
  6578  0F23  01A9               	clrf	??___flmul+1
  6579  0F24  0DA9               	rlf	??___flmul+1,f
  6580  0F25  0828               	movf	??___flmul,w
  6581  0F26  3E82               	addlw	130
  6582  0F27  00B8               	movwf	___flmul@temp
  6583  0F28  0829               	movf	??___flmul+1,w
  6584  0F29  1803               	skipnc
  6585  0F2A  3E01               	addlw	1
  6586  0F2B  3EFF               	addlw	255
  6587  0F2C  00B9               	movwf	___flmul@temp+1
  6588  0F2D  2F4B               	goto	l2866
  6589  0F2E                     l2856:	
  6590  0F2E  3001               	movlw	1
  6591  0F2F  00A8               	movwf	??___flmul
  6592  0F30                     u3255:	
  6593  0F30  1003               	clrc
  6594  0F31  0DB4               	rlf	___flmul@prod,f
  6595  0F32  0DB5               	rlf	___flmul@prod+1,f
  6596  0F33  0DB6               	rlf	___flmul@prod+2,f
  6597  0F34  0DB7               	rlf	___flmul@prod+3,f
  6598  0F35  0BA8               	decfsz	??___flmul,f
  6599  0F36  2F30               	goto	u3255
  6600  0F37                     l2858:	
  6601  0F37  1FB1               	btfss	___flmul@grs+3,7
  6602  0F38  2F3A               	goto	u3261
  6603  0F39  2F3B               	goto	u3260
  6604  0F3A                     u3261:	
  6605  0F3A  2F3C               	goto	l2862
  6606  0F3B                     u3260:	
  6607  0F3B                     l2860:	
  6608  0F3B  1434               	bsf	___flmul@prod,0
  6609  0F3C                     l2862:	
  6610  0F3C  3001               	movlw	1
  6611  0F3D  00A8               	movwf	??___flmul
  6612  0F3E                     u3275:	
  6613  0F3E  1003               	clrc
  6614  0F3F  0DAE               	rlf	___flmul@grs,f
  6615  0F40  0DAF               	rlf	___flmul@grs+1,f
  6616  0F41  0DB0               	rlf	___flmul@grs+2,f
  6617  0F42  0DB1               	rlf	___flmul@grs+3,f
  6618  0F43  0BA8               	decfsz	??___flmul,f
  6619  0F44  2F3E               	goto	u3275
  6620  0F45                     l2864:	
  6621  0F45  30FF               	movlw	255
  6622  0F46  07B8               	addwf	___flmul@temp,f
  6623  0F47  1803               	skipnc
  6624  0F48  0AB9               	incf	___flmul@temp+1,f
  6625  0F49  30FF               	movlw	255
  6626  0F4A  07B9               	addwf	___flmul@temp+1,f
  6627  0F4B                     l2866:	
  6628  0F4B  1FB6               	btfss	___flmul@prod+2,7
  6629  0F4C  2F4E               	goto	u3281
  6630  0F4D  2F4F               	goto	u3280
  6631  0F4E                     u3281:	
  6632  0F4E  2F2E               	goto	l2856
  6633  0F4F                     u3280:	
  6634  0F4F                     l2868:	
  6635  0F4F  01B2               	clrf	___flmul@aexp
  6636  0F50                     l2870:	
  6637  0F50  1FB1               	btfss	___flmul@grs+3,7
  6638  0F51  2F53               	goto	u3291
  6639  0F52  2F54               	goto	u3290
  6640  0F53                     u3291:	
  6641  0F53  2F70               	goto	l2878
  6642  0F54                     u3290:	
  6643  0F54                     l2872:	
  6644  0F54  30FF               	movlw	255
  6645  0F55  052E               	andwf	___flmul@grs,w
  6646  0F56  00A8               	movwf	??___flmul
  6647  0F57  30FF               	movlw	255
  6648  0F58  052F               	andwf	___flmul@grs+1,w
  6649  0F59  00A9               	movwf	??___flmul+1
  6650  0F5A  30FF               	movlw	255
  6651  0F5B  0530               	andwf	___flmul@grs+2,w
  6652  0F5C  00AA               	movwf	??___flmul+2
  6653  0F5D  307F               	movlw	127
  6654  0F5E  0531               	andwf	___flmul@grs+3,w
  6655  0F5F  00AB               	movwf	??___flmul+3
  6656  0F60  082B               	movf	??___flmul+3,w
  6657  0F61  042A               	iorwf	??___flmul+2,w
  6658  0F62  0429               	iorwf	??___flmul+1,w
  6659  0F63  0428               	iorwf	??___flmul,w
  6660  0F64  1903               	skipnz
  6661  0F65  2F67               	goto	u3301
  6662  0F66  2F68               	goto	u3300
  6663  0F67                     u3301:	
  6664  0F67  2F6B               	goto	l803
  6665  0F68                     u3300:	
  6666  0F68                     l2874:	
  6667  0F68  01B2               	clrf	___flmul@aexp
  6668  0F69  0AB2               	incf	___flmul@aexp,f
  6669  0F6A  2F70               	goto	l2878
  6670  0F6B                     l803:	
  6671  0F6B  1C34               	btfss	___flmul@prod,0
  6672  0F6C  2F6E               	goto	u3311
  6673  0F6D  2F6F               	goto	u3310
  6674  0F6E                     u3311:	
  6675  0F6E  2F70               	goto	l2878
  6676  0F6F                     u3310:	
  6677  0F6F  2F68               	goto	l2874
  6678  0F70                     l2878:	
  6679  0F70  0832               	movf	___flmul@aexp,w
  6680  0F71  1903               	btfsc	3,2
  6681  0F72  2F74               	goto	u3321
  6682  0F73  2F75               	goto	u3320
  6683  0F74                     u3321:	
  6684  0F74  2FA6               	goto	l2888
  6685  0F75                     u3320:	
  6686  0F75                     l2880:	
  6687  0F75  3001               	movlw	1
  6688  0F76  07B4               	addwf	___flmul@prod,f
  6689  0F77  3000               	movlw	0
  6690  0F78  1803               	skipnc
  6691  0F79  3001               	movlw	1
  6692  0F7A  07B5               	addwf	___flmul@prod+1,f
  6693  0F7B  3000               	movlw	0
  6694  0F7C  1803               	skipnc
  6695  0F7D  3001               	movlw	1
  6696  0F7E  07B6               	addwf	___flmul@prod+2,f
  6697  0F7F  3000               	movlw	0
  6698  0F80  1803               	skipnc
  6699  0F81  3001               	movlw	1
  6700  0F82  07B7               	addwf	___flmul@prod+3,f
  6701  0F83                     l2882:	
  6702  0F83  1C37               	btfss	___flmul@prod+3,0
  6703  0F84  2F86               	goto	u3331
  6704  0F85  2F87               	goto	u3330
  6705  0F86                     u3331:	
  6706  0F86  2FA6               	goto	l2888
  6707  0F87                     u3330:	
  6708  0F87                     l2884:	
  6709  0F87  0834               	movf	___flmul@prod,w
  6710  0F88  00A8               	movwf	??___flmul
  6711  0F89  0835               	movf	___flmul@prod+1,w
  6712  0F8A  00A9               	movwf	??___flmul+1
  6713  0F8B  0836               	movf	___flmul@prod+2,w
  6714  0F8C  00AA               	movwf	??___flmul+2
  6715  0F8D  0837               	movf	___flmul@prod+3,w
  6716  0F8E  00AB               	movwf	??___flmul+3
  6717  0F8F  3001               	movlw	1
  6718  0F90  00AC               	movwf	??___flmul+4
  6719  0F91                     u3345:	
  6720  0F91  0D2B               	rlf	??___flmul+3,w
  6721  0F92  0CAB               	rrf	??___flmul+3,f
  6722  0F93  0CAA               	rrf	??___flmul+2,f
  6723  0F94  0CA9               	rrf	??___flmul+1,f
  6724  0F95  0CA8               	rrf	??___flmul,f
  6725  0F96                     u3340:	
  6726  0F96  0BAC               	decfsz	??___flmul+4,f
  6727  0F97  2F91               	goto	u3345
  6728  0F98  082B               	movf	??___flmul+3,w
  6729  0F99  00B7               	movwf	___flmul@prod+3
  6730  0F9A  082A               	movf	??___flmul+2,w
  6731  0F9B  00B6               	movwf	___flmul@prod+2
  6732  0F9C  0829               	movf	??___flmul+1,w
  6733  0F9D  00B5               	movwf	___flmul@prod+1
  6734  0F9E  0828               	movf	??___flmul,w
  6735  0F9F  00B4               	movwf	___flmul@prod
  6736  0FA0                     l2886:	
  6737  0FA0  3001               	movlw	1
  6738  0FA1  07B8               	addwf	___flmul@temp,f
  6739  0FA2  1803               	skipnc
  6740  0FA3  0AB9               	incf	___flmul@temp+1,f
  6741  0FA4  3000               	movlw	0
  6742  0FA5  07B9               	addwf	___flmul@temp+1,f
  6743  0FA6                     l2888:	
  6744  0FA6  0839               	movf	___flmul@temp+1,w
  6745  0FA7  3A80               	xorlw	128
  6746  0FA8  00FF               	movwf	btemp+1
  6747  0FA9  3080               	movlw	128
  6748  0FAA  027F               	subwf	btemp+1,w
  6749  0FAB  1D03               	skipz
  6750  0FAC  2FAF               	goto	u3355
  6751  0FAD  30FF               	movlw	255
  6752  0FAE  0238               	subwf	___flmul@temp,w
  6753  0FAF                     u3355:	
  6754  0FAF  1C03               	skipc
  6755  0FB0  2FB2               	goto	u3351
  6756  0FB1  2FB3               	goto	u3350
  6757  0FB2                     u3351:	
  6758  0FB2  2FBE               	goto	l2892
  6759  0FB3                     u3350:	
  6760  0FB3                     l2890:	
  6761  0FB3  307F               	movlw	127
  6762  0FB4  1283               	bcf	3,5	;RP0=0, select bank0
  6763  0FB5  1303               	bcf	3,6	;RP1=0, select bank0
  6764  0FB6  00B7               	movwf	___flmul@prod+3
  6765  0FB7  3080               	movlw	128
  6766  0FB8  00B6               	movwf	___flmul@prod+2
  6767  0FB9  3000               	movlw	0
  6768  0FBA  00B5               	movwf	___flmul@prod+1
  6769  0FBB  3000               	movlw	0
  6770  0FBC  00B4               	movwf	___flmul@prod
  6771  0FBD  2FF3               	goto	l809
  6772  0FBE                     l2892:	
  6773  0FBE  1283               	bcf	3,5	;RP0=0, select bank0
  6774  0FBF  1303               	bcf	3,6	;RP1=0, select bank0
  6775  0FC0  0839               	movf	___flmul@temp+1,w
  6776  0FC1  3A80               	xorlw	128
  6777  0FC2  00FF               	movwf	btemp+1
  6778  0FC3  3080               	movlw	128
  6779  0FC4  027F               	subwf	btemp+1,w
  6780  0FC5  1D03               	skipz
  6781  0FC6  2FC9               	goto	u3365
  6782  0FC7  3001               	movlw	1
  6783  0FC8  0238               	subwf	___flmul@temp,w
  6784  0FC9                     u3365:	
  6785  0FC9  1803               	skipnc
  6786  0FCA  2FCC               	goto	u3361
  6787  0FCB  2FCD               	goto	u3360
  6788  0FCC                     u3361:	
  6789  0FCC  2FD9               	goto	l2898
  6790  0FCD                     u3360:	
  6791  0FCD                     l2894:	
  6792  0FCD  3000               	movlw	0
  6793  0FCE  1283               	bcf	3,5	;RP0=0, select bank0
  6794  0FCF  1303               	bcf	3,6	;RP1=0, select bank0
  6795  0FD0  00B7               	movwf	___flmul@prod+3
  6796  0FD1  3000               	movlw	0
  6797  0FD2  00B6               	movwf	___flmul@prod+2
  6798  0FD3  3000               	movlw	0
  6799  0FD4  00B5               	movwf	___flmul@prod+1
  6800  0FD5  3000               	movlw	0
  6801  0FD6  00B4               	movwf	___flmul@prod
  6802  0FD7                     l2896:	
  6803  0FD7  01AD               	clrf	___flmul@sign
  6804  0FD8  2FF3               	goto	l809
  6805  0FD9                     l2898:	
  6806  0FD9  1283               	bcf	3,5	;RP0=0, select bank0
  6807  0FDA  1303               	bcf	3,6	;RP1=0, select bank0
  6808  0FDB  0838               	movf	___flmul@temp,w
  6809  0FDC  00A8               	movwf	??___flmul
  6810  0FDD  0828               	movf	??___flmul,w
  6811  0FDE  00B3               	movwf	___flmul@bexp
  6812  0FDF  30FF               	movlw	255
  6813  0FE0  05B4               	andwf	___flmul@prod,f
  6814  0FE1  30FF               	movlw	255
  6815  0FE2  05B5               	andwf	___flmul@prod+1,f
  6816  0FE3  307F               	movlw	127
  6817  0FE4  05B6               	andwf	___flmul@prod+2,f
  6818  0FE5  3000               	movlw	0
  6819  0FE6  05B7               	andwf	___flmul@prod+3,f
  6820  0FE7                     l2900:	
  6821  0FE7  1C33               	btfss	___flmul@bexp,0
  6822  0FE8  2FEA               	goto	u3371
  6823  0FE9  2FEB               	goto	u3370
  6824  0FEA                     u3371:	
  6825  0FEA  2FEC               	goto	l2904
  6826  0FEB                     u3370:	
  6827  0FEB                     l2902:	
  6828  0FEB  17B6               	bsf	___flmul@prod+2,7
  6829  0FEC                     l2904:	
  6830  0FEC  0833               	movf	___flmul@bexp,w
  6831  0FED  00A8               	movwf	??___flmul
  6832  0FEE  1003               	clrc
  6833  0FEF  0C28               	rrf	??___flmul,w
  6834  0FF0  00A9               	movwf	??___flmul+1
  6835  0FF1  0829               	movf	??___flmul+1,w
  6836  0FF2  00B7               	movwf	___flmul@prod+3
  6837  0FF3                     l809:	
  6838  0FF3  082D               	movf	___flmul@sign,w
  6839  0FF4  00A8               	movwf	??___flmul
  6840  0FF5  0828               	movf	??___flmul,w
  6841  0FF6  04B7               	iorwf	___flmul@prod+3,f
  6842  0FF7                     l2906:	
  6843  0FF7  0837               	movf	___flmul@prod+3,w
  6844  0FF8  00A3               	movwf	?___flmul+3
  6845  0FF9  0836               	movf	___flmul@prod+2,w
  6846  0FFA  00A2               	movwf	?___flmul+2
  6847  0FFB  0835               	movf	___flmul@prod+1,w
  6848  0FFC  00A1               	movwf	?___flmul+1
  6849  0FFD  0834               	movf	___flmul@prod,w
  6850  0FFE  00A0               	movwf	?___flmul
  6851  0FFF                     l797:	
  6852  0FFF  0008               	return
  6853  1000                     __end_of___flmul:	
  6854                           
  6855                           	psect	text23
  6856  148F                     __ptext23:	
  6857 ;; *************** function __Umul8_16 *****************
  6858 ;; Defined at:
  6859 ;;		line 4 in file "C:\Program Files (x86)\Microchip\xc8\v2.10\pic\sources\c90\common\Umul8_16.c"
  6860 ;; Parameters:    Size  Location     Type
  6861 ;;  multiplier      1    wreg     unsigned char 
  6862 ;;  multiplicand    1    0[COMMON] unsigned char 
  6863 ;; Auto vars:     Size  Location     Type
  6864 ;;  multiplier      1    8[COMMON] unsigned char 
  6865 ;;  word_mpld       2    6[COMMON] unsigned int 
  6866 ;;  product         2    4[COMMON] unsigned int 
  6867 ;; Return value:  Size  Location     Type
  6868 ;;                  2    0[COMMON] unsigned int 
  6869 ;; Registers used:
  6870 ;;		wreg, status,2, status,0
  6871 ;; Tracked objects:
  6872 ;;		On entry : 0/0
  6873 ;;		On exit  : 0/0
  6874 ;;		Unchanged: 0/0
  6875 ;; Data sizes:     COMMON   BANK0   BANK1   BANK3   BANK2
  6876 ;;      Params:         2       0       0       0       0
  6877 ;;      Locals:         5       0       0       0       0
  6878 ;;      Temps:          2       0       0       0       0
  6879 ;;      Totals:         9       0       0       0       0
  6880 ;;Total ram usage:        9 bytes
  6881 ;; Hardware stack levels used:    1
  6882 ;; This function calls:
  6883 ;;		Nothing
  6884 ;; This function is called by:
  6885 ;;		___flmul
  6886 ;; This function uses a non-reentrant model
  6887 ;;
  6888                           
  6889                           
  6890                           ;psect for function __Umul8_16
  6891  148F                     __Umul8_16:	
  6892                           
  6893                           ;incstack = 0
  6894                           ; Regs used in __Umul8_16: [wreg+status,2+status,0]
  6895                           ;__Umul8_16@multiplier stored from wreg
  6896  148F  00F8               	movwf	__Umul8_16@multiplier
  6897  1490                     l2344:	
  6898  1490  01F4               	clrf	__Umul8_16@product
  6899  1491  01F5               	clrf	__Umul8_16@product+1
  6900  1492                     l2346:	
  6901  1492  0870               	movf	__Umul8_16@multiplicand,w
  6902  1493  00F2               	movwf	??__Umul8_16
  6903  1494  01F3               	clrf	??__Umul8_16+1
  6904  1495  0872               	movf	??__Umul8_16,w
  6905  1496  00F6               	movwf	__Umul8_16@word_mpld
  6906  1497  0873               	movf	??__Umul8_16+1,w
  6907  1498  00F7               	movwf	__Umul8_16@word_mpld+1
  6908  1499                     l2348:	
  6909  1499  1C78               	btfss	__Umul8_16@multiplier,0
  6910  149A  2C9C               	goto	u2191
  6911  149B  2C9D               	goto	u2190
  6912  149C                     u2191:	
  6913  149C  2CA3               	goto	l894
  6914  149D                     u2190:	
  6915  149D                     l2350:	
  6916  149D  0876               	movf	__Umul8_16@word_mpld,w
  6917  149E  07F4               	addwf	__Umul8_16@product,f
  6918  149F  1803               	skipnc
  6919  14A0  0AF5               	incf	__Umul8_16@product+1,f
  6920  14A1  0877               	movf	__Umul8_16@word_mpld+1,w
  6921  14A2  07F5               	addwf	__Umul8_16@product+1,f
  6922  14A3                     l894:	
  6923  14A3  3001               	movlw	1
  6924  14A4                     u2205:	
  6925  14A4  1003               	clrc
  6926  14A5  0DF6               	rlf	__Umul8_16@word_mpld,f
  6927  14A6  0DF7               	rlf	__Umul8_16@word_mpld+1,f
  6928  14A7  3EFF               	addlw	-1
  6929  14A8  1D03               	skipz
  6930  14A9  2CA4               	goto	u2205
  6931  14AA  1003               	clrc
  6932  14AB  0CF8               	rrf	__Umul8_16@multiplier,f
  6933  14AC                     l2352:	
  6934  14AC  0878               	movf	__Umul8_16@multiplier,w
  6935  14AD  1D03               	btfss	3,2
  6936  14AE  2CB0               	goto	u2211
  6937  14AF  2CB1               	goto	u2210
  6938  14B0                     u2211:	
  6939  14B0  2C99               	goto	l2348
  6940  14B1                     u2210:	
  6941  14B1                     l2354:	
  6942  14B1  0875               	movf	__Umul8_16@product+1,w
  6943  14B2  00F1               	movwf	?__Umul8_16+1
  6944  14B3  0874               	movf	__Umul8_16@product,w
  6945  14B4  00F0               	movwf	?__Umul8_16
  6946  14B5                     l896:	
  6947  14B5  0008               	return
  6948  14B6                     __end_of__Umul8_16:	
  6949                           
  6950                           	psect	text24
  6951  0AC2                     __ptext24:	
  6952 ;; *************** function ___fldiv *****************
  6953 ;; Defined at:
  6954 ;;		line 8 in file "C:\Program Files (x86)\Microchip\xc8\v2.10\pic\sources\c90\common\sprcdiv.c"
  6955 ;; Parameters:    Size  Location     Type
  6956 ;;  a               4   26[BANK0 ] unsigned int 
  6957 ;;  b               4   30[BANK0 ] unsigned int 
  6958 ;; Auto vars:     Size  Location     Type
  6959 ;;  grs             4   46[BANK0 ] unsigned long 
  6960 ;;  rem             4   39[BANK0 ] unsigned long 
  6961 ;;  new_exp         2   44[BANK0 ] int 
  6962 ;;  aexp            1   51[BANK0 ] unsigned char 
  6963 ;;  bexp            1   50[BANK0 ] unsigned char 
  6964 ;;  sign            1   43[BANK0 ] unsigned char 
  6965 ;; Return value:  Size  Location     Type
  6966 ;;                  4   26[BANK0 ] unsigned char 
  6967 ;; Registers used:
  6968 ;;		wreg, status,2, status,0, btemp+1
  6969 ;; Tracked objects:
  6970 ;;		On entry : 0/0
  6971 ;;		On exit  : 0/0
  6972 ;;		Unchanged: 0/0
  6973 ;; Data sizes:     COMMON   BANK0   BANK1   BANK3   BANK2
  6974 ;;      Params:         0       8       0       0       0
  6975 ;;      Locals:         0      13       0       0       0
  6976 ;;      Temps:          0       5       0       0       0
  6977 ;;      Totals:         0      26       0       0       0
  6978 ;;Total ram usage:       26 bytes
  6979 ;; Hardware stack levels used:    1
  6980 ;; This function calls:
  6981 ;;		Nothing
  6982 ;; This function is called by:
  6983 ;;		_lee2
  6984 ;;		_lee1
  6985 ;;		_exp
  6986 ;; This function uses a non-reentrant model
  6987 ;;
  6988                           
  6989                           
  6990                           ;psect for function ___fldiv
  6991  0AC2                     ___fldiv:	
  6992  0AC2                     l2628:	
  6993                           ;incstack = 0
  6994                           ; Regs used in ___fldiv: [wreg+status,2+status,0+btemp+1]
  6995                           
  6996  0AC2  1283               	bcf	3,5	;RP0=0, select bank0
  6997  0AC3  1303               	bcf	3,6	;RP1=0, select bank0
  6998  0AC4  0841               	movf	___fldiv@b+3,w
  6999  0AC5  3980               	andlw	128
  7000  0AC6  00C2               	movwf	??___fldiv
  7001  0AC7  0842               	movf	??___fldiv,w
  7002  0AC8  00CB               	movwf	___fldiv@sign
  7003  0AC9                     l2630:	
  7004  0AC9  0841               	movf	___fldiv@b+3,w
  7005  0ACA  00C2               	movwf	??___fldiv
  7006  0ACB  0742               	addwf	??___fldiv,w
  7007  0ACC  00C3               	movwf	??___fldiv+1
  7008  0ACD  0843               	movf	??___fldiv+1,w
  7009  0ACE  00D2               	movwf	___fldiv@bexp
  7010  0ACF                     l2632:	
  7011  0ACF  1FC0               	btfss	___fldiv@b+2,7
  7012  0AD0  2AD2               	goto	u2721
  7013  0AD1  2AD3               	goto	u2720
  7014  0AD2                     u2721:	
  7015  0AD2  2AD4               	goto	l2636
  7016  0AD3                     u2720:	
  7017  0AD3                     l2634:	
  7018  0AD3  1452               	bsf	___fldiv@bexp,0
  7019  0AD4                     l2636:	
  7020  0AD4  0852               	movf	___fldiv@bexp,w
  7021  0AD5  1903               	btfsc	3,2
  7022  0AD6  2AD8               	goto	u2731
  7023  0AD7  2AD9               	goto	u2730
  7024  0AD8                     u2731:	
  7025  0AD8  2AE9               	goto	l2646
  7026  0AD9                     u2730:	
  7027  0AD9                     l2638:	
  7028  0AD9  0A52               	incf	___fldiv@bexp,w
  7029  0ADA  1D03               	btfss	3,2
  7030  0ADB  2ADD               	goto	u2741
  7031  0ADC  2ADE               	goto	u2740
  7032  0ADD                     u2741:	
  7033  0ADD  2AE6               	goto	l2642
  7034  0ADE                     u2740:	
  7035  0ADE                     l2640:	
  7036  0ADE  3000               	movlw	0
  7037  0ADF  00C1               	movwf	___fldiv@b+3
  7038  0AE0  3000               	movlw	0
  7039  0AE1  00C0               	movwf	___fldiv@b+2
  7040  0AE2  3000               	movlw	0
  7041  0AE3  00BF               	movwf	___fldiv@b+1
  7042  0AE4  3000               	movlw	0
  7043  0AE5  00BE               	movwf	___fldiv@b
  7044  0AE6                     l2642:	
  7045  0AE6  17C0               	bsf	___fldiv@b+2,7
  7046  0AE7                     l2644:	
  7047  0AE7  01C1               	clrf	___fldiv@b+3
  7048  0AE8  2AF1               	goto	l2648
  7049  0AE9                     l2646:	
  7050  0AE9  3000               	movlw	0
  7051  0AEA  00C1               	movwf	___fldiv@b+3
  7052  0AEB  3000               	movlw	0
  7053  0AEC  00C0               	movwf	___fldiv@b+2
  7054  0AED  3000               	movlw	0
  7055  0AEE  00BF               	movwf	___fldiv@b+1
  7056  0AEF  3000               	movlw	0
  7057  0AF0  00BE               	movwf	___fldiv@b
  7058  0AF1                     l2648:	
  7059  0AF1  083D               	movf	___fldiv@a+3,w
  7060  0AF2  3980               	andlw	128
  7061  0AF3  00C2               	movwf	??___fldiv
  7062  0AF4  0842               	movf	??___fldiv,w
  7063  0AF5  06CB               	xorwf	___fldiv@sign,f
  7064  0AF6                     l2650:	
  7065  0AF6  083D               	movf	___fldiv@a+3,w
  7066  0AF7  00C2               	movwf	??___fldiv
  7067  0AF8  0742               	addwf	??___fldiv,w
  7068  0AF9  00C3               	movwf	??___fldiv+1
  7069  0AFA  0843               	movf	??___fldiv+1,w
  7070  0AFB  00D3               	movwf	___fldiv@aexp
  7071  0AFC                     l2652:	
  7072  0AFC  1FBC               	btfss	___fldiv@a+2,7
  7073  0AFD  2AFF               	goto	u2751
  7074  0AFE  2B00               	goto	u2750
  7075  0AFF                     u2751:	
  7076  0AFF  2B01               	goto	l2656
  7077  0B00                     u2750:	
  7078  0B00                     l2654:	
  7079  0B00  1453               	bsf	___fldiv@aexp,0
  7080  0B01                     l2656:	
  7081  0B01  0853               	movf	___fldiv@aexp,w
  7082  0B02  1903               	btfsc	3,2
  7083  0B03  2B05               	goto	u2761
  7084  0B04  2B06               	goto	u2760
  7085  0B05                     u2761:	
  7086  0B05  2B16               	goto	l2666
  7087  0B06                     u2760:	
  7088  0B06                     l2658:	
  7089  0B06  0A53               	incf	___fldiv@aexp,w
  7090  0B07  1D03               	btfss	3,2
  7091  0B08  2B0A               	goto	u2771
  7092  0B09  2B0B               	goto	u2770
  7093  0B0A                     u2771:	
  7094  0B0A  2B13               	goto	l2662
  7095  0B0B                     u2770:	
  7096  0B0B                     l2660:	
  7097  0B0B  3000               	movlw	0
  7098  0B0C  00BD               	movwf	___fldiv@a+3
  7099  0B0D  3000               	movlw	0
  7100  0B0E  00BC               	movwf	___fldiv@a+2
  7101  0B0F  3000               	movlw	0
  7102  0B10  00BB               	movwf	___fldiv@a+1
  7103  0B11  3000               	movlw	0
  7104  0B12  00BA               	movwf	___fldiv@a
  7105  0B13                     l2662:	
  7106  0B13  17BC               	bsf	___fldiv@a+2,7
  7107  0B14                     l2664:	
  7108  0B14  01BD               	clrf	___fldiv@a+3
  7109  0B15  2B1E               	goto	l757
  7110  0B16                     l2666:	
  7111  0B16  3000               	movlw	0
  7112  0B17  00BD               	movwf	___fldiv@a+3
  7113  0B18  3000               	movlw	0
  7114  0B19  00BC               	movwf	___fldiv@a+2
  7115  0B1A  3000               	movlw	0
  7116  0B1B  00BB               	movwf	___fldiv@a+1
  7117  0B1C  3000               	movlw	0
  7118  0B1D  00BA               	movwf	___fldiv@a
  7119  0B1E                     l757:	
  7120  0B1E  083D               	movf	___fldiv@a+3,w
  7121  0B1F  043C               	iorwf	___fldiv@a+2,w
  7122  0B20  043B               	iorwf	___fldiv@a+1,w
  7123  0B21  043A               	iorwf	___fldiv@a,w
  7124  0B22  1D03               	skipz
  7125  0B23  2B25               	goto	u2781
  7126  0B24  2B26               	goto	u2780
  7127  0B25                     u2781:	
  7128  0B25  2B3F               	goto	l2676
  7129  0B26                     u2780:	
  7130  0B26                     l2668:	
  7131  0B26  3000               	movlw	0
  7132  0B27  00C1               	movwf	___fldiv@b+3
  7133  0B28  3000               	movlw	0
  7134  0B29  00C0               	movwf	___fldiv@b+2
  7135  0B2A  3000               	movlw	0
  7136  0B2B  00BF               	movwf	___fldiv@b+1
  7137  0B2C  3000               	movlw	0
  7138  0B2D  00BE               	movwf	___fldiv@b
  7139  0B2E  3080               	movlw	128
  7140  0B2F  04C0               	iorwf	___fldiv@b+2,f
  7141  0B30  307F               	movlw	127
  7142  0B31  04C1               	iorwf	___fldiv@b+3,f
  7143  0B32                     l2670:	
  7144  0B32  084B               	movf	___fldiv@sign,w
  7145  0B33  00C2               	movwf	??___fldiv
  7146  0B34  0842               	movf	??___fldiv,w
  7147  0B35  04C1               	iorwf	___fldiv@b+3,f
  7148  0B36                     l2672:	
  7149  0B36  0841               	movf	___fldiv@b+3,w
  7150  0B37  00BD               	movwf	?___fldiv+3
  7151  0B38  0840               	movf	___fldiv@b+2,w
  7152  0B39  00BC               	movwf	?___fldiv+2
  7153  0B3A  083F               	movf	___fldiv@b+1,w
  7154  0B3B  00BB               	movwf	?___fldiv+1
  7155  0B3C  083E               	movf	___fldiv@b,w
  7156  0B3D  00BA               	movwf	?___fldiv
  7157  0B3E  2C9E               	goto	l759
  7158  0B3F                     l2676:	
  7159  0B3F  0852               	movf	___fldiv@bexp,w
  7160  0B40  1D03               	btfss	3,2
  7161  0B41  2B43               	goto	u2791
  7162  0B42  2B44               	goto	u2790
  7163  0B43                     u2791:	
  7164  0B43  2B4D               	goto	l2682
  7165  0B44                     u2790:	
  7166  0B44                     l2678:	
  7167  0B44  3000               	movlw	0
  7168  0B45  00BD               	movwf	?___fldiv+3
  7169  0B46  3000               	movlw	0
  7170  0B47  00BC               	movwf	?___fldiv+2
  7171  0B48  3000               	movlw	0
  7172  0B49  00BB               	movwf	?___fldiv+1
  7173  0B4A  3000               	movlw	0
  7174  0B4B  00BA               	movwf	?___fldiv
  7175  0B4C  2C9E               	goto	l759
  7176  0B4D                     l2682:	
  7177  0B4D  0852               	movf	___fldiv@bexp,w
  7178  0B4E  00C2               	movwf	??___fldiv
  7179  0B4F  01C3               	clrf	??___fldiv+1
  7180  0B50  0843               	movf	??___fldiv+1,w
  7181  0B51  00C5               	movwf	??___fldiv+3
  7182  0B52  0853               	movf	___fldiv@aexp,w
  7183  0B53  0242               	subwf	??___fldiv,w
  7184  0B54  00C4               	movwf	??___fldiv+2
  7185  0B55  1C03               	skipc
  7186  0B56  03C5               	decf	??___fldiv+3,f
  7187  0B57  0844               	movf	??___fldiv+2,w
  7188  0B58  3E7F               	addlw	127
  7189  0B59  00CC               	movwf	___fldiv@new_exp
  7190  0B5A  0845               	movf	??___fldiv+3,w
  7191  0B5B  1803               	skipnc
  7192  0B5C  3E01               	addlw	1
  7193  0B5D  3E00               	addlw	0
  7194  0B5E  00CD               	movwf	___fldiv@new_exp+1
  7195  0B5F                     l2684:	
  7196  0B5F  0841               	movf	___fldiv@b+3,w
  7197  0B60  00CA               	movwf	___fldiv@rem+3
  7198  0B61  0840               	movf	___fldiv@b+2,w
  7199  0B62  00C9               	movwf	___fldiv@rem+2
  7200  0B63  083F               	movf	___fldiv@b+1,w
  7201  0B64  00C8               	movwf	___fldiv@rem+1
  7202  0B65  083E               	movf	___fldiv@b,w
  7203  0B66  00C7               	movwf	___fldiv@rem
  7204  0B67                     l2686:	
  7205  0B67  3000               	movlw	0
  7206  0B68  00C1               	movwf	___fldiv@b+3
  7207  0B69  3000               	movlw	0
  7208  0B6A  00C0               	movwf	___fldiv@b+2
  7209  0B6B  3000               	movlw	0
  7210  0B6C  00BF               	movwf	___fldiv@b+1
  7211  0B6D  3000               	movlw	0
  7212  0B6E  00BE               	movwf	___fldiv@b
  7213  0B6F                     l2688:	
  7214  0B6F  3000               	movlw	0
  7215  0B70  00D1               	movwf	___fldiv@grs+3
  7216  0B71  3000               	movlw	0
  7217  0B72  00D0               	movwf	___fldiv@grs+2
  7218  0B73  3000               	movlw	0
  7219  0B74  00CF               	movwf	___fldiv@grs+1
  7220  0B75  3000               	movlw	0
  7221  0B76  00CE               	movwf	___fldiv@grs
  7222  0B77                     l2690:	
  7223  0B77  01D3               	clrf	___fldiv@aexp
  7224  0B78  2BC3               	goto	l2710
  7225  0B79                     l2692:	
  7226  0B79  0853               	movf	___fldiv@aexp,w
  7227  0B7A  1903               	btfsc	3,2
  7228  0B7B  2B7D               	goto	u2801
  7229  0B7C  2B7E               	goto	u2800
  7230  0B7D                     u2801:	
  7231  0B7D  2B9E               	goto	l2702
  7232  0B7E                     u2800:	
  7233  0B7E                     l2694:	
  7234  0B7E  3001               	movlw	1
  7235  0B7F  00C2               	movwf	??___fldiv
  7236  0B80                     u2815:	
  7237  0B80  1003               	clrc
  7238  0B81  0DC7               	rlf	___fldiv@rem,f
  7239  0B82  0DC8               	rlf	___fldiv@rem+1,f
  7240  0B83  0DC9               	rlf	___fldiv@rem+2,f
  7241  0B84  0DCA               	rlf	___fldiv@rem+3,f
  7242  0B85  0BC2               	decfsz	??___fldiv,f
  7243  0B86  2B80               	goto	u2815
  7244  0B87  3001               	movlw	1
  7245  0B88  00C2               	movwf	??___fldiv
  7246  0B89                     u2825:	
  7247  0B89  1003               	clrc
  7248  0B8A  0DBE               	rlf	___fldiv@b,f
  7249  0B8B  0DBF               	rlf	___fldiv@b+1,f
  7250  0B8C  0DC0               	rlf	___fldiv@b+2,f
  7251  0B8D  0DC1               	rlf	___fldiv@b+3,f
  7252  0B8E  0BC2               	decfsz	??___fldiv,f
  7253  0B8F  2B89               	goto	u2825
  7254  0B90                     l2696:	
  7255  0B90  1FD1               	btfss	___fldiv@grs+3,7
  7256  0B91  2B93               	goto	u2831
  7257  0B92  2B94               	goto	u2830
  7258  0B93                     u2831:	
  7259  0B93  2B95               	goto	l2700
  7260  0B94                     u2830:	
  7261  0B94                     l2698:	
  7262  0B94  143E               	bsf	___fldiv@b,0
  7263  0B95                     l2700:	
  7264  0B95  3001               	movlw	1
  7265  0B96  00C2               	movwf	??___fldiv
  7266  0B97                     u2845:	
  7267  0B97  1003               	clrc
  7268  0B98  0DCE               	rlf	___fldiv@grs,f
  7269  0B99  0DCF               	rlf	___fldiv@grs+1,f
  7270  0B9A  0DD0               	rlf	___fldiv@grs+2,f
  7271  0B9B  0DD1               	rlf	___fldiv@grs+3,f
  7272  0B9C  0BC2               	decfsz	??___fldiv,f
  7273  0B9D  2B97               	goto	u2845
  7274  0B9E                     l2702:	
  7275  0B9E  083D               	movf	___fldiv@a+3,w
  7276  0B9F  024A               	subwf	___fldiv@rem+3,w
  7277  0BA0  1D03               	skipz
  7278  0BA1  2BAC               	goto	u2855
  7279  0BA2  083C               	movf	___fldiv@a+2,w
  7280  0BA3  0249               	subwf	___fldiv@rem+2,w
  7281  0BA4  1D03               	skipz
  7282  0BA5  2BAC               	goto	u2855
  7283  0BA6  083B               	movf	___fldiv@a+1,w
  7284  0BA7  0248               	subwf	___fldiv@rem+1,w
  7285  0BA8  1D03               	skipz
  7286  0BA9  2BAC               	goto	u2855
  7287  0BAA  083A               	movf	___fldiv@a,w
  7288  0BAB  0247               	subwf	___fldiv@rem,w
  7289  0BAC                     u2855:	
  7290  0BAC  1C03               	skipc
  7291  0BAD  2BAF               	goto	u2851
  7292  0BAE  2BB0               	goto	u2850
  7293  0BAF                     u2851:	
  7294  0BAF  2BBF               	goto	l2708
  7295  0BB0                     u2850:	
  7296  0BB0                     l2704:	
  7297  0BB0  1751               	bsf	___fldiv@grs+3,6
  7298  0BB1                     l2706:	
  7299  0BB1  083A               	movf	___fldiv@a,w
  7300  0BB2  02C7               	subwf	___fldiv@rem,f
  7301  0BB3  083B               	movf	___fldiv@a+1,w
  7302  0BB4  1C03               	skipc
  7303  0BB5  0F3B               	incfsz	___fldiv@a+1,w
  7304  0BB6  02C8               	subwf	___fldiv@rem+1,f
  7305  0BB7  083C               	movf	___fldiv@a+2,w
  7306  0BB8  1C03               	skipc
  7307  0BB9  0F3C               	incfsz	___fldiv@a+2,w
  7308  0BBA  02C9               	subwf	___fldiv@rem+2,f
  7309  0BBB  083D               	movf	___fldiv@a+3,w
  7310  0BBC  1C03               	skipc
  7311  0BBD  0F3D               	incfsz	___fldiv@a+3,w
  7312  0BBE  02CA               	subwf	___fldiv@rem+3,f
  7313  0BBF                     l2708:	
  7314  0BBF  3001               	movlw	1
  7315  0BC0  00C2               	movwf	??___fldiv
  7316  0BC1  0842               	movf	??___fldiv,w
  7317  0BC2  07D3               	addwf	___fldiv@aexp,f
  7318  0BC3                     l2710:	
  7319  0BC3  301A               	movlw	26
  7320  0BC4  0253               	subwf	___fldiv@aexp,w
  7321  0BC5  1C03               	skipc
  7322  0BC6  2BC8               	goto	u2861
  7323  0BC7  2BC9               	goto	u2860
  7324  0BC8                     u2861:	
  7325  0BC8  2B79               	goto	l2692
  7326  0BC9                     u2860:	
  7327  0BC9                     l2712:	
  7328  0BC9  084A               	movf	___fldiv@rem+3,w
  7329  0BCA  0449               	iorwf	___fldiv@rem+2,w
  7330  0BCB  0448               	iorwf	___fldiv@rem+1,w
  7331  0BCC  0447               	iorwf	___fldiv@rem,w
  7332  0BCD  1903               	skipnz
  7333  0BCE  2BD0               	goto	u2871
  7334  0BCF  2BD1               	goto	u2870
  7335  0BD0                     u2871:	
  7336  0BD0  2BF0               	goto	l2726
  7337  0BD1                     u2870:	
  7338  0BD1                     l2714:	
  7339  0BD1  144E               	bsf	___fldiv@grs,0
  7340  0BD2  2BF0               	goto	l2726
  7341  0BD3                     l2716:	
  7342  0BD3  3001               	movlw	1
  7343  0BD4  00C2               	movwf	??___fldiv
  7344  0BD5                     u2885:	
  7345  0BD5  1003               	clrc
  7346  0BD6  0DBE               	rlf	___fldiv@b,f
  7347  0BD7  0DBF               	rlf	___fldiv@b+1,f
  7348  0BD8  0DC0               	rlf	___fldiv@b+2,f
  7349  0BD9  0DC1               	rlf	___fldiv@b+3,f
  7350  0BDA  0BC2               	decfsz	??___fldiv,f
  7351  0BDB  2BD5               	goto	u2885
  7352  0BDC                     l2718:	
  7353  0BDC  1FD1               	btfss	___fldiv@grs+3,7
  7354  0BDD  2BDF               	goto	u2891
  7355  0BDE  2BE0               	goto	u2890
  7356  0BDF                     u2891:	
  7357  0BDF  2BE1               	goto	l2722
  7358  0BE0                     u2890:	
  7359  0BE0                     l2720:	
  7360  0BE0  143E               	bsf	___fldiv@b,0
  7361  0BE1                     l2722:	
  7362  0BE1  3001               	movlw	1
  7363  0BE2  00C2               	movwf	??___fldiv
  7364  0BE3                     u2905:	
  7365  0BE3  1003               	clrc
  7366  0BE4  0DCE               	rlf	___fldiv@grs,f
  7367  0BE5  0DCF               	rlf	___fldiv@grs+1,f
  7368  0BE6  0DD0               	rlf	___fldiv@grs+2,f
  7369  0BE7  0DD1               	rlf	___fldiv@grs+3,f
  7370  0BE8  0BC2               	decfsz	??___fldiv,f
  7371  0BE9  2BE3               	goto	u2905
  7372  0BEA                     l2724:	
  7373  0BEA  30FF               	movlw	255
  7374  0BEB  07CC               	addwf	___fldiv@new_exp,f
  7375  0BEC  1803               	skipnc
  7376  0BED  0ACD               	incf	___fldiv@new_exp+1,f
  7377  0BEE  30FF               	movlw	255
  7378  0BEF  07CD               	addwf	___fldiv@new_exp+1,f
  7379  0BF0                     l2726:	
  7380  0BF0  1FC0               	btfss	___fldiv@b+2,7
  7381  0BF1  2BF3               	goto	u2911
  7382  0BF2  2BF4               	goto	u2910
  7383  0BF3                     u2911:	
  7384  0BF3  2BD3               	goto	l2716
  7385  0BF4                     u2910:	
  7386  0BF4                     l2728:	
  7387  0BF4  01D3               	clrf	___fldiv@aexp
  7388  0BF5                     l2730:	
  7389  0BF5  1FD1               	btfss	___fldiv@grs+3,7
  7390  0BF6  2BF8               	goto	u2921
  7391  0BF7  2BF9               	goto	u2920
  7392  0BF8                     u2921:	
  7393  0BF8  2C15               	goto	l2738
  7394  0BF9                     u2920:	
  7395  0BF9                     l2732:	
  7396  0BF9  30FF               	movlw	255
  7397  0BFA  054E               	andwf	___fldiv@grs,w
  7398  0BFB  00C2               	movwf	??___fldiv
  7399  0BFC  30FF               	movlw	255
  7400  0BFD  054F               	andwf	___fldiv@grs+1,w
  7401  0BFE  00C3               	movwf	??___fldiv+1
  7402  0BFF  30FF               	movlw	255
  7403  0C00  0550               	andwf	___fldiv@grs+2,w
  7404  0C01  00C4               	movwf	??___fldiv+2
  7405  0C02  307F               	movlw	127
  7406  0C03  0551               	andwf	___fldiv@grs+3,w
  7407  0C04  00C5               	movwf	??___fldiv+3
  7408  0C05  0845               	movf	??___fldiv+3,w
  7409  0C06  0444               	iorwf	??___fldiv+2,w
  7410  0C07  0443               	iorwf	??___fldiv+1,w
  7411  0C08  0442               	iorwf	??___fldiv,w
  7412  0C09  1903               	skipnz
  7413  0C0A  2C0C               	goto	u2931
  7414  0C0B  2C0D               	goto	u2930
  7415  0C0C                     u2931:	
  7416  0C0C  2C10               	goto	l773
  7417  0C0D                     u2930:	
  7418  0C0D                     l2734:	
  7419  0C0D  01D3               	clrf	___fldiv@aexp
  7420  0C0E  0AD3               	incf	___fldiv@aexp,f
  7421  0C0F  2C15               	goto	l2738
  7422  0C10                     l773:	
  7423  0C10  1C3E               	btfss	___fldiv@b,0
  7424  0C11  2C13               	goto	u2941
  7425  0C12  2C14               	goto	u2940
  7426  0C13                     u2941:	
  7427  0C13  2C15               	goto	l2738
  7428  0C14                     u2940:	
  7429  0C14  2C0D               	goto	l2734
  7430  0C15                     l2738:	
  7431  0C15  0853               	movf	___fldiv@aexp,w
  7432  0C16  1903               	btfsc	3,2
  7433  0C17  2C19               	goto	u2951
  7434  0C18  2C1A               	goto	u2950
  7435  0C19                     u2951:	
  7436  0C19  2C4B               	goto	l2748
  7437  0C1A                     u2950:	
  7438  0C1A                     l2740:	
  7439  0C1A  3001               	movlw	1
  7440  0C1B  07BE               	addwf	___fldiv@b,f
  7441  0C1C  3000               	movlw	0
  7442  0C1D  1803               	skipnc
  7443  0C1E  3001               	movlw	1
  7444  0C1F  07BF               	addwf	___fldiv@b+1,f
  7445  0C20  3000               	movlw	0
  7446  0C21  1803               	skipnc
  7447  0C22  3001               	movlw	1
  7448  0C23  07C0               	addwf	___fldiv@b+2,f
  7449  0C24  3000               	movlw	0
  7450  0C25  1803               	skipnc
  7451  0C26  3001               	movlw	1
  7452  0C27  07C1               	addwf	___fldiv@b+3,f
  7453  0C28                     l2742:	
  7454  0C28  1C41               	btfss	___fldiv@b+3,0
  7455  0C29  2C2B               	goto	u2961
  7456  0C2A  2C2C               	goto	u2960
  7457  0C2B                     u2961:	
  7458  0C2B  2C4B               	goto	l2748
  7459  0C2C                     u2960:	
  7460  0C2C                     l2744:	
  7461  0C2C  083E               	movf	___fldiv@b,w
  7462  0C2D  00C2               	movwf	??___fldiv
  7463  0C2E  083F               	movf	___fldiv@b+1,w
  7464  0C2F  00C3               	movwf	??___fldiv+1
  7465  0C30  0840               	movf	___fldiv@b+2,w
  7466  0C31  00C4               	movwf	??___fldiv+2
  7467  0C32  0841               	movf	___fldiv@b+3,w
  7468  0C33  00C5               	movwf	??___fldiv+3
  7469  0C34  3001               	movlw	1
  7470  0C35  00C6               	movwf	??___fldiv+4
  7471  0C36                     u2975:	
  7472  0C36  0D45               	rlf	??___fldiv+3,w
  7473  0C37  0CC5               	rrf	??___fldiv+3,f
  7474  0C38  0CC4               	rrf	??___fldiv+2,f
  7475  0C39  0CC3               	rrf	??___fldiv+1,f
  7476  0C3A  0CC2               	rrf	??___fldiv,f
  7477  0C3B                     u2970:	
  7478  0C3B  0BC6               	decfsz	??___fldiv+4,f
  7479  0C3C  2C36               	goto	u2975
  7480  0C3D  0845               	movf	??___fldiv+3,w
  7481  0C3E  00C1               	movwf	___fldiv@b+3
  7482  0C3F  0844               	movf	??___fldiv+2,w
  7483  0C40  00C0               	movwf	___fldiv@b+2
  7484  0C41  0843               	movf	??___fldiv+1,w
  7485  0C42  00BF               	movwf	___fldiv@b+1
  7486  0C43  0842               	movf	??___fldiv,w
  7487  0C44  00BE               	movwf	___fldiv@b
  7488  0C45                     l2746:	
  7489  0C45  3001               	movlw	1
  7490  0C46  07CC               	addwf	___fldiv@new_exp,f
  7491  0C47  1803               	skipnc
  7492  0C48  0ACD               	incf	___fldiv@new_exp+1,f
  7493  0C49  3000               	movlw	0
  7494  0C4A  07CD               	addwf	___fldiv@new_exp+1,f
  7495  0C4B                     l2748:	
  7496  0C4B  084D               	movf	___fldiv@new_exp+1,w
  7497  0C4C  3A80               	xorlw	128
  7498  0C4D  00FF               	movwf	btemp+1
  7499  0C4E  3080               	movlw	128
  7500  0C4F  027F               	subwf	btemp+1,w
  7501  0C50  1D03               	skipz
  7502  0C51  2C54               	goto	u2985
  7503  0C52  30FF               	movlw	255
  7504  0C53  024C               	subwf	___fldiv@new_exp,w
  7505  0C54                     u2985:	
  7506  0C54  1C03               	skipc
  7507  0C55  2C57               	goto	u2981
  7508  0C56  2C58               	goto	u2980
  7509  0C57                     u2981:	
  7510  0C57  2C66               	goto	l2752
  7511  0C58                     u2980:	
  7512  0C58                     l2750:	
  7513  0C58  30FF               	movlw	255
  7514  0C59  1283               	bcf	3,5	;RP0=0, select bank0
  7515  0C5A  1303               	bcf	3,6	;RP1=0, select bank0
  7516  0C5B  00CC               	movwf	___fldiv@new_exp
  7517  0C5C  3000               	movlw	0
  7518  0C5D  00CD               	movwf	___fldiv@new_exp+1
  7519  0C5E  3000               	movlw	0
  7520  0C5F  00C1               	movwf	___fldiv@b+3
  7521  0C60  3000               	movlw	0
  7522  0C61  00C0               	movwf	___fldiv@b+2
  7523  0C62  3000               	movlw	0
  7524  0C63  00BF               	movwf	___fldiv@b+1
  7525  0C64  3000               	movlw	0
  7526  0C65  00BE               	movwf	___fldiv@b
  7527  0C66                     l2752:	
  7528  0C66  1283               	bcf	3,5	;RP0=0, select bank0
  7529  0C67  1303               	bcf	3,6	;RP1=0, select bank0
  7530  0C68  084D               	movf	___fldiv@new_exp+1,w
  7531  0C69  3A80               	xorlw	128
  7532  0C6A  00FF               	movwf	btemp+1
  7533  0C6B  3080               	movlw	128
  7534  0C6C  027F               	subwf	btemp+1,w
  7535  0C6D  1D03               	skipz
  7536  0C6E  2C71               	goto	u2995
  7537  0C6F  3001               	movlw	1
  7538  0C70  024C               	subwf	___fldiv@new_exp,w
  7539  0C71                     u2995:	
  7540  0C71  1803               	skipnc
  7541  0C72  2C74               	goto	u2991
  7542  0C73  2C75               	goto	u2990
  7543  0C74                     u2991:	
  7544  0C74  2C82               	goto	l779
  7545  0C75                     u2990:	
  7546  0C75                     l2754:	
  7547  0C75  1283               	bcf	3,5	;RP0=0, select bank0
  7548  0C76  1303               	bcf	3,6	;RP1=0, select bank0
  7549  0C77  01CC               	clrf	___fldiv@new_exp
  7550  0C78  01CD               	clrf	___fldiv@new_exp+1
  7551  0C79                     l2756:	
  7552  0C79  3000               	movlw	0
  7553  0C7A  00C1               	movwf	___fldiv@b+3
  7554  0C7B  3000               	movlw	0
  7555  0C7C  00C0               	movwf	___fldiv@b+2
  7556  0C7D  3000               	movlw	0
  7557  0C7E  00BF               	movwf	___fldiv@b+1
  7558  0C7F  3000               	movlw	0
  7559  0C80  00BE               	movwf	___fldiv@b
  7560  0C81                     l2758:	
  7561  0C81  01CB               	clrf	___fldiv@sign
  7562  0C82                     l779:	
  7563  0C82  1283               	bcf	3,5	;RP0=0, select bank0
  7564  0C83  1303               	bcf	3,6	;RP1=0, select bank0
  7565  0C84  084C               	movf	___fldiv@new_exp,w
  7566  0C85  00C2               	movwf	??___fldiv
  7567  0C86  0842               	movf	??___fldiv,w
  7568  0C87  00D2               	movwf	___fldiv@bexp
  7569  0C88                     l2760:	
  7570  0C88  1C52               	btfss	___fldiv@bexp,0
  7571  0C89  2C8B               	goto	u3001
  7572  0C8A  2C8C               	goto	u3000
  7573  0C8B                     u3001:	
  7574  0C8B  2C8E               	goto	l2764
  7575  0C8C                     u3000:	
  7576  0C8C                     l2762:	
  7577  0C8C  17C0               	bsf	___fldiv@b+2,7
  7578  0C8D  2C92               	goto	l781
  7579  0C8E                     l2764:	
  7580  0C8E  307F               	movlw	127
  7581  0C8F  00C2               	movwf	??___fldiv
  7582  0C90  0842               	movf	??___fldiv,w
  7583  0C91  05C0               	andwf	___fldiv@b+2,f
  7584  0C92                     l781:	
  7585  0C92  0852               	movf	___fldiv@bexp,w
  7586  0C93  00C2               	movwf	??___fldiv
  7587  0C94  1003               	clrc
  7588  0C95  0C42               	rrf	??___fldiv,w
  7589  0C96  00C3               	movwf	??___fldiv+1
  7590  0C97  0843               	movf	??___fldiv+1,w
  7591  0C98  00C1               	movwf	___fldiv@b+3
  7592  0C99  084B               	movf	___fldiv@sign,w
  7593  0C9A  00C2               	movwf	??___fldiv
  7594  0C9B  0842               	movf	??___fldiv,w
  7595  0C9C  04C1               	iorwf	___fldiv@b+3,f
  7596  0C9D  2B36               	goto	l2672
  7597  0C9E                     l759:	
  7598  0C9E  0008               	return
  7599  0C9F                     __end_of___fldiv:	
  7600                           
  7601                           	psect	text25
  7602  000E                     __ptext25:	
  7603 ;; *************** function _lcd_init *****************
  7604 ;; Defined at:
  7605 ;;		line 67 in file "./LCD2.h"
  7606 ;; Parameters:    Size  Location     Type
  7607 ;;		None
  7608 ;; Auto vars:     Size  Location     Type
  7609 ;;		None
  7610 ;; Return value:  Size  Location     Type
  7611 ;;                  1    wreg      void 
  7612 ;; Registers used:
  7613 ;;		wreg, status,2, status,0, pclath, cstack
  7614 ;; Tracked objects:
  7615 ;;		On entry : 0/0
  7616 ;;		On exit  : 0/0
  7617 ;;		Unchanged: 0/0
  7618 ;; Data sizes:     COMMON   BANK0   BANK1   BANK3   BANK2
  7619 ;;      Params:         0       0       0       0       0
  7620 ;;      Locals:         0       0       0       0       0
  7621 ;;      Temps:          2       0       0       0       0
  7622 ;;      Totals:         2       0       0       0       0
  7623 ;;Total ram usage:        2 bytes
  7624 ;; Hardware stack levels used:    1
  7625 ;; Hardware stack levels required when called:    2
  7626 ;; This function calls:
  7627 ;;		_com
  7628 ;; This function is called by:
  7629 ;;		_main
  7630 ;; This function uses a non-reentrant model
  7631 ;;
  7632                           
  7633                           
  7634                           ;psect for function _lcd_init
  7635  000E                     _lcd_init:	
  7636  000E                     l2990:	
  7637                           ;incstack = 0
  7638                           ; Regs used in _lcd_init: [wreg+status,2+status,0+pclath+cstack]
  7639                           
  7640                           
  7641                           ;./LCD2.h: 70:    _delay((unsigned long)((20)*(4000000/4000.0)));
  7642  000E  301A               	movlw	26
  7643  000F  00F3               	movwf	??_lcd_init+1
  7644  0010  30F8               	movlw	248
  7645  0011  00F2               	movwf	??_lcd_init
  7646  0012                     u5277:	
  7647  0012  0BF2               	decfsz	??_lcd_init,f
  7648  0013  2812               	goto	u5277
  7649  0014  0BF3               	decfsz	??_lcd_init+1,f
  7650  0015  2812               	goto	u5277
  7651  0016  0000               	nop
  7652  0017                     l2992:	
  7653                           
  7654                           ;./LCD2.h: 71:   com(0x30);
  7655  0017  3030               	movlw	48
  7656  0018  160A  118A  23E8  120A  118A  	fcall	_com
  7657  001D                     l2994:	
  7658                           
  7659                           ;./LCD2.h: 72:  _delay((unsigned long)((10)*(4000000/4000.0)));
  7660  001D  300D               	movlw	13
  7661  001E  00F3               	movwf	??_lcd_init+1
  7662  001F  30FB               	movlw	251
  7663  0020  00F2               	movwf	??_lcd_init
  7664  0021                     u5287:	
  7665  0021  0BF2               	decfsz	??_lcd_init,f
  7666  0022  2821               	goto	u5287
  7667  0023  0BF3               	decfsz	??_lcd_init+1,f
  7668  0024  2821               	goto	u5287
  7669  0025  2826               	nop2
  7670                           
  7671                           ;./LCD2.h: 73:   com(0x30);
  7672  0026  3030               	movlw	48
  7673  0027  160A  118A  23E8  120A  118A  	fcall	_com
  7674  002C                     l2996:	
  7675                           
  7676                           ;./LCD2.h: 74:  _delay((unsigned long)((110)*(4000000/4000000.0)));
  7677  002C  3024               	movlw	36
  7678  002D  00F2               	movwf	??_lcd_init
  7679  002E                     u5297:	
  7680  002E  0BF2               	decfsz	??_lcd_init,f
  7681  002F  282E               	goto	u5297
  7682  0030  0000               	nop
  7683  0031                     l2998:	
  7684                           
  7685                           ;./LCD2.h: 75:   com(0x30);
  7686  0031  3030               	movlw	48
  7687  0032  160A  118A  23E8  120A  118A  	fcall	_com
  7688                           
  7689                           ;./LCD2.h: 76:  _delay((unsigned long)((11)*(4000000/4000.0)));
  7690  0037  300F               	movlw	15
  7691  0038  00F3               	movwf	??_lcd_init+1
  7692  0039  3047               	movlw	71
  7693  003A  00F2               	movwf	??_lcd_init
  7694  003B                     u5307:	
  7695  003B  0BF2               	decfsz	??_lcd_init,f
  7696  003C  283B               	goto	u5307
  7697  003D  0BF3               	decfsz	??_lcd_init+1,f
  7698  003E  283B               	goto	u5307
  7699  003F  2840               	nop2
  7700  0040                     l3000:	
  7701                           
  7702                           ;./LCD2.h: 79:   com(0x38);
  7703  0040  3038               	movlw	56
  7704  0041  160A  118A  23E8  120A  118A  	fcall	_com
  7705  0046                     l3002:	
  7706                           
  7707                           ;./LCD2.h: 80:   _delay((unsigned long)((4)*(4000000/4000.0)));
  7708  0046  3006               	movlw	6
  7709  0047  00F3               	movwf	??_lcd_init+1
  7710  0048  3030               	movlw	48
  7711  0049  00F2               	movwf	??_lcd_init
  7712  004A                     u5317:	
  7713  004A  0BF2               	decfsz	??_lcd_init,f
  7714  004B  284A               	goto	u5317
  7715  004C  0BF3               	decfsz	??_lcd_init+1,f
  7716  004D  284A               	goto	u5317
  7717  004E  0000               	nop
  7718                           
  7719                           ;./LCD2.h: 81:   com(0x08);
  7720  004F  3008               	movlw	8
  7721  0050  160A  118A  23E8  120A  118A  	fcall	_com
  7722  0055                     l3004:	
  7723                           
  7724                           ;./LCD2.h: 82:   _delay((unsigned long)((4)*(4000000/4000.0)));
  7725  0055  3006               	movlw	6
  7726  0056  00F3               	movwf	??_lcd_init+1
  7727  0057  3030               	movlw	48
  7728  0058  00F2               	movwf	??_lcd_init
  7729  0059                     u5327:	
  7730  0059  0BF2               	decfsz	??_lcd_init,f
  7731  005A  2859               	goto	u5327
  7732  005B  0BF3               	decfsz	??_lcd_init+1,f
  7733  005C  2859               	goto	u5327
  7734  005D  0000               	nop
  7735  005E                     l3006:	
  7736                           
  7737                           ;./LCD2.h: 83:   com(0x01);
  7738  005E  3001               	movlw	1
  7739  005F  160A  118A  23E8  120A  118A  	fcall	_com
  7740                           
  7741                           ;./LCD2.h: 84:   _delay((unsigned long)((4)*(4000000/4000.0)));
  7742  0064  3006               	movlw	6
  7743  0065  00F3               	movwf	??_lcd_init+1
  7744  0066  3030               	movlw	48
  7745  0067  00F2               	movwf	??_lcd_init
  7746  0068                     u5337:	
  7747  0068  0BF2               	decfsz	??_lcd_init,f
  7748  0069  2868               	goto	u5337
  7749  006A  0BF3               	decfsz	??_lcd_init+1,f
  7750  006B  2868               	goto	u5337
  7751  006C  0000               	nop
  7752  006D                     l3008:	
  7753                           
  7754                           ;./LCD2.h: 85:   com(0x06);
  7755  006D  3006               	movlw	6
  7756  006E  160A  118A  23E8  120A  118A  	fcall	_com
  7757  0073                     l3010:	
  7758                           
  7759                           ;./LCD2.h: 86:   _delay((unsigned long)((4)*(4000000/4000.0)));
  7760  0073  3006               	movlw	6
  7761  0074  00F3               	movwf	??_lcd_init+1
  7762  0075  3030               	movlw	48
  7763  0076  00F2               	movwf	??_lcd_init
  7764  0077                     u5347:	
  7765  0077  0BF2               	decfsz	??_lcd_init,f
  7766  0078  2877               	goto	u5347
  7767  0079  0BF3               	decfsz	??_lcd_init+1,f
  7768  007A  2877               	goto	u5347
  7769  007B  0000               	nop
  7770                           
  7771                           ;./LCD2.h: 87:   com(0x0C);
  7772  007C  300C               	movlw	12
  7773  007D  160A  118A  23E8  120A  118A  	fcall	_com
  7774  0082                     l3012:	
  7775                           
  7776                           ;./LCD2.h: 88:   _delay((unsigned long)((4)*(4000000/4000.0)));
  7777  0082  3006               	movlw	6
  7778  0083  00F3               	movwf	??_lcd_init+1
  7779  0084  3030               	movlw	48
  7780  0085  00F2               	movwf	??_lcd_init
  7781  0086                     u5357:	
  7782  0086  0BF2               	decfsz	??_lcd_init,f
  7783  0087  2886               	goto	u5357
  7784  0088  0BF3               	decfsz	??_lcd_init+1,f
  7785  0089  2886               	goto	u5357
  7786  008A  0000               	nop
  7787  008B                     l100:	
  7788  008B  0008               	return
  7789  008C                     __end_of_lcd_init:	
  7790                           
  7791                           	psect	text26
  7792  13AA                     __ptext26:	
  7793 ;; *************** function _lcd_clear *****************
  7794 ;; Defined at:
  7795 ;;		line 47 in file "./LCD2.h"
  7796 ;; Parameters:    Size  Location     Type
  7797 ;;		None
  7798 ;; Auto vars:     Size  Location     Type
  7799 ;;		None
  7800 ;; Return value:  Size  Location     Type
  7801 ;;                  1    wreg      void 
  7802 ;; Registers used:
  7803 ;;		wreg, status,2, status,0, pclath, cstack
  7804 ;; Tracked objects:
  7805 ;;		On entry : 0/0
  7806 ;;		On exit  : 0/0
  7807 ;;		Unchanged: 0/0
  7808 ;; Data sizes:     COMMON   BANK0   BANK1   BANK3   BANK2
  7809 ;;      Params:         0       0       0       0       0
  7810 ;;      Locals:         0       0       0       0       0
  7811 ;;      Temps:          0       0       0       0       0
  7812 ;;      Totals:         0       0       0       0       0
  7813 ;;Total ram usage:        0 bytes
  7814 ;; Hardware stack levels used:    1
  7815 ;; Hardware stack levels required when called:    2
  7816 ;; This function calls:
  7817 ;;		_com
  7818 ;; This function is called by:
  7819 ;;		_main
  7820 ;; This function uses a non-reentrant model
  7821 ;;
  7822                           
  7823                           
  7824                           ;psect for function _lcd_clear
  7825  13AA                     _lcd_clear:	
  7826  13AA                     l2974:	
  7827                           ;incstack = 0
  7828                           ; Regs used in _lcd_clear: [wreg+status,2+status,0+pclath+cstack]
  7829                           
  7830                           
  7831                           ;./LCD2.h: 48:  com(0);
  7832  13AA  3000               	movlw	0
  7833  13AB  160A  118A  23E8  160A  118A  	fcall	_com
  7834                           
  7835                           ;./LCD2.h: 49:  com(1);
  7836  13B0  3001               	movlw	1
  7837  13B1  160A  118A  23E8  160A  118A  	fcall	_com
  7838  13B6                     l91:	
  7839  13B6  0008               	return
  7840  13B7                     __end_of_lcd_clear:	
  7841                           
  7842                           	psect	text27
  7843  14B6                     __ptext27:	
  7844 ;; *************** function _cur *****************
  7845 ;; Defined at:
  7846 ;;		line 51 in file "./LCD2.h"
  7847 ;; Parameters:    Size  Location     Type
  7848 ;;  a               1    wreg     unsigned char 
  7849 ;;  b               1    2[COMMON] unsigned char 
  7850 ;; Auto vars:     Size  Location     Type
  7851 ;;  a               1    5[COMMON] unsigned char 
  7852 ;;  tiempo          1    6[COMMON] unsigned char 
  7853 ;; Return value:  Size  Location     Type
  7854 ;;                  1    wreg      void 
  7855 ;; Registers used:
  7856 ;;		wreg, status,2, status,0, pclath, cstack
  7857 ;; Tracked objects:
  7858 ;;		On entry : 0/0
  7859 ;;		On exit  : 0/0
  7860 ;;		Unchanged: 0/0
  7861 ;; Data sizes:     COMMON   BANK0   BANK1   BANK3   BANK2
  7862 ;;      Params:         1       0       0       0       0
  7863 ;;      Locals:         2       0       0       0       0
  7864 ;;      Temps:          2       0       0       0       0
  7865 ;;      Totals:         5       0       0       0       0
  7866 ;;Total ram usage:        5 bytes
  7867 ;; Hardware stack levels used:    1
  7868 ;; Hardware stack levels required when called:    2
  7869 ;; This function calls:
  7870 ;;		_com
  7871 ;; This function is called by:
  7872 ;;		_main
  7873 ;; This function uses a non-reentrant model
  7874 ;;
  7875                           
  7876                           
  7877                           ;psect for function _cur
  7878  14B6                     _cur:	
  7879                           
  7880                           ;incstack = 0
  7881                           ; Regs used in _cur: [wreg+status,2+status,0+pclath+cstack]
  7882                           ;cur@a stored from wreg
  7883  14B6  00F5               	movwf	cur@a
  7884  14B7                     l2976:	
  7885                           
  7886                           ;./LCD2.h: 52:  char tiempo;;./LCD2.h: 53:  if(a == 1)
  7887  14B7  0375               	decf	cur@a,w
  7888  14B8  1D03               	btfss	3,2
  7889  14B9  2CBB               	goto	u3531
  7890  14BA  2CBC               	goto	u3530
  7891  14BB                     u3531:	
  7892  14BB  2CC8               	goto	l2982
  7893  14BC                     u3530:	
  7894  14BC                     l2978:	
  7895                           
  7896                           ;./LCD2.h: 54:  {;./LCD2.h: 55:    tiempo = 0x80 + b - 1;
  7897  14BC  0872               	movf	cur@b,w
  7898  14BD  3E7F               	addlw	127
  7899  14BE  00F3               	movwf	??_cur
  7900  14BF  0873               	movf	??_cur,w
  7901  14C0  00F6               	movwf	cur@tiempo
  7902  14C1                     l2980:	
  7903                           
  7904                           ;./LCD2.h: 56:       com(tiempo);
  7905  14C1  0876               	movf	cur@tiempo,w
  7906  14C2  160A  118A  23E8  160A  118A  	fcall	_com
  7907                           
  7908                           ;./LCD2.h: 57:  }
  7909  14C7  2CD9               	goto	l2988
  7910  14C8                     l2982:	
  7911  14C8  3002               	movlw	2
  7912  14C9  0675               	xorwf	cur@a,w
  7913  14CA  1D03               	btfss	3,2
  7914  14CB  2CCD               	goto	u3541
  7915  14CC  2CCE               	goto	u3540
  7916  14CD                     u3541:	
  7917  14CD  2CD9               	goto	l2988
  7918  14CE                     u3540:	
  7919  14CE                     l2984:	
  7920                           
  7921                           ;./LCD2.h: 59:  {;./LCD2.h: 60:   tiempo = 0xC0 + b - 1;
  7922  14CE  0872               	movf	cur@b,w
  7923  14CF  3EBF               	addlw	191
  7924  14D0  00F3               	movwf	??_cur
  7925  14D1  0873               	movf	??_cur,w
  7926  14D2  00F6               	movwf	cur@tiempo
  7927  14D3                     l2986:	
  7928                           
  7929                           ;./LCD2.h: 62:         com(tiempo);
  7930  14D3  0876               	movf	cur@tiempo,w
  7931  14D4  160A  118A  23E8  160A  118A  	fcall	_com
  7932  14D9                     l2988:	
  7933                           
  7934                           ;./LCD2.h: 64:     _delay((unsigned long)((4)*(4000000/4000.0)));
  7935  14D9  3006               	movlw	6
  7936  14DA  00F4               	movwf	??_cur+1
  7937  14DB  3030               	movlw	48
  7938  14DC  00F3               	movwf	??_cur
  7939  14DD                     u5367:	
  7940  14DD  0BF3               	decfsz	??_cur,f
  7941  14DE  2CDD               	goto	u5367
  7942  14DF  0BF4               	decfsz	??_cur+1,f
  7943  14E0  2CDD               	goto	u5367
  7944  14E1  0000               	nop
  7945  14E2                     l97:	
  7946  14E2  0008               	return
  7947  14E3                     __end_of_cur:	
  7948                           
  7949                           	psect	text28
  7950  13E8                     __ptext28:	
  7951 ;; *************** function _com *****************
  7952 ;; Defined at:
  7953 ;;		line 39 in file "./LCD2.h"
  7954 ;; Parameters:    Size  Location     Type
  7955 ;;  E               1    wreg     unsigned char 
  7956 ;; Auto vars:     Size  Location     Type
  7957 ;;  E               1    1[COMMON] unsigned char 
  7958 ;; Return value:  Size  Location     Type
  7959 ;;                  1    wreg      void 
  7960 ;; Registers used:
  7961 ;;		wreg, status,2, status,0, pclath, cstack
  7962 ;; Tracked objects:
  7963 ;;		On entry : 0/0
  7964 ;;		On exit  : 0/0
  7965 ;;		Unchanged: 0/0
  7966 ;; Data sizes:     COMMON   BANK0   BANK1   BANK3   BANK2
  7967 ;;      Params:         0       0       0       0       0
  7968 ;;      Locals:         1       0       0       0       0
  7969 ;;      Temps:          0       0       0       0       0
  7970 ;;      Totals:         1       0       0       0       0
  7971 ;;Total ram usage:        1 bytes
  7972 ;; Hardware stack levels used:    1
  7973 ;; Hardware stack levels required when called:    1
  7974 ;; This function calls:
  7975 ;;		_port
  7976 ;; This function is called by:
  7977 ;;		_lcd_clear
  7978 ;;		_cur
  7979 ;;		_lcd_init
  7980 ;;		_Lcd_Shift_Right
  7981 ;;		_Lcd_Shift_Left
  7982 ;; This function uses a non-reentrant model
  7983 ;;
  7984                           
  7985                           
  7986                           ;psect for function _com
  7987  13E8                     _com:	
  7988                           
  7989                           ;incstack = 0
  7990                           ; Regs used in _com: [wreg+status,2+status,0+pclath+cstack]
  7991                           ;com@E stored from wreg
  7992  13E8  00F1               	movwf	com@E
  7993  13E9                     l2388:	
  7994                           
  7995                           ;./LCD2.h: 40:     PORTDbits.RD0 = 0;
  7996  13E9  1283               	bcf	3,5	;RP0=0, select bank0
  7997  13EA  1303               	bcf	3,6	;RP1=0, select bank0
  7998  13EB  1008               	bcf	8,0	;volatile
  7999  13EC                     l2390:	
  8000                           
  8001                           ;./LCD2.h: 41:     port(E);
  8002  13EC  0871               	movf	com@E,w
  8003  13ED  160A  118A  236C  160A  118A  	fcall	_port
  8004  13F2                     l2392:	
  8005                           
  8006                           ;./LCD2.h: 42:     PORTDbits.RD2 = 1;
  8007  13F2  1283               	bcf	3,5	;RP0=0, select bank0
  8008  13F3  1303               	bcf	3,6	;RP1=0, select bank0
  8009  13F4  1508               	bsf	8,2	;volatile
  8010  13F5                     l2394:	
  8011                           
  8012                           ;./LCD2.h: 43:     _delay((unsigned long)((5)*(4000000/4000000.0)));
  8013  13F5  2BF6               	nop2	;2 cycle nop
  8014  13F6  2BF7               	nop2	;2 cycle nop
  8015  13F7  0000               	nop
  8016  13F8                     l2396:	
  8017                           
  8018                           ;./LCD2.h: 44:     PORTDbits.RD2 = 0;
  8019  13F8  1283               	bcf	3,5	;RP0=0, select bank0
  8020  13F9  1303               	bcf	3,6	;RP1=0, select bank0
  8021  13FA  1108               	bcf	8,2	;volatile
  8022  13FB                     l88:	
  8023  13FB  0008               	return
  8024  13FC                     __end_of_com:	
  8025                           
  8026                           	psect	text29
  8027  136C                     __ptext29:	
  8028 ;; *************** function _port *****************
  8029 ;; Defined at:
  8030 ;;		line 35 in file "./LCD2.h"
  8031 ;; Parameters:    Size  Location     Type
  8032 ;;  E               1    wreg     unsigned char 
  8033 ;; Auto vars:     Size  Location     Type
  8034 ;;  E               1    0[COMMON] unsigned char 
  8035 ;; Return value:  Size  Location     Type
  8036 ;;                  1    wreg      void 
  8037 ;; Registers used:
  8038 ;;		wreg
  8039 ;; Tracked objects:
  8040 ;;		On entry : 0/0
  8041 ;;		On exit  : 0/0
  8042 ;;		Unchanged: 0/0
  8043 ;; Data sizes:     COMMON   BANK0   BANK1   BANK3   BANK2
  8044 ;;      Params:         0       0       0       0       0
  8045 ;;      Locals:         1       0       0       0       0
  8046 ;;      Temps:          0       0       0       0       0
  8047 ;;      Totals:         1       0       0       0       0
  8048 ;;Total ram usage:        1 bytes
  8049 ;; Hardware stack levels used:    1
  8050 ;; This function calls:
  8051 ;;		Nothing
  8052 ;; This function is called by:
  8053 ;;		_com
  8054 ;;		_letra
  8055 ;; This function uses a non-reentrant model
  8056 ;;
  8057                           
  8058                           
  8059                           ;psect for function _port
  8060  136C                     _port:	
  8061                           
  8062                           ;incstack = 0
  8063                           ; Regs used in _port: [wreg]
  8064                           ;port@E stored from wreg
  8065  136C  00F0               	movwf	port@E
  8066  136D                     l2244:	
  8067                           
  8068                           ;./LCD2.h: 36:     PORTA = E;
  8069  136D  0870               	movf	port@E,w
  8070  136E  1283               	bcf	3,5	;RP0=0, select bank0
  8071  136F  1303               	bcf	3,6	;RP1=0, select bank0
  8072  1370  0085               	movwf	5	;volatile
  8073  1371                     l85:	
  8074  1371  0008               	return
  8075  1372                     __end_of_port:	
  8076                           
  8077                           	psect	text30
  8078  13C4                     __ptext30:	
  8079 ;; *************** function _abs *****************
  8080 ;; Defined at:
  8081 ;;		line 4 in file "C:\Program Files (x86)\Microchip\xc8\v2.10\pic\sources\c90\common\abs.c"
  8082 ;; Parameters:    Size  Location     Type
  8083 ;;  a               2    0[COMMON] int 
  8084 ;; Auto vars:     Size  Location     Type
  8085 ;;		None
  8086 ;; Return value:  Size  Location     Type
  8087 ;;                  2    0[COMMON] int 
  8088 ;; Registers used:
  8089 ;;		wreg, status,2, status,0
  8090 ;; Tracked objects:
  8091 ;;		On entry : 0/0
  8092 ;;		On exit  : 0/0
  8093 ;;		Unchanged: 0/0
  8094 ;; Data sizes:     COMMON   BANK0   BANK1   BANK3   BANK2
  8095 ;;      Params:         2       0       0       0       0
  8096 ;;      Locals:         0       0       0       0       0
  8097 ;;      Temps:          2       0       0       0       0
  8098 ;;      Totals:         4       0       0       0       0
  8099 ;;Total ram usage:        4 bytes
  8100 ;; Hardware stack levels used:    1
  8101 ;; This function calls:
  8102 ;;		Nothing
  8103 ;; This function is called by:
  8104 ;;		_main
  8105 ;; This function uses a non-reentrant model
  8106 ;;
  8107                           
  8108                           
  8109                           ;psect for function _abs
  8110  13C4                     _abs:	
  8111  13C4                     l3134:	
  8112                           ;incstack = 0
  8113                           ; Regs used in _abs: [wreg+status,2+status,0]
  8114                           
  8115  13C4  1FF1               	btfss	abs@a+1,7
  8116  13C5  2BC7               	goto	u3631
  8117  13C6  2BC8               	goto	u3630
  8118  13C7                     u3631:	
  8119  13C7  2BD4               	goto	l853
  8120  13C8                     u3630:	
  8121  13C8                     l3136:	
  8122  13C8  0970               	comf	abs@a,w
  8123  13C9  00F2               	movwf	??_abs
  8124  13CA  0971               	comf	abs@a+1,w
  8125  13CB  00F3               	movwf	??_abs+1
  8126  13CC  0AF2               	incf	??_abs,f
  8127  13CD  1903               	skipnz
  8128  13CE  0AF3               	incf	??_abs+1,f
  8129  13CF  0872               	movf	??_abs,w
  8130  13D0  00F0               	movwf	?_abs
  8131  13D1  0873               	movf	??_abs+1,w
  8132  13D2  00F1               	movwf	?_abs+1
  8133  13D3  2BD4               	goto	l854
  8134  13D4                     l853:	
  8135  13D4                     l854:	
  8136  13D4  0008               	return
  8137  13D5                     __end_of_abs:	
  8138                           
  8139                           	psect	text31
  8140  0817                     __ptext31:	
  8141 ;; *************** function _Binary2BCD *****************
  8142 ;; Defined at:
  8143 ;;		line 87 in file "MasterPapu.c"
  8144 ;; Parameters:    Size  Location     Type
  8145 ;;  a               2    8[BANK0 ] int 
  8146 ;; Auto vars:     Size  Location     Type
  8147 ;;  t2              2   14[BANK0 ] int 
  8148 ;;  t1              2   12[BANK0 ] int 
  8149 ;; Return value:  Size  Location     Type
  8150 ;;                  2    8[BANK0 ] int 
  8151 ;; Registers used:
  8152 ;;		wreg, status,2, status,0, pclath, cstack
  8153 ;; Tracked objects:
  8154 ;;		On entry : 0/0
  8155 ;;		On exit  : 0/0
  8156 ;;		Unchanged: 0/0
  8157 ;; Data sizes:     COMMON   BANK0   BANK1   BANK3   BANK2
  8158 ;;      Params:         0       2       0       0       0
  8159 ;;      Locals:         0       4       0       0       0
  8160 ;;      Temps:          0       2       0       0       0
  8161 ;;      Totals:         0       8       0       0       0
  8162 ;;Total ram usage:        8 bytes
  8163 ;; Hardware stack levels used:    1
  8164 ;; Hardware stack levels required when called:    1
  8165 ;; This function calls:
  8166 ;;		___awdiv
  8167 ;;		___awmod
  8168 ;; This function is called by:
  8169 ;;		_main
  8170 ;; This function uses a non-reentrant model
  8171 ;;
  8172                           
  8173                           
  8174                           ;psect for function _Binary2BCD
  8175  0817                     _Binary2BCD:	
  8176  0817                     l3064:	
  8177                           ;incstack = 0
  8178                           ; Regs used in _Binary2BCD: [wreg+status,2+status,0+pclath+cstack]
  8179                           
  8180                           
  8181                           ;MasterPapu.c: 87: int Binary2BCD(int a);MasterPapu.c: 88: {;MasterPapu.c: 89:   int t1,
      +                           t2;;MasterPapu.c: 90:   t1 = a%10;
  8182  0817  300A               	movlw	10
  8183  0818  1283               	bcf	3,5	;RP0=0, select bank0
  8184  0819  1303               	bcf	3,6	;RP1=0, select bank0
  8185  081A  00A4               	movwf	___awmod@divisor
  8186  081B  3000               	movlw	0
  8187  081C  00A5               	movwf	___awmod@divisor+1
  8188  081D  0829               	movf	Binary2BCD@a+1,w
  8189  081E  00A7               	movwf	___awmod@dividend+1
  8190  081F  0828               	movf	Binary2BCD@a,w
  8191  0820  00A6               	movwf	___awmod@dividend
  8192  0821  160A  118A  26D6  120A  158A  	fcall	___awmod
  8193  0826  1283               	bcf	3,5	;RP0=0, select bank0
  8194  0827  1303               	bcf	3,6	;RP1=0, select bank0
  8195  0828  0825               	movf	?___awmod+1,w
  8196  0829  00AD               	movwf	Binary2BCD@t1+1
  8197  082A  0824               	movf	?___awmod,w
  8198  082B  00AC               	movwf	Binary2BCD@t1
  8199  082C                     l3066:	
  8200                           
  8201                           ;MasterPapu.c: 91:   t1 = t1 & 0x0F;
  8202  082C  300F               	movlw	15
  8203  082D  052C               	andwf	Binary2BCD@t1,w
  8204  082E  00AC               	movwf	Binary2BCD@t1
  8205  082F  3000               	movlw	0
  8206  0830  052D               	andwf	Binary2BCD@t1+1,w
  8207  0831  00AD               	movwf	Binary2BCD@t1+1
  8208  0832                     l3068:	
  8209                           
  8210                           ;MasterPapu.c: 92:   a = a/10;
  8211  0832  300A               	movlw	10
  8212  0833  00F6               	movwf	___awdiv@divisor
  8213  0834  3000               	movlw	0
  8214  0835  00F7               	movwf	___awdiv@divisor+1
  8215  0836  0829               	movf	Binary2BCD@a+1,w
  8216  0837  00F9               	movwf	___awdiv@dividend+1
  8217  0838  0828               	movf	Binary2BCD@a,w
  8218  0839  00F8               	movwf	___awdiv@dividend
  8219  083A  160A  118A  2797  120A  158A  	fcall	___awdiv
  8220  083F  0877               	movf	?___awdiv+1,w
  8221  0840  1283               	bcf	3,5	;RP0=0, select bank0
  8222  0841  1303               	bcf	3,6	;RP1=0, select bank0
  8223  0842  00A9               	movwf	Binary2BCD@a+1
  8224  0843  0876               	movf	?___awdiv,w
  8225  0844  00A8               	movwf	Binary2BCD@a
  8226  0845                     l3070:	
  8227                           
  8228                           ;MasterPapu.c: 93:   t2 = a%10;
  8229  0845  300A               	movlw	10
  8230  0846  00A4               	movwf	___awmod@divisor
  8231  0847  3000               	movlw	0
  8232  0848  00A5               	movwf	___awmod@divisor+1
  8233  0849  0829               	movf	Binary2BCD@a+1,w
  8234  084A  00A7               	movwf	___awmod@dividend+1
  8235  084B  0828               	movf	Binary2BCD@a,w
  8236  084C  00A6               	movwf	___awmod@dividend
  8237  084D  160A  118A  26D6  120A  158A  	fcall	___awmod
  8238  0852  1283               	bcf	3,5	;RP0=0, select bank0
  8239  0853  1303               	bcf	3,6	;RP1=0, select bank0
  8240  0854  0825               	movf	?___awmod+1,w
  8241  0855  00AF               	movwf	Binary2BCD@t2+1
  8242  0856  0824               	movf	?___awmod,w
  8243  0857  00AE               	movwf	Binary2BCD@t2
  8244  0858                     l3072:	
  8245                           
  8246                           ;MasterPapu.c: 94:   t2 = 0x0F & t2;
  8247  0858  300F               	movlw	15
  8248  0859  052E               	andwf	Binary2BCD@t2,w
  8249  085A  00AE               	movwf	Binary2BCD@t2
  8250  085B  3000               	movlw	0
  8251  085C  052F               	andwf	Binary2BCD@t2+1,w
  8252  085D  00AF               	movwf	Binary2BCD@t2+1
  8253  085E                     l3074:	
  8254                           
  8255                           ;MasterPapu.c: 95:   t2 = t2 << 4;
  8256  085E  082F               	movf	Binary2BCD@t2+1,w
  8257  085F  00AB               	movwf	??_Binary2BCD+1
  8258  0860  082E               	movf	Binary2BCD@t2,w
  8259  0861  00AA               	movwf	??_Binary2BCD
  8260  0862  0EAA               	swapf	??_Binary2BCD,f
  8261  0863  0EAB               	swapf	??_Binary2BCD+1,f
  8262  0864  30F0               	movlw	240
  8263  0865  05AB               	andwf	??_Binary2BCD+1,f
  8264  0866  082A               	movf	??_Binary2BCD,w
  8265  0867  390F               	andlw	15
  8266  0868  04AB               	iorwf	??_Binary2BCD+1,f
  8267  0869  30F0               	movlw	240
  8268  086A  05AA               	andwf	??_Binary2BCD,f
  8269  086B  082A               	movf	??_Binary2BCD,w
  8270  086C  00AE               	movwf	Binary2BCD@t2
  8271  086D  082B               	movf	??_Binary2BCD+1,w
  8272  086E  00AF               	movwf	Binary2BCD@t2+1
  8273  086F                     l3076:	
  8274                           
  8275                           ;MasterPapu.c: 96:   t2 = 0xF0 & t2;
  8276  086F  30F0               	movlw	240
  8277  0870  052E               	andwf	Binary2BCD@t2,w
  8278  0871  00AE               	movwf	Binary2BCD@t2
  8279  0872  3000               	movlw	0
  8280  0873  052F               	andwf	Binary2BCD@t2+1,w
  8281  0874  00AF               	movwf	Binary2BCD@t2+1
  8282  0875                     l3078:	
  8283                           
  8284                           ;MasterPapu.c: 97:   t1 = t1 | t2;
  8285  0875  082E               	movf	Binary2BCD@t2,w
  8286  0876  042C               	iorwf	Binary2BCD@t1,w
  8287  0877  00AC               	movwf	Binary2BCD@t1
  8288  0878  082F               	movf	Binary2BCD@t2+1,w
  8289  0879  042D               	iorwf	Binary2BCD@t1+1,w
  8290  087A  00AD               	movwf	Binary2BCD@t1+1
  8291  087B                     l3080:	
  8292                           
  8293                           ;MasterPapu.c: 98:   return t1;
  8294  087B  082D               	movf	Binary2BCD@t1+1,w
  8295  087C  00A9               	movwf	?_Binary2BCD+1
  8296  087D  082C               	movf	Binary2BCD@t1,w
  8297  087E  00A8               	movwf	?_Binary2BCD
  8298  087F                     l164:	
  8299  087F  0008               	return
  8300  0880                     __end_of_Binary2BCD:	
  8301                           
  8302                           	psect	text32
  8303  16D6                     __ptext32:	
  8304 ;; *************** function ___awmod *****************
  8305 ;; Defined at:
  8306 ;;		line 5 in file "C:\Program Files (x86)\Microchip\xc8\v2.10\pic\sources\c90\common\awmod.c"
  8307 ;; Parameters:    Size  Location     Type
  8308 ;;  divisor         2    4[BANK0 ] int 
  8309 ;;  dividend        2    6[BANK0 ] int 
  8310 ;; Auto vars:     Size  Location     Type
  8311 ;;  sign            1   13[COMMON] unsigned char 
  8312 ;;  counter         1   12[COMMON] unsigned char 
  8313 ;; Return value:  Size  Location     Type
  8314 ;;                  2    4[BANK0 ] int 
  8315 ;; Registers used:
  8316 ;;		wreg, status,2, status,0
  8317 ;; Tracked objects:
  8318 ;;		On entry : 0/0
  8319 ;;		On exit  : 0/0
  8320 ;;		Unchanged: 0/0
  8321 ;; Data sizes:     COMMON   BANK0   BANK1   BANK3   BANK2
  8322 ;;      Params:         0       4       0       0       0
  8323 ;;      Locals:         2       0       0       0       0
  8324 ;;      Temps:          1       0       0       0       0
  8325 ;;      Totals:         3       4       0       0       0
  8326 ;;Total ram usage:        7 bytes
  8327 ;; Hardware stack levels used:    1
  8328 ;; This function calls:
  8329 ;;		Nothing
  8330 ;; This function is called by:
  8331 ;;		_Binary2BCD
  8332 ;;		_main
  8333 ;;		_Dtr
  8334 ;; This function uses a non-reentrant model
  8335 ;;
  8336                           
  8337                           
  8338                           ;psect for function ___awmod
  8339  16D6                     ___awmod:	
  8340  16D6                     l2534:	
  8341                           ;incstack = 0
  8342                           ; Regs used in ___awmod: [wreg+status,2+status,0]
  8343                           
  8344  16D6  01FD               	clrf	___awmod@sign
  8345  16D7                     l2536:	
  8346  16D7  1283               	bcf	3,5	;RP0=0, select bank0
  8347  16D8  1303               	bcf	3,6	;RP1=0, select bank0
  8348  16D9  1FA7               	btfss	___awmod@dividend+1,7
  8349  16DA  2EDC               	goto	u2461
  8350  16DB  2EDD               	goto	u2460
  8351  16DC                     u2461:	
  8352  16DC  2EE4               	goto	l2542
  8353  16DD                     u2460:	
  8354  16DD                     l2538:	
  8355  16DD  09A6               	comf	___awmod@dividend,f
  8356  16DE  09A7               	comf	___awmod@dividend+1,f
  8357  16DF  0AA6               	incf	___awmod@dividend,f
  8358  16E0  1903               	skipnz
  8359  16E1  0AA7               	incf	___awmod@dividend+1,f
  8360  16E2                     l2540:	
  8361  16E2  01FD               	clrf	___awmod@sign
  8362  16E3  0AFD               	incf	___awmod@sign,f
  8363  16E4                     l2542:	
  8364  16E4  1FA5               	btfss	___awmod@divisor+1,7
  8365  16E5  2EE7               	goto	u2471
  8366  16E6  2EE8               	goto	u2470
  8367  16E7                     u2471:	
  8368  16E7  2EED               	goto	l2546
  8369  16E8                     u2470:	
  8370  16E8                     l2544:	
  8371  16E8  09A4               	comf	___awmod@divisor,f
  8372  16E9  09A5               	comf	___awmod@divisor+1,f
  8373  16EA  0AA4               	incf	___awmod@divisor,f
  8374  16EB  1903               	skipnz
  8375  16EC  0AA5               	incf	___awmod@divisor+1,f
  8376  16ED                     l2546:	
  8377  16ED  0824               	movf	___awmod@divisor,w
  8378  16EE  0425               	iorwf	___awmod@divisor+1,w
  8379  16EF  1903               	btfsc	3,2
  8380  16F0  2EF2               	goto	u2481
  8381  16F1  2EF3               	goto	u2480
  8382  16F2                     u2481:	
  8383  16F2  2F22               	goto	l2564
  8384  16F3                     u2480:	
  8385  16F3                     l2548:	
  8386  16F3  01FC               	clrf	___awmod@counter
  8387  16F4  0AFC               	incf	___awmod@counter,f
  8388  16F5  2F01               	goto	l2554
  8389  16F6                     l2550:	
  8390  16F6  3001               	movlw	1
  8391  16F7                     u2495:	
  8392  16F7  1003               	clrc
  8393  16F8  0DA4               	rlf	___awmod@divisor,f
  8394  16F9  0DA5               	rlf	___awmod@divisor+1,f
  8395  16FA  3EFF               	addlw	-1
  8396  16FB  1D03               	skipz
  8397  16FC  2EF7               	goto	u2495
  8398  16FD                     l2552:	
  8399  16FD  3001               	movlw	1
  8400  16FE  00FB               	movwf	??___awmod
  8401  16FF  087B               	movf	??___awmod,w
  8402  1700  07FC               	addwf	___awmod@counter,f
  8403  1701                     l2554:	
  8404  1701  1FA5               	btfss	___awmod@divisor+1,7
  8405  1702  2F04               	goto	u2501
  8406  1703  2F05               	goto	u2500
  8407  1704                     u2501:	
  8408  1704  2EF6               	goto	l2550
  8409  1705                     u2500:	
  8410  1705                     l2556:	
  8411  1705  0825               	movf	___awmod@divisor+1,w
  8412  1706  0227               	subwf	___awmod@dividend+1,w
  8413  1707  1D03               	skipz
  8414  1708  2F0B               	goto	u2515
  8415  1709  0824               	movf	___awmod@divisor,w
  8416  170A  0226               	subwf	___awmod@dividend,w
  8417  170B                     u2515:	
  8418  170B  1C03               	skipc
  8419  170C  2F0E               	goto	u2511
  8420  170D  2F0F               	goto	u2510
  8421  170E                     u2511:	
  8422  170E  2F15               	goto	l2560
  8423  170F                     u2510:	
  8424  170F                     l2558:	
  8425  170F  0824               	movf	___awmod@divisor,w
  8426  1710  02A6               	subwf	___awmod@dividend,f
  8427  1711  0825               	movf	___awmod@divisor+1,w
  8428  1712  1C03               	skipc
  8429  1713  03A7               	decf	___awmod@dividend+1,f
  8430  1714  02A7               	subwf	___awmod@dividend+1,f
  8431  1715                     l2560:	
  8432  1715  3001               	movlw	1
  8433  1716                     u2525:	
  8434  1716  1003               	clrc
  8435  1717  0CA5               	rrf	___awmod@divisor+1,f
  8436  1718  0CA4               	rrf	___awmod@divisor,f
  8437  1719  3EFF               	addlw	-1
  8438  171A  1D03               	skipz
  8439  171B  2F16               	goto	u2525
  8440  171C                     l2562:	
  8441  171C  3001               	movlw	1
  8442  171D  02FC               	subwf	___awmod@counter,f
  8443  171E  1D03               	btfss	3,2
  8444  171F  2F21               	goto	u2531
  8445  1720  2F22               	goto	u2530
  8446  1721                     u2531:	
  8447  1721  2F05               	goto	l2556
  8448  1722                     u2530:	
  8449  1722                     l2564:	
  8450  1722  087D               	movf	___awmod@sign,w
  8451  1723  1903               	btfsc	3,2
  8452  1724  2F26               	goto	u2541
  8453  1725  2F27               	goto	u2540
  8454  1726                     u2541:	
  8455  1726  2F2C               	goto	l2568
  8456  1727                     u2540:	
  8457  1727                     l2566:	
  8458  1727  09A6               	comf	___awmod@dividend,f
  8459  1728  09A7               	comf	___awmod@dividend+1,f
  8460  1729  0AA6               	incf	___awmod@dividend,f
  8461  172A  1903               	skipnz
  8462  172B  0AA7               	incf	___awmod@dividend+1,f
  8463  172C                     l2568:	
  8464  172C  0827               	movf	___awmod@dividend+1,w
  8465  172D  00A5               	movwf	?___awmod+1
  8466  172E  0826               	movf	___awmod@dividend,w
  8467  172F  00A4               	movwf	?___awmod
  8468  1730                     l574:	
  8469  1730  0008               	return
  8470  1731                     __end_of___awmod:	
  8471                           
  8472                           	psect	text33
  8473  1797                     __ptext33:	
  8474 ;; *************** function ___awdiv *****************
  8475 ;; Defined at:
  8476 ;;		line 5 in file "C:\Program Files (x86)\Microchip\xc8\v2.10\pic\sources\c90\common\awdiv.c"
  8477 ;; Parameters:    Size  Location     Type
  8478 ;;  divisor         2    6[COMMON] int 
  8479 ;;  dividend        2    8[COMMON] int 
  8480 ;; Auto vars:     Size  Location     Type
  8481 ;;  quotient        2    2[BANK0 ] int 
  8482 ;;  sign            1    1[BANK0 ] unsigned char 
  8483 ;;  counter         1    0[BANK0 ] unsigned char 
  8484 ;; Return value:  Size  Location     Type
  8485 ;;                  2    6[COMMON] int 
  8486 ;; Registers used:
  8487 ;;		wreg, status,2, status,0
  8488 ;; Tracked objects:
  8489 ;;		On entry : 0/0
  8490 ;;		On exit  : 0/0
  8491 ;;		Unchanged: 0/0
  8492 ;; Data sizes:     COMMON   BANK0   BANK1   BANK3   BANK2
  8493 ;;      Params:         4       0       0       0       0
  8494 ;;      Locals:         0       4       0       0       0
  8495 ;;      Temps:          1       0       0       0       0
  8496 ;;      Totals:         5       4       0       0       0
  8497 ;;Total ram usage:        9 bytes
  8498 ;; Hardware stack levels used:    1
  8499 ;; This function calls:
  8500 ;;		Nothing
  8501 ;; This function is called by:
  8502 ;;		_Binary2BCD
  8503 ;;		_main
  8504 ;;		_Dtr
  8505 ;; This function uses a non-reentrant model
  8506 ;;
  8507                           
  8508                           
  8509                           ;psect for function ___awdiv
  8510  1797                     ___awdiv:	
  8511  1797                     l2490:	
  8512                           ;incstack = 0
  8513                           ; Regs used in ___awdiv: [wreg+status,2+status,0]
  8514                           
  8515  1797  1283               	bcf	3,5	;RP0=0, select bank0
  8516  1798  1303               	bcf	3,6	;RP1=0, select bank0
  8517  1799  01A1               	clrf	___awdiv@sign
  8518  179A                     l2492:	
  8519  179A  1FF7               	btfss	___awdiv@divisor+1,7
  8520  179B  2F9D               	goto	u2361
  8521  179C  2F9E               	goto	u2360
  8522  179D                     u2361:	
  8523  179D  2FA5               	goto	l2498
  8524  179E                     u2360:	
  8525  179E                     l2494:	
  8526  179E  09F6               	comf	___awdiv@divisor,f
  8527  179F  09F7               	comf	___awdiv@divisor+1,f
  8528  17A0  0AF6               	incf	___awdiv@divisor,f
  8529  17A1  1903               	skipnz
  8530  17A2  0AF7               	incf	___awdiv@divisor+1,f
  8531  17A3                     l2496:	
  8532  17A3  01A1               	clrf	___awdiv@sign
  8533  17A4  0AA1               	incf	___awdiv@sign,f
  8534  17A5                     l2498:	
  8535  17A5  1FF9               	btfss	___awdiv@dividend+1,7
  8536  17A6  2FA8               	goto	u2371
  8537  17A7  2FA9               	goto	u2370
  8538  17A8                     u2371:	
  8539  17A8  2FB2               	goto	l2504
  8540  17A9                     u2370:	
  8541  17A9                     l2500:	
  8542  17A9  09F8               	comf	___awdiv@dividend,f
  8543  17AA  09F9               	comf	___awdiv@dividend+1,f
  8544  17AB  0AF8               	incf	___awdiv@dividend,f
  8545  17AC  1903               	skipnz
  8546  17AD  0AF9               	incf	___awdiv@dividend+1,f
  8547  17AE                     l2502:	
  8548  17AE  3001               	movlw	1
  8549  17AF  00FA               	movwf	??___awdiv
  8550  17B0  087A               	movf	??___awdiv,w
  8551  17B1  06A1               	xorwf	___awdiv@sign,f
  8552  17B2                     l2504:	
  8553  17B2  01A2               	clrf	___awdiv@quotient
  8554  17B3  01A3               	clrf	___awdiv@quotient+1
  8555  17B4                     l2506:	
  8556  17B4  0876               	movf	___awdiv@divisor,w
  8557  17B5  0477               	iorwf	___awdiv@divisor+1,w
  8558  17B6  1903               	btfsc	3,2
  8559  17B7  2FB9               	goto	u2381
  8560  17B8  2FBA               	goto	u2380
  8561  17B9                     u2381:	
  8562  17B9  2FF1               	goto	l2526
  8563  17BA                     u2380:	
  8564  17BA                     l2508:	
  8565  17BA  01A0               	clrf	___awdiv@counter
  8566  17BB  0AA0               	incf	___awdiv@counter,f
  8567  17BC  2FC8               	goto	l2514
  8568  17BD                     l2510:	
  8569  17BD  3001               	movlw	1
  8570  17BE                     u2395:	
  8571  17BE  1003               	clrc
  8572  17BF  0DF6               	rlf	___awdiv@divisor,f
  8573  17C0  0DF7               	rlf	___awdiv@divisor+1,f
  8574  17C1  3EFF               	addlw	-1
  8575  17C2  1D03               	skipz
  8576  17C3  2FBE               	goto	u2395
  8577  17C4                     l2512:	
  8578  17C4  3001               	movlw	1
  8579  17C5  00FA               	movwf	??___awdiv
  8580  17C6  087A               	movf	??___awdiv,w
  8581  17C7  07A0               	addwf	___awdiv@counter,f
  8582  17C8                     l2514:	
  8583  17C8  1FF7               	btfss	___awdiv@divisor+1,7
  8584  17C9  2FCB               	goto	u2401
  8585  17CA  2FCC               	goto	u2400
  8586  17CB                     u2401:	
  8587  17CB  2FBD               	goto	l2510
  8588  17CC                     u2400:	
  8589  17CC                     l2516:	
  8590  17CC  3001               	movlw	1
  8591  17CD                     u2415:	
  8592  17CD  1003               	clrc
  8593  17CE  0DA2               	rlf	___awdiv@quotient,f
  8594  17CF  0DA3               	rlf	___awdiv@quotient+1,f
  8595  17D0  3EFF               	addlw	-1
  8596  17D1  1D03               	skipz
  8597  17D2  2FCD               	goto	u2415
  8598  17D3  0877               	movf	___awdiv@divisor+1,w
  8599  17D4  0279               	subwf	___awdiv@dividend+1,w
  8600  17D5  1D03               	skipz
  8601  17D6  2FD9               	goto	u2425
  8602  17D7  0876               	movf	___awdiv@divisor,w
  8603  17D8  0278               	subwf	___awdiv@dividend,w
  8604  17D9                     u2425:	
  8605  17D9  1C03               	skipc
  8606  17DA  2FDC               	goto	u2421
  8607  17DB  2FDD               	goto	u2420
  8608  17DC                     u2421:	
  8609  17DC  2FE4               	goto	l2522
  8610  17DD                     u2420:	
  8611  17DD                     l2518:	
  8612  17DD  0876               	movf	___awdiv@divisor,w
  8613  17DE  02F8               	subwf	___awdiv@dividend,f
  8614  17DF  0877               	movf	___awdiv@divisor+1,w
  8615  17E0  1C03               	skipc
  8616  17E1  03F9               	decf	___awdiv@dividend+1,f
  8617  17E2  02F9               	subwf	___awdiv@dividend+1,f
  8618  17E3                     l2520:	
  8619  17E3  1422               	bsf	___awdiv@quotient,0
  8620  17E4                     l2522:	
  8621  17E4  3001               	movlw	1
  8622  17E5                     u2435:	
  8623  17E5  1003               	clrc
  8624  17E6  0CF7               	rrf	___awdiv@divisor+1,f
  8625  17E7  0CF6               	rrf	___awdiv@divisor,f
  8626  17E8  3EFF               	addlw	-1
  8627  17E9  1D03               	skipz
  8628  17EA  2FE5               	goto	u2435
  8629  17EB                     l2524:	
  8630  17EB  3001               	movlw	1
  8631  17EC  02A0               	subwf	___awdiv@counter,f
  8632  17ED  1D03               	btfss	3,2
  8633  17EE  2FF0               	goto	u2441
  8634  17EF  2FF1               	goto	u2440
  8635  17F0                     u2441:	
  8636  17F0  2FCC               	goto	l2516
  8637  17F1                     u2440:	
  8638  17F1                     l2526:	
  8639  17F1  0821               	movf	___awdiv@sign,w
  8640  17F2  1903               	btfsc	3,2
  8641  17F3  2FF5               	goto	u2451
  8642  17F4  2FF6               	goto	u2450
  8643  17F5                     u2451:	
  8644  17F5  2FFB               	goto	l2530
  8645  17F6                     u2450:	
  8646  17F6                     l2528:	
  8647  17F6  09A2               	comf	___awdiv@quotient,f
  8648  17F7  09A3               	comf	___awdiv@quotient+1,f
  8649  17F8  0AA2               	incf	___awdiv@quotient,f
  8650  17F9  1903               	skipnz
  8651  17FA  0AA3               	incf	___awdiv@quotient+1,f
  8652  17FB                     l2530:	
  8653  17FB  0823               	movf	___awdiv@quotient+1,w
  8654  17FC  00F7               	movwf	?___awdiv+1
  8655  17FD  0822               	movf	___awdiv@quotient,w
  8656  17FE  00F6               	movwf	?___awdiv
  8657  17FF                     l561:	
  8658  17FF  0008               	return
  8659  1800                     __end_of___awdiv:	
  8660                           
  8661                           	psect	text34
  8662  139E                     __ptext34:	
  8663 ;; *************** function _BCD2UpperCh *****************
  8664 ;; Defined at:
  8665 ;;		line 77 in file "MasterPapu.c"
  8666 ;; Parameters:    Size  Location     Type
  8667 ;;  bcd             1    wreg     unsigned char 
  8668 ;; Auto vars:     Size  Location     Type
  8669 ;;  bcd             1    1[COMMON] unsigned char 
  8670 ;; Return value:  Size  Location     Type
  8671 ;;                  1    wreg      unsigned char 
  8672 ;; Registers used:
  8673 ;;		wreg, status,2, status,0
  8674 ;; Tracked objects:
  8675 ;;		On entry : 0/0
  8676 ;;		On exit  : 0/0
  8677 ;;		Unchanged: 0/0
  8678 ;; Data sizes:     COMMON   BANK0   BANK1   BANK3   BANK2
  8679 ;;      Params:         0       0       0       0       0
  8680 ;;      Locals:         1       0       0       0       0
  8681 ;;      Temps:          1       0       0       0       0
  8682 ;;      Totals:         2       0       0       0       0
  8683 ;;Total ram usage:        2 bytes
  8684 ;; Hardware stack levels used:    1
  8685 ;; This function calls:
  8686 ;;		Nothing
  8687 ;; This function is called by:
  8688 ;;		_main
  8689 ;; This function uses a non-reentrant model
  8690 ;;
  8691                           
  8692                           
  8693                           ;psect for function _BCD2UpperCh
  8694  139E                     _BCD2UpperCh:	
  8695                           
  8696                           ;incstack = 0
  8697                           ; Regs used in _BCD2UpperCh: [wreg+status,2+status,0]
  8698                           ;BCD2UpperCh@bcd stored from wreg
  8699  139E  00F1               	movwf	BCD2UpperCh@bcd
  8700  139F                     l3056:	
  8701                           
  8702                           ;MasterPapu.c: 77: unsigned char BCD2UpperCh(unsigned char bcd);MasterPapu.c: 78: {;Mast
      +                          erPapu.c: 79:   return ((bcd >> 4) + '0');
  8703  139F  0871               	movf	BCD2UpperCh@bcd,w
  8704  13A0  00F0               	movwf	??_BCD2UpperCh
  8705  13A1  3004               	movlw	4
  8706  13A2                     u3575:	
  8707  13A2  1003               	clrc
  8708  13A3  0CF0               	rrf	??_BCD2UpperCh,f
  8709  13A4  3EFF               	addlw	-1
  8710  13A5  1D03               	skipz
  8711  13A6  2BA2               	goto	u3575
  8712  13A7  0870               	movf	??_BCD2UpperCh,w
  8713  13A8  3E30               	addlw	48
  8714  13A9                     l158:	
  8715  13A9  0008               	return
  8716  13AA                     __end_of_BCD2UpperCh:	
  8717                           
  8718                           	psect	text35
  8719  1367                     __ptext35:	
  8720 ;; *************** function _BCD2LowerCh *****************
  8721 ;; Defined at:
  8722 ;;		line 82 in file "MasterPapu.c"
  8723 ;; Parameters:    Size  Location     Type
  8724 ;;  bcd             1    wreg     unsigned char 
  8725 ;; Auto vars:     Size  Location     Type
  8726 ;;  bcd             1    0[COMMON] unsigned char 
  8727 ;; Return value:  Size  Location     Type
  8728 ;;                  1    wreg      unsigned char 
  8729 ;; Registers used:
  8730 ;;		wreg, status,2, status,0
  8731 ;; Tracked objects:
  8732 ;;		On entry : 0/0
  8733 ;;		On exit  : 0/0
  8734 ;;		Unchanged: 0/0
  8735 ;; Data sizes:     COMMON   BANK0   BANK1   BANK3   BANK2
  8736 ;;      Params:         0       0       0       0       0
  8737 ;;      Locals:         1       0       0       0       0
  8738 ;;      Temps:          0       0       0       0       0
  8739 ;;      Totals:         1       0       0       0       0
  8740 ;;Total ram usage:        1 bytes
  8741 ;; Hardware stack levels used:    1
  8742 ;; This function calls:
  8743 ;;		Nothing
  8744 ;; This function is called by:
  8745 ;;		_main
  8746 ;; This function uses a non-reentrant model
  8747 ;;
  8748                           
  8749                           
  8750                           ;psect for function _BCD2LowerCh
  8751  1367                     _BCD2LowerCh:	
  8752                           
  8753                           ;incstack = 0
  8754                           ; Regs used in _BCD2LowerCh: [wreg+status,2+status,0]
  8755                           ;BCD2LowerCh@bcd stored from wreg
  8756  1367  00F0               	movwf	BCD2LowerCh@bcd
  8757  1368                     l3060:	
  8758                           
  8759                           ;MasterPapu.c: 82: unsigned char BCD2LowerCh(unsigned char bcd);MasterPapu.c: 83: {;Mast
      +                          erPapu.c: 84:   return ((bcd & 0x0F) + '0');
  8760  1368  0870               	movf	BCD2LowerCh@bcd,w
  8761  1369  390F               	andlw	15
  8762  136A  3E30               	addlw	48
  8763  136B                     l161:	
  8764  136B  0008               	return
  8765  136C                     __end_of_BCD2LowerCh:	
  8766                           
  8767                           	psect	text36
  8768  1655                     __ptext36:	
  8769 ;; *************** function _BCD2Binary *****************
  8770 ;; Defined at:
  8771 ;;		line 101 in file "MasterPapu.c"
  8772 ;; Parameters:    Size  Location     Type
  8773 ;;  a               2    6[COMMON] int 
  8774 ;; Auto vars:     Size  Location     Type
  8775 ;;  t               2   10[COMMON] int 
  8776 ;;  r               2    8[COMMON] int 
  8777 ;; Return value:  Size  Location     Type
  8778 ;;                  2    6[COMMON] int 
  8779 ;; Registers used:
  8780 ;;		wreg, status,2, status,0, pclath, cstack
  8781 ;; Tracked objects:
  8782 ;;		On entry : 0/0
  8783 ;;		On exit  : 0/0
  8784 ;;		Unchanged: 0/0
  8785 ;; Data sizes:     COMMON   BANK0   BANK1   BANK3   BANK2
  8786 ;;      Params:         2       0       0       0       0
  8787 ;;      Locals:         4       0       0       0       0
  8788 ;;      Temps:          0       0       0       0       0
  8789 ;;      Totals:         6       0       0       0       0
  8790 ;;Total ram usage:        6 bytes
  8791 ;; Hardware stack levels used:    1
  8792 ;; Hardware stack levels required when called:    1
  8793 ;; This function calls:
  8794 ;;		___wmul
  8795 ;; This function is called by:
  8796 ;;		_main
  8797 ;; This function uses a non-reentrant model
  8798 ;;
  8799                           
  8800                           
  8801                           ;psect for function _BCD2Binary
  8802  1655                     _BCD2Binary:	
  8803  1655                     l3084:	
  8804                           ;incstack = 0
  8805                           ; Regs used in _BCD2Binary: [wreg+status,2+status,0+pclath+cstack]
  8806                           
  8807                           
  8808                           ;MasterPapu.c: 101: int BCD2Binary(int a);MasterPapu.c: 102: {;MasterPapu.c: 103:   int 
      +                          r,t;;MasterPapu.c: 104:   t = a & 0x0F;
  8809  1655  300F               	movlw	15
  8810  1656  0576               	andwf	BCD2Binary@a,w
  8811  1657  00FA               	movwf	BCD2Binary@t
  8812  1658  3000               	movlw	0
  8813  1659  0577               	andwf	BCD2Binary@a+1,w
  8814  165A  00FB               	movwf	BCD2Binary@t+1
  8815                           
  8816                           ;MasterPapu.c: 105:   r = t;
  8817  165B  087B               	movf	BCD2Binary@t+1,w
  8818  165C  00F9               	movwf	BCD2Binary@r+1
  8819  165D  087A               	movf	BCD2Binary@t,w
  8820  165E  00F8               	movwf	BCD2Binary@r
  8821                           
  8822                           ;MasterPapu.c: 106:   a = 0xF0 & a;
  8823  165F  30F0               	movlw	240
  8824  1660  0576               	andwf	BCD2Binary@a,w
  8825  1661  00F6               	movwf	BCD2Binary@a
  8826  1662  3000               	movlw	0
  8827  1663  0577               	andwf	BCD2Binary@a+1,w
  8828  1664  00F7               	movwf	BCD2Binary@a+1
  8829  1665                     l3086:	
  8830                           
  8831                           ;MasterPapu.c: 107:   t = a >> 4;
  8832  1665  0E76               	swapf	BCD2Binary@a,w
  8833  1666  390F               	andlw	15
  8834  1667  00FA               	movwf	BCD2Binary@t
  8835  1668  0E77               	swapf	BCD2Binary@a+1,w
  8836  1669  39F0               	andlw	240
  8837  166A  04FA               	iorwf	BCD2Binary@t,f
  8838  166B  0E77               	swapf	BCD2Binary@a+1,w
  8839  166C  390F               	andlw	15
  8840  166D  00FB               	movwf	BCD2Binary@t+1
  8841  166E  30F0               	movlw	240
  8842  166F  1DFB               	btfss	BCD2Binary@t+1,3
  8843  1670  3000               	movlw	0
  8844  1671  04FB               	iorwf	BCD2Binary@t+1,f
  8845  1672                     l3088:	
  8846                           
  8847                           ;MasterPapu.c: 108:   t = 0x0F & t;
  8848  1672  300F               	movlw	15
  8849  1673  057A               	andwf	BCD2Binary@t,w
  8850  1674  00FA               	movwf	BCD2Binary@t
  8851  1675  3000               	movlw	0
  8852  1676  057B               	andwf	BCD2Binary@t+1,w
  8853  1677  00FB               	movwf	BCD2Binary@t+1
  8854  1678                     l3090:	
  8855                           
  8856                           ;MasterPapu.c: 109:   r = t*10 + r;
  8857  1678  087B               	movf	BCD2Binary@t+1,w
  8858  1679  00F1               	movwf	___wmul@multiplier+1
  8859  167A  087A               	movf	BCD2Binary@t,w
  8860  167B  00F0               	movwf	___wmul@multiplier
  8861  167C  300A               	movlw	10
  8862  167D  00F2               	movwf	___wmul@multiplicand
  8863  167E  3000               	movlw	0
  8864  167F  00F3               	movwf	___wmul@multiplicand+1
  8865  1680  160A  118A  241E  160A  118A  	fcall	___wmul
  8866  1685  0878               	movf	BCD2Binary@r,w
  8867  1686  0770               	addwf	?___wmul,w
  8868  1687  00F8               	movwf	BCD2Binary@r
  8869  1688  0879               	movf	BCD2Binary@r+1,w
  8870  1689  1803               	skipnc
  8871  168A  0A79               	incf	BCD2Binary@r+1,w
  8872  168B  0771               	addwf	?___wmul+1,w
  8873  168C  00F9               	movwf	BCD2Binary@r+1
  8874  168D                     l3092:	
  8875                           
  8876                           ;MasterPapu.c: 110:   return r;
  8877  168D  0879               	movf	BCD2Binary@r+1,w
  8878  168E  00F7               	movwf	?_BCD2Binary+1
  8879  168F  0878               	movf	BCD2Binary@r,w
  8880  1690  00F6               	movwf	?_BCD2Binary
  8881  1691                     l167:	
  8882  1691  0008               	return
  8883  1692                     __end_of_BCD2Binary:	
  8884                           
  8885                           	psect	text37
  8886  141E                     __ptext37:	
  8887 ;; *************** function ___wmul *****************
  8888 ;; Defined at:
  8889 ;;		line 15 in file "C:\Program Files (x86)\Microchip\xc8\v2.10\pic\sources\c90\common\Umul16.c"
  8890 ;; Parameters:    Size  Location     Type
  8891 ;;  multiplier      2    0[COMMON] unsigned int 
  8892 ;;  multiplicand    2    2[COMMON] unsigned int 
  8893 ;; Auto vars:     Size  Location     Type
  8894 ;;  product         2    4[COMMON] unsigned int 
  8895 ;; Return value:  Size  Location     Type
  8896 ;;                  2    0[COMMON] unsigned int 
  8897 ;; Registers used:
  8898 ;;		wreg, status,2, status,0
  8899 ;; Tracked objects:
  8900 ;;		On entry : 0/0
  8901 ;;		On exit  : 0/0
  8902 ;;		Unchanged: 0/0
  8903 ;; Data sizes:     COMMON   BANK0   BANK1   BANK3   BANK2
  8904 ;;      Params:         4       0       0       0       0
  8905 ;;      Locals:         2       0       0       0       0
  8906 ;;      Temps:          0       0       0       0       0
  8907 ;;      Totals:         6       0       0       0       0
  8908 ;;Total ram usage:        6 bytes
  8909 ;; Hardware stack levels used:    1
  8910 ;; This function calls:
  8911 ;;		Nothing
  8912 ;; This function is called by:
  8913 ;;		_BCD2Binary
  8914 ;;		_main
  8915 ;; This function uses a non-reentrant model
  8916 ;;
  8917                           
  8918                           
  8919                           ;psect for function ___wmul
  8920  141E                     ___wmul:	
  8921  141E                     l2476:	
  8922                           ;incstack = 0
  8923                           ; Regs used in ___wmul: [wreg+status,2+status,0]
  8924                           
  8925  141E  01F4               	clrf	___wmul@product
  8926  141F  01F5               	clrf	___wmul@product+1
  8927  1420                     l2478:	
  8928  1420  1C70               	btfss	___wmul@multiplier,0
  8929  1421  2C23               	goto	u2321
  8930  1422  2C24               	goto	u2320
  8931  1423                     u2321:	
  8932  1423  2C2A               	goto	l408
  8933  1424                     u2320:	
  8934  1424                     l2480:	
  8935  1424  0872               	movf	___wmul@multiplicand,w
  8936  1425  07F4               	addwf	___wmul@product,f
  8937  1426  1803               	skipnc
  8938  1427  0AF5               	incf	___wmul@product+1,f
  8939  1428  0873               	movf	___wmul@multiplicand+1,w
  8940  1429  07F5               	addwf	___wmul@product+1,f
  8941  142A                     l408:	
  8942  142A  3001               	movlw	1
  8943  142B                     u2335:	
  8944  142B  1003               	clrc
  8945  142C  0DF2               	rlf	___wmul@multiplicand,f
  8946  142D  0DF3               	rlf	___wmul@multiplicand+1,f
  8947  142E  3EFF               	addlw	-1
  8948  142F  1D03               	skipz
  8949  1430  2C2B               	goto	u2335
  8950  1431                     l2482:	
  8951  1431  3001               	movlw	1
  8952  1432                     u2345:	
  8953  1432  1003               	clrc
  8954  1433  0CF1               	rrf	___wmul@multiplier+1,f
  8955  1434  0CF0               	rrf	___wmul@multiplier,f
  8956  1435  3EFF               	addlw	-1
  8957  1436  1D03               	skipz
  8958  1437  2C32               	goto	u2345
  8959  1438                     l2484:	
  8960  1438  0870               	movf	___wmul@multiplier,w
  8961  1439  0471               	iorwf	___wmul@multiplier+1,w
  8962  143A  1D03               	btfss	3,2
  8963  143B  2C3D               	goto	u2351
  8964  143C  2C3E               	goto	u2350
  8965  143D                     u2351:	
  8966  143D  2C20               	goto	l2478
  8967  143E                     u2350:	
  8968  143E                     l2486:	
  8969  143E  0875               	movf	___wmul@product+1,w
  8970  143F  00F1               	movwf	?___wmul+1
  8971  1440  0874               	movf	___wmul@product,w
  8972  1441  00F0               	movwf	?___wmul
  8973  1442                     l410:	
  8974  1442  0008               	return
  8975  1443                     __end_of___wmul:	
  8976  007E                     btemp	set	126	;btemp
  8977  007E                     wtemp0	set	126


Data Sizes:
    Strings     3
    Constant    76
    Data        59
    BSS         70
    Persistent  0
    Stack       0

Auto Spaces:
    Space          Size  Autos    Used
    COMMON           14     14      14
    BANK0            80     60      80
    BANK1            80      0      80
    BANK3            96      0      29
    BANK2            96      0       0

Pointer List with Targets:

    _doprnt$2	PTR PTR void  size(1) Largest target is 1
		 -> sprintf@ap(COMMON[1]), 

    _doprnt$1	PTR const unsigned char  size(1) Largest target is 3
		 -> STR_1(CODE[3]), 

    _doprnt$0	PTR struct __prbuf size(1) Largest target is 3
		 -> sprintf@pb(COMMON[2]), 

    S1071__prbuf$func	PTR FTN(unsigned char ,)void  size(1) Largest target is 1
		 -> Absolute function(), 

    pb.func	PTR FTN(unsigned char ,)void  size(1) Largest target is 1
		 -> Absolute function(), 

    S1071__prbuf$ptr	PTR unsigned char  size(1) Largest target is 4
		 -> Lcd_Write_Int@buffer(COMMON[4]), 

    pb.ptr	PTR unsigned char  size(1) Largest target is 4
		 -> Lcd_Write_Int@buffer(COMMON[4]), 

    utoa@buf	PTR unsigned char  size(1) Largest target is 20
		 -> guardar2(BANK3[10]), guardar(BANK3[10]), 

    sp__utoa	PTR unsigned char  size(1) Largest target is 20
		 -> guardar2(BANK3[10]), guardar(BANK3[10]), 

    itoa@buf	PTR unsigned char  size(1) Largest target is 20
		 -> guardar2(BANK3[10]), guardar(BANK3[10]), 

    itoa@cp	PTR unsigned char  size(1) Largest target is 20
		 -> guardar2(BANK3[10]), guardar(BANK3[10]), 

    guardar2	PTR unsigned char [10] size(1) Largest target is 0

    sp__itoa	PTR unsigned char  size(1) Largest target is 20
		 -> guardar2(BANK3[10]), guardar(BANK3[10]), 

    guardar	PTR unsigned char [10] size(1) Largest target is 0

    word@a	PTR unsigned char  size(2) Largest target is 20
		 -> dis(BANK1[4]), dis2(BANK1[3]), time(BANK1[12]), temp(BANK1[10]), 
		 -> pes2(BANK1[6]), Lcd_Write_Int@buffer(COMMON[4]), guardar2(BANK3[10]), guardar(BANK3[10]), 


Critical Paths under _main in COMMON

    _main->___awmod
    _write_ds1307->_I2C_Master_Write
    _I2C_Master_Init->___lldiv
    _read_ds1307->_I2C_Master_Read
    _lee2->___xxtofl
    _lee2->_itoa
    _word->_letra
    _letra->_port
    _itoa->_utoa
    _utoa->___lwdiv
    ___flmul->___xxtofl
    ___fldiv->___xxtofl
    _lcd_init->_com
    _lcd_clear->_com
    _cur->_com
    _com->_port
    _Binary2BCD->___awmod
    ___awmod->___awdiv
    ___awdiv->___wmul
    _BCD2Binary->___wmul

Critical Paths under _main in BANK0

    _main->_lee2
    _setup->_I2C_Master_Init
    _lee2->___fldiv
    _itoa->_utoa
    ___fldiv->___flmul
    _Binary2BCD->___awmod
    ___awmod->___awdiv

Critical Paths under _main in BANK1

    None.

Critical Paths under _main in BANK3

    None.

Critical Paths under _main in BANK2

    None.

Call Graph Tables:

 ---------------------------------------------------------------------------------
 (Depth) Function   	        Calls       Base Space   Used Autos Params    Refs
 ---------------------------------------------------------------------------------
 (0) _main                                                 3     3      0   25890
                                             57 BANK0      3     3      0
                         _BCD2Binary
                        _BCD2LowerCh
                        _BCD2UpperCh
                         _Binary2BCD
                    _I2C_Master_Read
                   _I2C_Master_Start
                    _I2C_Master_Stop
                   _I2C_Master_Write
                            ___awdiv
                            ___awmod
                             ___wmul
                                _abs
                                _cur
                          _lcd_clear
                           _lcd_init
                               _lee2
                        _read_ds1307
                            _receive
                              _setup
                               _word
                       _write_ds1307
 ---------------------------------------------------------------------------------
 (1) _write_ds1307                                         4     0      4    1966
                                              2 COMMON     4     0      4
                   _I2C_Master_Start
                    _I2C_Master_Stop
                   _I2C_Master_Write
 ---------------------------------------------------------------------------------
 (1) _setup                                                0     0      0     412
                    _I2C_Master_Init
 ---------------------------------------------------------------------------------
 (2) _I2C_Master_Init                                      8     4      4     412
                                              0 BANK0      8     4      4
                            ___lldiv
 ---------------------------------------------------------------------------------
 (3) ___lldiv                                             14     6      8     314
                                              0 COMMON    14     6      8
 ---------------------------------------------------------------------------------
 (1) _receive                                              0     0      0       0
 ---------------------------------------------------------------------------------
 (1) _read_ds1307                                          4     2      2    2240
                                              6 COMMON     4     2      2
                    _I2C_Master_Read
           _I2C_Master_RepeatedStart
                   _I2C_Master_Start
                    _I2C_Master_Stop
                   _I2C_Master_Write
 ---------------------------------------------------------------------------------
 (2) _I2C_Master_Write                                     2     0      2    1010
                                              0 COMMON     2     0      2
                    _I2C_Master_Wait
 ---------------------------------------------------------------------------------
 (2) _I2C_Master_Stop                                      0     0      0       0
                    _I2C_Master_Wait
 ---------------------------------------------------------------------------------
 (2) _I2C_Master_Start                                     0     0      0       0
                    _I2C_Master_Wait
 ---------------------------------------------------------------------------------
 (2) _I2C_Master_RepeatedStart                             0     0      0       0
                    _I2C_Master_Wait
 ---------------------------------------------------------------------------------
 (2) _I2C_Master_Read                                      6     4      2     653
                                              0 COMMON     6     4      2
                    _I2C_Master_Wait
 ---------------------------------------------------------------------------------
 (3) _I2C_Master_Wait                                      0     0      0       0
 ---------------------------------------------------------------------------------
 (1) _lee2                                                 5     5      0    8933
                                             52 BANK0      5     5      0
                            ___fldiv
                            ___flmul
                            ___fltol
                           ___xxtofl
                               _itoa
                               _word
 ---------------------------------------------------------------------------------
 (1) _word                                                 7     5      2     534
                                              3 COMMON     7     5      2
                              _letra
 ---------------------------------------------------------------------------------
 (2) _letra                                                2     2      0      44
                                              1 COMMON     2     2      0
                               _port
 ---------------------------------------------------------------------------------
 (2) _itoa                                                 7     3      4    1797
                                             13 COMMON     1     1      0
                                              4 BANK0      6     2      4
                            ___fltol (ARG)
                               _utoa
 ---------------------------------------------------------------------------------
 (3) _utoa                                                 9     5      4    1264
                                              8 COMMON     5     1      4
                                              0 BANK0      4     4      0
                            ___lwdiv
                            ___lwmod
 ---------------------------------------------------------------------------------
 (4) ___lwmod                                              6     2      4     311
                                              0 COMMON     6     2      4
 ---------------------------------------------------------------------------------
 (4) ___lwdiv                                              8     4      4     466
                                              0 COMMON     8     4      4
 ---------------------------------------------------------------------------------
 (2) ___xxtofl                                            14    10      4     882
                                              0 COMMON    14    10      4
 ---------------------------------------------------------------------------------
 (2) ___fltol                                             11     7      4     649
                                              0 COMMON    11     7      4
 ---------------------------------------------------------------------------------
 (2) ___flmul                                             26    18      8    3487
                                              0 BANK0     26    18      8
                          __Umul8_16
                           ___xxtofl (ARG)
 ---------------------------------------------------------------------------------
 (3) __Umul8_16                                            9     7      2     799
                                              0 COMMON     9     7      2
 ---------------------------------------------------------------------------------
 (2) ___fldiv                                             26    18      8    1553
                                             26 BANK0     26    18      8
                            ___flmul (ARG)
                           ___xxtofl (ARG)
 ---------------------------------------------------------------------------------
 (1) _lcd_init                                             2     2      0      44
                                              2 COMMON     2     2      0
                                _com
 ---------------------------------------------------------------------------------
 (1) _lcd_clear                                            0     0      0      44
                                _com
 ---------------------------------------------------------------------------------
 (1) _cur                                                  5     4      1     634
                                              2 COMMON     5     4      1
                                _com
 ---------------------------------------------------------------------------------
 (2) _com                                                  1     1      0      44
                                              1 COMMON     1     1      0
                               _port
 ---------------------------------------------------------------------------------
 (3) _port                                                 1     1      0      22
                                              0 COMMON     1     1      0
 ---------------------------------------------------------------------------------
 (1) _abs                                                  4     2      2     142
                                              0 COMMON     4     2      2
 ---------------------------------------------------------------------------------
 (1) _Binary2BCD                                           8     6      2    4092
                                              8 BANK0      8     6      2
                            ___awdiv
                            ___awmod
 ---------------------------------------------------------------------------------
 (1) ___awmod                                              7     3      4    1968
                                             11 COMMON     3     3      0
                                              4 BANK0      4     0      4
                            ___awdiv (ARG)
                             ___wmul (ARG)
 ---------------------------------------------------------------------------------
 (1) ___awdiv                                              9     5      4    1516
                                              6 COMMON     5     1      4
                                              0 BANK0      4     4      0
                             ___wmul (ARG)
 ---------------------------------------------------------------------------------
 (1) _BCD2UpperCh                                          2     2      0      22
                                              0 COMMON     2     2      0
 ---------------------------------------------------------------------------------
 (1) _BCD2LowerCh                                          1     1      0      22
                                              0 COMMON     1     1      0
 ---------------------------------------------------------------------------------
 (1) _BCD2Binary                                           6     4      2    1110
                                              6 COMMON     6     4      2
                             ___wmul
 ---------------------------------------------------------------------------------
 (1) ___wmul                                               6     2      4     548
                                              0 COMMON     6     2      4
 ---------------------------------------------------------------------------------
 Estimated maximum stack depth 4
 ---------------------------------------------------------------------------------

 Call Graph Graphs:

 _main (ROOT)
   _BCD2Binary
     ___wmul
   _BCD2LowerCh
   _BCD2UpperCh
   _Binary2BCD
     ___awdiv
       ___wmul (ARG)
     ___awmod
       ___awdiv (ARG)
         ___wmul (ARG)
       ___wmul (ARG)
   _I2C_Master_Read
     _I2C_Master_Wait
   _I2C_Master_Start
     _I2C_Master_Wait
   _I2C_Master_Stop
     _I2C_Master_Wait
   _I2C_Master_Write
     _I2C_Master_Wait
   ___awdiv
     ___wmul (ARG)
   ___awmod
     ___awdiv (ARG)
       ___wmul (ARG)
     ___wmul (ARG)
   ___wmul
   _abs
   _cur
     _com
       _port
   _lcd_clear
     _com
       _port
   _lcd_init
     _com
       _port
   _lee2
     ___fldiv
       ___flmul (ARG)
         __Umul8_16
         ___xxtofl (ARG)
       ___xxtofl (ARG)
     ___flmul
       __Umul8_16
       ___xxtofl (ARG)
     ___fltol
     ___xxtofl
     _itoa
       ___fltol (ARG)
       _utoa (ARG)
         ___lwdiv
         ___lwmod
     _word
       _letra
         _port
   _read_ds1307
     _I2C_Master_Read
       _I2C_Master_Wait
     _I2C_Master_RepeatedStart
       _I2C_Master_Wait
     _I2C_Master_Start
       _I2C_Master_Wait
     _I2C_Master_Stop
       _I2C_Master_Wait
     _I2C_Master_Write
       _I2C_Master_Wait
   _receive
   _setup
     _I2C_Master_Init
       ___lldiv
   _word
     _letra
       _port
   _write_ds1307
     _I2C_Master_Start
       _I2C_Master_Wait
     _I2C_Master_Stop
       _I2C_Master_Wait
     _I2C_Master_Write
       _I2C_Master_Wait

 Address spaces:
Name               Size   Autos  Total    Cost      Usage
BANK3               60      0      1D       9       30.2%
BITBANK3            60      0       0       8        0.0%
SFR3                 0      0       0       4        0.0%
BITSFR3              0      0       0       4        0.0%
BANK2               60      0       0      11        0.0%
BITBANK2            60      0       0      10        0.0%
SFR2                 0      0       0       5        0.0%
BITSFR2              0      0       0       5        0.0%
BANK1               50      0      50       7      100.0%
BITBANK1            50      0       0       6        0.0%
SFR1                 0      0       0       2        0.0%
BITSFR1              0      0       0       2        0.0%
BANK0               50     3C      50       5      100.0%
BITBANK0            50      0       0       4        0.0%
SFR0                 0      0       0       1        0.0%
BITSFR0              0      0       0       1        0.0%
COMMON               E      E       E       1      100.0%
BITCOMMON            E      0       0       0        0.0%
CODE                 0      0       0       0        0.0%
DATA                 0      0      CB      12        0.0%
ABS                  0      0      CB       3        0.0%
NULL                 0      0       0       0        0.0%
STACK                0      0       0       2        0.0%
EEDATA             100      0       0       0        0.0%


Microchip Technology PIC Macro Assembler V2.10 build 88905656 
Symbol Table                                                                                   Mon May 11 22:14:54 2020

                     ___fldiv@aexp 0053                       ___fldiv@bexp 0052  
                                _c 005C                                  _i 006F  
                                _z 00EC                                  pc 0002  
                     ___fldiv@sign 004B                        __CFG_CP$OFF 0000  
                               l91 13B6                                 l85 1371  
                               l88 13FB                                 l97 14E2  
                     ___awdiv@sign 0021                                 _ap 00E0  
                               _hr 00E4                                 fsr 0004  
              ___wmul@multiplicand 0072                __Umul8_16@word_mpld 0076  
                              l100 008B                                l103 0816  
                              l121 0A07                                l109 15A7  
                              l302 13B7                                l311 1382  
                              l231 153E                                l320 1508  
                              l152 1654                                l161 136B  
                              l305 13C3                                l321 150B  
                              l410 1442                                l322 1510  
                              l314 1394                                l155 148E  
                              l164 087F                                l308 138B  
                              l317 000D                                l245 034E  
                              l158 13A9                                l167 1691  
                              l408 142A                                l601 0956  
                              l282 141D                                l604 096B  
                              l444 1796                                l561 17FF  
                              l803 0F6B                                l299 15DF  
                              l574 1730                                l680 16D5  
                              l809 0FF3                                l841 0A6F  
                              l594 096B                                l690 1619  
                              l835 0A2A                                l860 1468  
                              l853 13D4                                l781 0C92  
                              l773 0C10                                l757 0B1E  
                              l837 0AC1                                l854 13D4  
                              l759 0C9E                                l848 0A8B  
                              l849 0A97                                l866 08DA  
                              l779 0C82                                l868 08F1  
                              l797 0FFF                                l894 14A3  
                              l896 14B5                       __CFG_CPD$OFF 0000  
                              _abs 13C4                                _day 0068  
                              _dis 00CB                                _com 13E8  
                              _cur 14B6                                _pes 00AA  
                              _set 0060                                fsr0 0004  
                              indf 0000                       ___awmod@sign 007D  
                     ___flmul@aexp 0032                       ___flmul@bexp 0033  
                     ___flmul@sign 002D                       ___flmul@temp 0038  
                     ___flmul@prod 0034                       __CFG_LVP$OFF 0000  
                     ___fltol@exp1 007A                               ?_abs 0070  
                             l3000 0040                               l3010 0073  
                             l3002 0046                               l3012 0082  
                             l3004 0055                               l2300 080F  
                             l3100 1519                               l3006 005E  
                             l2302 0813                               l3110 1525  
                             l3102 151A                               l2310 1741  
                             l3008 006D                               l2304 13B7  
                             l3120 1533                               l3112 1527  
                             l3104 151E                               l2320 1770  
                             l2312 1744                               l2250 169A  
                             l2410 144A                               l2306 13BD  
                             l3050 1650                               l3122 1537  
                             l3114 1528                               l3106 1520  
                             l2322 177E                               l2314 1751  
                             l3130 140F                               l4010 0095  
                             l3060 1368                               l2500 17A9  
                             l2244 136D                               l2260 16BD  
                             l2252 169D                               l2412 1451  
                             l3124 153D                               l3116 152C  
                             l3108 1521                               l2324 177F  
                             l2316 1755                               l2308 1731  
                             l3132 1410                               l4100 01A2  
                             l4020 00A1                               l4012 0098  
                             l4004 008C                               l2510 17BD  
                             l2502 17AE                               l3070 0845  
                             l3134 13C4                               l2350 149D  
                             l2262 16C3                               l2254 16A4  
                             l2246 1692                               l2414 1455  
                             l2406 1446                               l3118 1532  
                             l2326 1788                               l2318 175E  
                             l3126 13FC                               l3054 1469  
                             l4110 01E4                               l4102 01B0  
                             l4030 00A8                               l4022 00A2  
                             l4014 009C                               l4006 0091  
                             l3056 139F                               l2520 17E3  
                             l2512 17C4                               l2504 17B2  
                             l3080 087B                               l3072 0858  
                             l3064 0817                               l3136 13C8  
                             l2352 14AC                               l2344 1490  
                             l2600 091B                               l2264 16C4  
                             l2256 16A8                               l2248 1694  
                             l2280 15F4                               l2272 15E0  
                             l2360 0887                               l2416 145A  
                             l2408 1446                               l2440 137A  
                             l2432 1383                               l3048 161A  
                             l2328 178E                               l3128 140C  
                             l4200 04D5                               l4120 020F  
                             l4112 01E8                               l4104 01C0  
                             l4040 00B3                               l4032 00AB  
                             l4024 00A5                               l4016 009D  
                             l4008 0094                               l3090 1678  
                             l2530 17FB                               l2522 17E4  
                             l2514 17C8                               l2506 17B4  
                             l3074 085E                               l3066 082C  
                             l2354 14B1                               l2346 1492  
                             l2602 091C                               l2266 16CB  
                             l2258 16AC                               l2282 15F8  
                             l2274 15E6                               l2290 1615  
                             l2370 08AA                               l2362 089A  
                             l2450 14F9                               l2442 137F  
                             l2434 1388                               l4210 058D  
                             l4202 04DB                               l4130 0250  
                             l4122 021E                               l4114 01EE  
                             l4106 01CF                               l4050 00D4  
                             l4042 00B4                               l4034 00AC  
                             l4026 00A6                               l4018 00A0  
                             l3092 168D                               l3084 1655  
                             l2524 17EB                               l2516 17CC  
                             l2508 17BA                               l2540 16E2  
                             l3076 086F                               l3068 0832  
                             l2700 0B95                               l2348 1499  
                             l2604 0924                               l2268 16D1  
                             l2284 1602                               l2276 15E9  
                             l2380 08E5                               l2372 08BD  
                             l2364 089E                               l2452 14FE  
                             l2444 14E3                               l2460 138C  
                             l2436 0004                               l4220 05B1  
                             l4212 0590                               l4204 0509  
                             l4140 0288                               l4132 025D  
                             l4124 022A                               l4116 01F2  
                             l4108 01D7                               l4060 00F1  
                             l4052 00D9                               l4044 00B9  
                             l4036 00AF                               l4028 00A7  
                             l3086 1665                               l2518 17DD  
                             l2526 17F1                               l2550 16F6  
                             l2542 16E4                               l2534 16D6  
                             l3078 0875                               l2390 13EC  
                             l2702 0B9E                               l2710 0BC3  
                             l2630 0AC9                               l2622 094B  
                             l2614 0932                               l2606 0926  
                             l2286 1608                               l2278 15F0  
                             l2382 08E7                               l2374 08CE  
                             l2366 08A4                               l2358 0883  
                             l2294 0803                               l2454 1504  
                             l2446 14E8                               l2462 1391  
                             l2438 0009                               l2470 15DC  
                             l4230 05DF                               l4222 05BA  
                             l4214 0595                               l4206 0528  
                             l4150 02C1                               l4142 0297  
                             l4134 0263                               l4126 0239  
                             l4118 0201                               l4070 0116  
                             l4062 0100                               l4054 00DD  
                             l4046 00BE                               l4038 00B0  
                             ?_com 0070                               l2480 1424  
                             l3088 1672                               l2528 17F6  
                             l2560 1715                               l2552 16FD  
                             l2544 16E8                               l2536 16D7  
                             l2392 13F2                               l2720 0BE0  
                             l2712 0BC9                               l2704 0BB0  
                             l2640 0ADE                               l2632 0ACF  
                             l2800 0CE7                               l2624 095B  
                             l2608 092A                               l2616 0944  
                             l2288 160F                               l2384 08ED  
                             l2376 08D6                               l2368 08A8  
                             l2296 0806                               l2456 150C  
                             l2448 14F0                               l3096 1511  
                             l2472 15DD                               l2464 15A8  
                             l4240 0627                               l4232 05E4  
                             l4224 05C6                               l4216 059E  
                             l4208 0551                               l4160 02FD  
                             l4152 02D0                               l4144 029F  
                             l4136 0272                               l4128 0241  
                             l4080 0134                               l4072 011C  
                             l4056 00E1                               l4064 0102  
                             l4048 00CC                               l2482 1431  
                             l2490 1797                               l2562 171C  
                             l2554 1701                               l2546 16ED  
                             l2538 16DD                               l2394 13F5  
                             l2730 0BF5                               l2722 0BE1  
                             l2714 0BD1                               l2706 0BB1  
                             l2650 0AF6                               l2642 0AE6  
                             l2634 0AD3                               l2810 0D03  
                             l2802 0CEF                               l2626 0960  
                             l2378 08DE                               l2298 080C  
                             l3098 1517                               l2474 15DE  
                             l2466 15AC                               l4250 0662  
                             l4242 063F                               l4234 05ED  
                             l4226 05CF                               l4218 05AC  
                             l4170 0325                               l4162 030C  
                             l4154 02D6                               l4146 02AE  
                             l4138 0278                               l4090 0154  
                             l4082 0138                               l4074 0120  
                             l4066 0108                               l4058 00EB  
                             l2484 1438                               l2476 141E  
                             l2492 179A                               l2556 1705  
                             l2548 16F3                               l2564 1722  
                             l2396 13F8                               l2388 13E9  
                             l2740 0C1A                               l2732 0BF9  
                             l2724 0BEA                               l2716 0BD3  
                             l2708 0BBF                               l2660 0B0B  
                             l2652 0AFC                               l2644 0AE7  
                             l2636 0AD4                               l2628 0AC2  
                             l2900 0FE7                               l2820 0D46  
                             l2804 0CF1                               l2468 15AF  
                             l4260 068D                               l4252 0672  
                             l4244 064B                               l4236 05FB  
                             l4228 05D7                               l4180 0386  
                             l4164 0310                               l4156 02E6  
                             l4148 02BB                               l4092 015C  
                             l4084 013E                               l4076 0124  
                             l4068 010C                               l2486 143E  
                             l2478 1420                               l2494 179E  
                             l2566 1727                               l2558 170F  
                             l2750 0C58                               l2742 0C28  
                             l2734 0C0D                               l2718 0BDC  
                             l2726 0BF0                               l2670 0B32  
                             l2662 0B13                               l2654 0B00  
                             l2638 0AD9                               l2646 0AE9  
                             l2902 0FEB                               l2830 0DCF  
                             l2822 0D62                               l2814 0D0C  
                             l2806 0CF9                               l2910 0A09  
                             l4270 06F8                               l4262 0696  
                             l4254 0677                               l4246 0654  
                             l4238 0600                               l4190 04B3  
                             l4182 047E                               l4166 0314  
                             l4158 02F5                               l4094 016B  
                             l4174 0335                               l4078 012E  
                             l2496 17A3                               l2568 172C  
                             l2760 0C88                               l2752 0C66  
                             l2744 0C2C                               l2728 0BF4  
                             l2672 0B36                               l2664 0B14  
                             l2656 0B01                               l2648 0AF1  
                             l2904 0FEC                               l2840 0E42  
                             l2832 0DDF                               l2824 0D8E  
                             l2816 0D1C                               l2808 0CFE  
                             l2592 08F2                               l2912 0A0E  
                             l4280 0749                               l4272 0726  
                             l4264 06A6                               l4256 067F  
                             l4248 0659                               l4184 0486  
                             l4168 0321                               l4096 017E  
                             l4088 0145                               l4176 034E  
                             l2498 17A5                               l2762 0C8C  
                             l2754 0C75                               l2746 0C45  
                             l2738 0C15                               l2690 0B77  
                             l2682 0B4D                               l2658 0B06  
                             l2666 0B16                               l2906 0FF7  
                             l2850 0EEF                               l2842 0E5F  
                             l2834 0DFC                               l2826 0DAA  
                             l2818 0D29                               l2770 0C9F  
                             l2594 08FD                               l2930 0A58  
                             l2922 0A3B                               l2914 0A12  
                             l4290 07A1                               l4282 076A  
                             l4274 0732                               l4266 06AB  
                             l4258 0688                               l4186 0497  
                             l4178 037A                               l4098 018D  
                             l2764 0C8E                               l2756 0C79  
                             l2748 0C4B                               l2692 0B79  
                             l2684 0B5F                               l2668 0B26  
                             l2676 0B3F                               l2860 0F3B  
                             l2852 0F17                               l2844 0E8C  
                             l2836 0E0C                               l2828 0DC6  
                             l2780 0CB6                               l2772 0CA6  
                             l2940 0A8F                               l2932 0A66  
                             l2924 0A40                               l2916 0A22  
                             l3900 09F3                               l4284 0772  
                             l4276 073B                               l4268 06CA  
                             l4196 04BC                               l4188 04A7  
                             l4372 033A                               l2758 0C81  
                             l2694 0B7E                               l2686 0B67  
                             l2678 0B44                               l2870 0F50  
                             l2862 0F3C                               l2854 0F20  
                             l2846 0E9C                               l2838 0E29  
                             l2790 0CD2                               l2782 0CBB  
                             l2774 0CAC                               l2598 0906  
                             l2950 0AB9                               l2942 0A99  
                             l2934 0A76                               l2926 0A4D  
                             l2918 0A32                               l3902 09FC  
                             l4286 0778                               l4278 0743  
                             l4198 04CE                               l2696 0B90  
                             l2688 0B6F                               l2880 0F75  
                             l2872 0F54                               l2864 0F45  
                             l2856 0F2E                               l2848 0EC9  
                             l2792 0CD8                               l2784 0CC3  
                             l2776 0CB0                               l2944 0AAF  
                             l2936 0A81                               l2928 0A54  
                             l4288 0799                               ?_cur 0072  
                             l2698 0B94                               l2890 0FB3  
                             l2882 0F83                               l2874 0F68  
                             l2858 0F37                               l2866 0F4B  
                             l2794 0CDC                               l2786 0CC5  
                             l2778 0CB1                               l2946 0AB4  
                             l2938 0A85                               l2980 14C1  
                             l2892 0FBE                               l2884 0F87  
                             l2868 0F4F                               l2796 0CDD  
                             l2788 0CCD                               l2948 0AB8  
                             l2982 14C8                               l2974 13AA  
                             l2990 000E                               l2894 0FCD  
                             l2886 0FA0                               l2878 0F70  
                             l2798 0CE2                               l2984 14CE  
                             l2976 14B7                               l2992 0017  
                             l2896 0FD7                               l2888 0FA6  
                             l2986 14D3                               l2978 14BC  
                             l2994 001D                               l2898 0FD9  
                             l3890 158B                               l2988 14D9  
                             l2996 002C                               l3892 1591  
                             l2998 0031                               l3886 1571  
                             l3894 096F                               l3888 1574  
                             l3896 097D                               l3898 09D6  
                             STR_1 1052                               u2000 16D1  
                             u2001 16D0                               u2010 15E6  
                             u2011 15E5                               u2030 15F8  
                             u2110 1755                               u2031 15F7  
                             u2111 1754                               u3000 0C8C  
                             u2040 1602                               u3001 0C8B  
                             u2041 1601                               u2025 15EA  
                             u2105 1746                               u2210 14B1  
                             u3010 0CB0                               u2130 1770  
                             u2211 14B0                               u3011 0CAF  
                             u2131 176F                               u3020 0CB6  
                             u2060 1615                               u2220 08A4  
                             u2300 1504                               u2205 14A4  
                             u3101 0D70                               u3021 0CB5  
                             u2061 1614                               u2045 15FE  
                             u2221 08A3                               u2301 1503  
                             u2125 1757                               u3102 0D77  
                             u3030 0CBB                               u2230 08D6  
                             u2070 13BD                               u2150 178E  
                             u2310 15BF                               u3111 0D9C  
                             u3103 0D7E                               u3031 0CBA  
                             u2055 1609                               u2231 08D5  
                             u2071 13BC                               u2151 178D  
                             u2135 176C                               u2320 1424  
                             u2400 17CC                               u3200 0ED5  
                             u3112 0DA3                               u3040 0CDC  
                             u2240 08ED                               u2080 13C3  
                             u2321 1423                               u2401 17CB  
                             u3121 0DB8                               u3113 0DAA  
                             u3041 0CDB                               u2241 08EC  
                             u2081 13C2                               u2145 1780  
                             u3122 0DBF                               u3050 0CE2  
                             u2090 1741                               u3211 0EE1  
                             u3123 0DC6                               u3051 0CE1  
                             u2091 1740                               u2315 15BA  
                             u2420 17DD                               u2500 1705  
                             u3300 0F68                               u3220 0EFD  
                             u3212 0EE8                               u3060 0CE7  
                             u2421 17DC                               u2501 1704  
                             u3301 0F67                               u3213 0EEF  
                             u3205 0ED0                               u3141 0DEE  
                             u3061 0CE6                               u2350 143E  
                             u2510 170F                               u2190 149D  
                             u3310 0F6F                               u3142 0DF5  
                             u3070 0CFE                               u2351 143D  
                             u2335 142B                               u2415 17CD  
                             u2511 170E                               u2191 149C  
                             u3311 0F6E                               u3231 0F09  
                             u3151 0E1B                               u3143 0DFC  
                             u3135 0DC8                               u3071 0CFD  
                             u2440 17F1                               u2360 179E  
                             u3320 0F75                               u3232 0F10  
                             u3152 0E22                               u3080 0D03  
                             u3400 0A32                               u2280 144A  
                             u5000 0321                               u2345 1432  
                             u2441 17F0                               u2425 17D9  
                             u2361 179D                               u3321 0F74  
                             u3233 0F17                               u3225 0EF8  
                             u3153 0E29                               u3081 0D02  
                             u3401 0A31                               u2281 1449  
                             u5001 0320                               u2450 17F6  
                             u2370 17A9                               u2530 1722  
                             u3330 0F87                               u5010 0486  
                             u2451 17F5                               u2435 17E5  
                             u2371 17A8                               u2531 1721  
                             u2515 170B                               u3331 0F86  
                             u3171 0E51                               u3091 0D54  
                             u5011 0485                               u2380 17BA  
                             u2540 1727                               u2460 16DD  
                             u3340 0F96                               u3260 0F3B  
                             u3172 0E58                               u3092 0D5B  
                             u2700 095B                               u2620 08FD  
                             u3500 0AB4                               u3420 0A53  
                             u2381 17B9                               u2541 1726  
                             u2525 1716                               u2461 16DC  
                             u3261 0F3A                               u3245 0F19  
                             u3181 0E7E                               u3173 0E5F  
                             u3165 0E2B                               u3093 0D62  
                             u2701 095A                               u2621 08FC  
                             u3501 0AB3                               u3421 0A52  
                             u5005 031D                               u2470 16E8  
                             u3350 0FB3                               u3182 0E85  
                             u2710 0960                               u2630 0914  
                             u3510 0AB8                               u5030 04CE  
                             u2471 16E7                               u3351 0FB2  
                             u3255 0F30                               u3191 0EAB  
                             u3183 0E8C                               u2711 095F  
                             u3511 0AB7                               u3415 0A45  
                             u5031 04CD                               u2480 16F3  
                             u2800 0B7E                               u2720 0AD3  
                             u3360 0FCD                               u3280 0F4F  
                             u3192 0EB2                               u2640 092A  
                             u3440 0A75                               u3600 1525  
                             u5040 0743                               u2481 16F2  
                             u2801 0B7D                               u2721 0AD2  
                             u3361 0FCC                               u3345 0F91  
                             u3281 0F4E                               u3193 0EB9  
                             u2641 0929                               u3441 0A74  
                             u3601 1524                               u5041 0742  
                             u5025 04C3                               u3530 14BC  
                             u2730 0AD9                               u3370 0FEB  
                             u3290 0F54                               u2650 0931  
                             u3610 152C                               u5050 0749  
                             u2395 17BE                               u3531 14BB  
                             u2731 0AD8                               u3371 0FEA  
                             u3355 0FAF                               u3291 0F53  
                             u3275 0F3E                               u2651 0930  
                             u2635 090F                               u3435 0A67  
                             u3611 152B                               u5051 0748  
                             u3540 14CE                               u2740 0ADE  
                             u3460 0A85                               u3380 0A0E  
                             u1940 169A                               u3620 1537  
                             u5060 0772                               u3541 14CD  
                             u2741 0ADD                               u3365 0FC9  
                             u3461 0A84                               u3381 0A0D  
                             u1941 1699                               u3621 1536  
                             u5061 0771                               u3630 13C8  
                             u2910 0BF4                               u2830 0B94  
                             u2750 0B00                               u2670 0943  
                             u3470 0A8B                               u3390 0A12  
                             u5070 0778                               u2495 16F7  
                             u3631 13C7                               u2911 0BF3  
                             u2831 0B93                               u2815 0B80  
                             u2751 0AFF                               u2671 0942  
                             u3471 0A8A                               u3455 0A7A  
                             u3391 0A11                               u5071 0777  
                             u5207 00C6                               u2920 0BF9  
                             u2760 0B06                               u2680 094A  
                             u3480 0A8F                               u1960 16AC  
                             u5080 07A1                               u2921 0BF8  
                             u2905 0BE3                               u2825 0B89  
                             u2761 0B05                               u2681 0949  
                             u2665 0933                               u3481 0A8E  
                             u1961 16AB                               u5081 07A0  
                             u5217 00E7                               u2930 0C0D  
                             u2850 0BB0                               u2770 0B0B  
                             u3490 0AA4                               u5307 003B  
                             u2931 0C0C                               u2851 0BAF  
                             u2771 0B0A                               u1955 169E  
                             u5227 0112                               u2940 0C14  
                             u2860 0BC9                               u2780 0B26  
                             u1980 16BD                               u4700 15A7  
                             u3580 1517                               u5317 004A  
                             u2941 0C13                               u2861 0BC8  
                             u2845 0B97                               u2781 0B25  
                             u1981 16BC                               u4701 15A6  
                             u3581 1516                               u5237 012A  
                             u2950 0C1A                               u2870 0BD1  
                             u2790 0B44                               u3590 151E  
                             u3575 13A2                               u5327 0059  
                             u2951 0C19                               u2871 0BD0  
                             u2855 0BAC                               u2791 0B43  
                             u2695 094D                               u3495 0A9F  
                             u1975 16AD                               u5247 0973  
                             u3591 151D                               u2960 0C2C  
                             u4800 00E1                               u5337 0068  
                             u2961 0C2B                               u1985 16B9  
                             u5257 0A02                               u4801 00E0  
                             u2970 0C3B                               u2890 0BE0  
                             u4810 00F1                               u5347 0077  
                             u2891 0BDF                               u1995 16C5  
                             u5267 0811                               u4811 00F0  
                             u2980 0C58                               u4900 017E  
                             u4820 0100                               u5357 0086  
                             u5277 0012                               u2981 0C57  
                             u2885 0BD5                               u4901 017D  
                             u4821 00FF                               u2990 0C75  
                             u4910 01A2                               u4830 0108  
                             u5367 14DD                               u5287 0021  
                             u2991 0C74                               u2975 0C36  
                             u4911 01A1                               u4831 0107  
                             u4680 157E                               u4920 01E4  
                             u4840 010C                               u5297 002E  
                             u2985 0C54                               u4921 01E3  
                             u4905 017A                               u4841 010B  
                             u4690 159B                               u4930 01EE  
                             u4850 011C                               u2995 0C71  
                             u4931 01ED                               u4915 019E  
                             u4851 011B                               u4940 021E  
                             u4860 0124                               u4941 021D  
                             u4925 01E0                               u4861 0123  
                             u4950 025D                               u4870 0134  
                             u4951 025C                               u4871 0133  
                             u4960 0272                               u4880 013E  
                             u4961 0271                               u4881 013D  
                             u4970 02BB                               u4890 0144  
                             u4971 02BA                               u4955 0259  
                             u4891 0143                               u4980 02D0  
                             u4981 02CF                               u4965 026E  
                             u4990 0310                               u4991 030F  
                             u4975 02B7                               u4985 02CC  
                     __CFG_WRT$OFF 0000                               _dis2 00CF  
                             abs@a 0070                               _dday 00E2  
                             _lee2 096C                               _date 01A4  
 __end_of_I2C_Master_RepeatedStart 1383                               _pes2 00C5  
                             _main 008C                               com@E 0071  
                             _itoa 1443                               _hour 006A  
                             _peso 00ED                               _temp 00BB  
                             _time 00AF                               _year 0064  
                             cur@a 0075                               cur@b 0072  
                             _port 136C                         _Binary2BCD 0817  
                             btemp 007E                               _utoa 0880  
                             _word 1571                               start 0000  
                    __CFG_IESO$OFF 0000                    ___fldiv@new_exp 004C  
                            ??_abs 0072                              ??_com 0071  
                            ??_cur 0073                   ?_I2C_Master_Init 0020  
                 ?_I2C_Master_Read 0070                   ?_I2C_Master_Wait 0070  
                 ?_I2C_Master_Stop 0070                              ?_lee2 0070  
                    ___fltol@sign1 0079                              ?_main 0070  
                     ?_read_ds1307 0076                    __end_of___fldiv 0C9F  
                            ?_itoa 0024                    __end_of___awdiv 1800  
                    __CFG_WDTE$OFF 0000                    __end_of___awmod 1731  
                  __end_of___flmul 1000                              ?_port 0070  
                  __end_of___fltol 096C                              _ANSEL 0188  
                  __end_of___lldiv 1797                              ?_utoa 0078  
                            ?_word 0073                    ___awdiv@divisor 0076  
                  __end_of___lwdiv 16D6                    __end_of___lwmod 161A  
                  ___awdiv@counter 0020                              _SPBRG 0099  
                            _PORTA 0005                              _PORTB 0006  
                            _PORTD 0008                              _TRISA 0085  
                            _TRISB 0086                              _TRISD 0088  
                            _TXREG 0019                     __CFG_FCMEN$OFF 0000  
                            _Voldc 006E                              _errno 00D6  
                            _letra 0802                              _temp2 00A0  
                            _month 0066                              _valor 005E  
                  __end_of_receive 153F                              _setup 13FC  
                   __CFG_BOREN$OFF 0000                              pclath 000A  
                            port@E 0070                              utoa@c 0022  
                            word@a 0073                              utoa@v 0020  
                            status 0003                              word@i 0078  
                            wtemp0 007E                     __CFG_MCLRE$OFF 0000  
            __size_of_write_ds1307 0026                    __initialization 07C6  
                     ??_BCD2Binary 0078                       __end_of_lee2 0A08  
                     __end_of_main 07C6                       __end_of_itoa 1469  
                     __end_of_port 1372                       __end_of_utoa 08F2  
                     __end_of_word 15A8                             ??_lee2 0054  
                           ??_main 0059                             ??_itoa 007D  
                           ??_port 0070                             ??_utoa 007C  
                           ??_word 0075                  ?_I2C_Master_Start 0070  
                ?_I2C_Master_Write 0070                 ??_I2C_Master_Start 0070  
               ??_I2C_Master_Write 0072                             ?_letra 0070  
                 ___awdiv@dividend 0078                             ?_setup 0070  
                           _ANSELH 0189                 __end_of_BCD2Binary 1692  
                     _write_ds1307 1469                             _SPBRGH 009A  
                           _SSPADD 0093                             _SSPCON 0014  
                           _SSPBUF 0013                        ?_Binary2BCD 0028  
                 __end_of___xxtofl 0AC2                     __CFG_PWRTE$OFF 0000  
         _I2C_Master_RepeatedStart 137A                   __end_of_lcd_init 008C  
                           _Voldc2 00EA                             ___wmul 141E  
                        ??___fldiv 0042                          ??___awdiv 007A  
                        ??___awmod 007B                          ??___flmul 0028  
                        ??___fltol 0074                          ??___lldiv 0078  
                        ??___lwdiv 0074                          ??___lwmod 0074  
                           _enviar 00EF                   ___awdiv@quotient 0022  
                           _minute 006C                             _second 00E6  
                  ___awmod@divisor 0024                             _valor2 00EE  
                           _valor3 00DE                             _valor4 00DC  
                  ___awmod@counter 007C                             letra@E 0072  
               __size_of__Umul8_16 0027                          ??_receive 0070  
                     ___xxtofl@arg 007A                   __end_ofexp@coeff 102E  
                     ___xxtofl@exp 0079                       ___xxtofl@val 0070  
                 __end_oflog@coeff 1052            __end_of__initialization 07FC  
                       ___fltol@f1 0070                     __pcstackCOMMON 0070  
                     __pidataBANK1 153F                       __pidataBANK3 1395  
                    __end_of_letra 0817                      __end_of_setup 141E  
                    ??_BCD2LowerCh 0070                __size_of_Binary2BCD 0069  
             __size_of_read_ds1307 003B                      ??_BCD2UpperCh 0070  
               __size_of_lcd_clear 000D                            ??_letra 0071  
                          ??_setup 007E                         __pbssBANK0 005C  
                       __pbssBANK1 00D2                         __pbssBANK3 0190  
                __end_of__Umul8_16 14B6                         __pmaintext 008C  
                          ?___wmul 0070                  read_ds1307@r_data 0078  
                        ?___xxtofl 0070                            _SSPCON2 0091  
              __end_of_BCD2LowerCh 136C                          ?_lcd_init 0070  
                          _SSPSTAT 0094                         __stringtab 1000  
              __end_of_BCD2UpperCh 13AA                     BCD2LowerCh@bcd 0070  
                __end_of_lcd_clear 13B7                            ___fldiv 0AC2  
                          ___awdiv 1797                            ___awmod 16D6  
                          ___flmul 0C9F                            ___fltol 08F2  
                          ___lldiv 1731                    __size_of___wmul 0025  
                          ___lwdiv 1692                            ___lwmod 15E0  
                          __ptext1 1469                            __ptext2 13FC  
                          __ptext3 15A8                            __ptext4 1731  
                          __ptext5 1511                            __ptext6 161A  
                          __ptext7 0004                            __ptext8 138C  
                          __ptext9 1383                            _guardar 019A  
                     __size_of_abs 0011                       __size_of_com 0014  
                     __size_of_cur 002D                         ??___xxtofl 0074  
                          _receive 1511                   ___awmod@dividend 0026  
         __size_of_I2C_Master_Init 0038           __size_of_I2C_Master_Read 002E  
         __size_of_I2C_Master_Wait 000D           __size_of_I2C_Master_Stop 0009  
                          clrloop0 1373                         ??_lcd_init 0072  
                          _voltaje 00D2               end_of_initialization 07FC  
       ??_I2C_Master_RepeatedStart 0070                            itoa@buf 0029  
                          itoa@val 0024                       ??_Binary2BCD 002A  
        __size_of_I2C_Master_Start 0009          __size_of_I2C_Master_Write 000A  
                  ___lldiv@divisor 0070                    ___lldiv@counter 007D  
                        _RCSTAbits 0018                   I2C_Master_Init@c 0020  
                 I2C_Master_Read@a 0070                            utoa@buf 0023  
                          utoa@val 0078                          _PORTAbits 0005  
                        _PORTBbits 0006                          _PORTCbits 0007  
                        _PORTDbits 0008                        _BCD2LowerCh 1367  
               __end_of_Binary2BCD 0880                      ___xxtofl@sign 0078  
                        _TRISBbits 0086                          _TRISCbits 0087  
                      _BCD2UpperCh 139E                        ___fldiv@grs 004E  
                      ___fldiv@rem 0047                        ___flmul@grs 002E  
                      BCD2Binary@a 0076                        BCD2Binary@r 0078  
                      BCD2Binary@t 007A                          _TXSTAbits 0098  
                   BCD2UpperCh@bcd 0071                     __end_of___wmul 1443  
                      _BAUDCTLbits 0187                start_initialization 07C6  
                      __end_of_abs 13D5                        __end_of_com 13FC  
                      __end_of_cur 14E3                       Binary2BCD@t1 002C  
                     Binary2BCD@t2 002E                  ??_I2C_Master_Init 0024  
                ??_I2C_Master_Read 0072                  ??_I2C_Master_Wait 0070  
                ??_I2C_Master_Stop 0070           __CFG_FOSC$INTRC_NOCLKOUT 0000  
                         ??___wmul 0074                         init_fetch0 13D5  
                        __Umul8_16 148F                        __pdataBANK1 00A0  
                      __pdataBANK3 01A4                      ??_read_ds1307 0078  
                        ___fldiv@a 003A                          ___fldiv@b 003E  
                        ___flmul@a 0024                          ___flmul@b 0020  
                        ___latbits 0002                      __pcstackBANK0 0020  
                __size_of___xxtofl 00BA                  __size_of_lcd_init 007E  
                 _I2C_Master_Start 1383                   _I2C_Master_Write 0004  
                 ___lwdiv@dividend 0072                           ?___fldiv 003A  
                         ?___awdiv 0076                           ?___awmod 0024  
                         ?___flmul 0020                           ?___fltol 0070  
                         ?___lldiv 0070                 read_ds1307@address 0076  
                       ?__Umul8_16 0070                           ?___lwdiv 0070  
                         ?___lwmod 0070                          _lcd_clear 13AA  
                        __pstrings 1000                           ?_receive 0070  
              __end_of_read_ds1307 1655                   ___lwdiv@quotient 0075  
                   __size_of_letra 0015                     __size_of_setup 0022  
                    ?_write_ds1307 0072                     ___wmul@product 0074  
                        clear_ram0 1372                          _raw_temp2 00D8  
                         _PIR1bits 000C                          _set_count 0062  
                       _BCD2Binary 1655                         ?_lcd_clear 0070  
                      __stringbase 1005                  ___wmul@multiplier 0070  
                     ?_BCD2LowerCh 0070                          cur@tiempo 0076  
                     ?_BCD2UpperCh 0070                I2C_Master_Read@temp 0074  
                   ??_write_ds1307 0076                        Binary2BCD@a 0028  
                      ??__Umul8_16 0072  __size_of_I2C_Master_RepeatedStart 0009  
                 __size_of___fldiv 01DD                   __size_of___awdiv 0069  
                 __size_of___awmod 005B                   __size_of___flmul 0361  
        ?_I2C_Master_RepeatedStart 0070                   __size_of___fltol 007A  
                 __size_of___lldiv 0066                   __size_of___lwdiv 0044  
                 __size_of___lwmod 003A                 __end_of__stringtab 1006  
                      _read_ds1307 161A                    _I2C_Master_Init 15A8  
                  _I2C_Master_Read 14E3                           ___xxtofl 0A08  
                  _I2C_Master_Wait 13B7                    _I2C_Master_Stop 138C  
              write_ds1307@address 0072                   __size_of_receive 002E  
                  ___lwdiv@divisor 0070                    ___lwdiv@counter 0077  
                         __ptext10 137A                           __ptext11 14E3  
                         __ptext20 0A08                           __ptext12 13B7  
                         __ptext21 08F2                           __ptext13 096C  
                         __ptext30 13C4                           __ptext22 0C9F  
                         __ptext14 1571                           __ptext31 0817  
                         __ptext23 148F                           __ptext15 0802  
                         __ptext32 16D6                           __ptext24 0AC2  
                         __ptext16 1443                           __ptext33 1797  
                         __ptext25 000E                           __ptext17 0880  
                         __ptext34 139E                           __ptext26 13AA  
                         __ptext18 15E0                           __ptext35 1367  
                         __ptext27 14B6                           __ptext19 1692  
                         __ptext36 1655                           __ptext28 13E8  
                         __ptext37 141E                           __ptext29 136C  
                __CFG_BOR4V$BOR40V 0000                           _lcd_init 000E  
                         lee2@coso 0058                           _guardar2 0190  
                    __size_of_lee2 009C                      __size_of_main 073A  
                    __size_of_itoa 0026                      __size_of_port 0006  
                    __size_of_utoa 0072                      __size_of_word 0037  
                         _raw_temp 00DA                        ?_BCD2Binary 0076  
                      ??_lcd_clear 0072                           _voltaje2 00E8  
                         exp@coeff 1006                           log@coeff 102E  
         __end_of_I2C_Master_Start 138C           __end_of_I2C_Master_Write 000E  
                         itoa@base 0026                           init_ram0 13D9  
                 ___lwmod@dividend 0072                   ___lldiv@dividend 0074  
               write_ds1307@w_data 0074                          stringcode 1000  
          __end_of_I2C_Master_Init 15E0            __end_of_I2C_Master_Read 1511  
          __end_of_I2C_Master_Wait 13C4               __end_of_write_ds1307 148F  
          __end_of_I2C_Master_Stop 1395                           utoa@base 007A  
           __Umul8_16@multiplicand 0070                   ___lldiv@quotient 0079  
                I2C_Master_Write@d 0070                    ___lwmod@divisor 0070  
                  ___lwmod@counter 0075                           stringdir 1000  
                         stringtab 1000               __size_of_BCD2LowerCh 0005  
                      _SSPCON2bits 0091               __size_of_BCD2UpperCh 000C  
              __size_of_BCD2Binary 003D               __Umul8_16@multiplier 0078  
                __Umul8_16@product 0074  
