

Microchip MPLAB XC8 Assembler V2.10 build 88905656 
                                                                                               Mon Feb 24 07:25:49 2020

Microchip MPLAB XC8 C Compiler v2.10 (Free license) build 20190730164152 Og1 
     1                           	processor	16F887
     2                           	opt	pw 120
     3                           	opt	flic
     4                           	psect	strings,global,class=STRING,delta=2
     5                           	psect	cinit,global,class=CODE,merge=1,delta=2
     6                           	psect	bssBANK1,global,class=BANK1,space=1,delta=1
     7                           	psect	bssBANK3,global,class=BANK3,space=1,delta=1
     8                           	psect	clrtext,global,class=CODE,delta=2
     9                           	psect	cstackBANK3,global,class=BANK3,space=1,delta=1
    10                           	psect	cstackBANK1,global,class=BANK1,space=1,delta=1
    11                           	psect	cstackCOMMON,global,class=COMMON,space=1,delta=1
    12                           	psect	cstackBANK0,global,class=BANK0,space=1,delta=1
    13                           	psect	maintext,global,class=CODE,split=1,delta=2
    14                           	psect	text1,local,class=CODE,merge=1,delta=2
    15                           	psect	text2,local,class=CODE,merge=1,delta=2
    16                           	psect	text3,local,class=CODE,merge=1,delta=2
    17                           	psect	text4,local,class=CODE,merge=1,delta=2
    18                           	psect	text5,local,class=CODE,merge=1,delta=2
    19                           	psect	text6,local,class=CODE,merge=1,delta=2
    20                           	psect	text7,local,class=CODE,merge=1,delta=2
    21                           	psect	text8,local,class=CODE,merge=1,delta=2
    22                           	psect	text9,local,class=CODE,merge=1,delta=2
    23                           	psect	text10,local,class=CODE,merge=1,delta=2
    24                           	psect	text11,local,class=CODE,merge=1,delta=2
    25                           	psect	text12,local,class=CODE,merge=1,delta=2
    26                           	psect	text13,local,class=CODE,merge=1,delta=2
    27                           	psect	text14,local,class=CODE,merge=1,delta=2
    28                           	psect	text15,local,class=CODE,merge=1,delta=2
    29                           	psect	text16,local,class=CODE,merge=1,delta=2
    30                           	psect	text17,local,class=CODE,merge=1,delta=2,group=2
    31                           	psect	text18,local,class=CODE,merge=1,delta=2,group=2
    32                           	psect	text19,local,class=CODE,merge=1,delta=2,group=2
    33                           	psect	text20,local,class=CODE,merge=1,delta=2,group=2
    34                           	psect	text21,local,class=CODE,merge=1,delta=2,group=2
    35                           	psect	text22,local,class=CODE,merge=1,delta=2,group=2
    36                           	psect	text23,local,class=CODE,merge=1,delta=2,group=1
    37                           	psect	text24,local,class=CODE,merge=1,delta=2,group=1
    38                           	psect	text25,local,class=CODE,merge=1,delta=2,group=2
    39                           	psect	text26,local,class=CODE,merge=1,delta=2,group=1
    40                           	psect	text27,local,class=CODE,merge=1,delta=2,group=1
    41                           	psect	text28,local,class=CODE,merge=1,delta=2,group=1
    42                           	psect	text29,local,class=CODE,merge=1,delta=2
    43                           	psect	text30,local,class=CODE,merge=1,delta=2
    44                           	psect	text31,local,class=CODE,merge=1,delta=2,group=1
    45                           	psect	text32,local,class=CODE,merge=1,delta=2,group=1
    46                           	psect	text33,local,class=CODE,merge=1,delta=2
    47                           	psect	text34,local,class=CODE,merge=1,delta=2
    48                           	psect	text35,local,class=CODE,merge=1,delta=2
    49                           	psect	text36,local,class=CODE,merge=1,delta=2
    50                           	psect	text37,local,class=CODE,merge=1,delta=2,group=2
    51                           	psect	text38,local,class=CODE,merge=1,delta=2,group=2
    52                           	psect	text39,local,class=CODE,merge=1,delta=2,group=1
    53                           	psect	text40,local,class=CODE,merge=1,delta=2,group=1
    54                           	psect	text41,local,class=CODE,merge=1,delta=2,group=1
    55                           	psect	text42,local,class=CODE,merge=1,delta=2,group=1
    56                           	psect	text43,local,class=CODE,merge=1,delta=2,group=1
    57                           	psect	text44,local,class=CODE,merge=1,delta=2,group=1
    58                           	psect	text45,local,class=CODE,merge=1,delta=2,group=1
    59                           	dabs	1,0x7E,2
    60  0000                     
    61                           ; Version 2.10
    62                           ; Generated 31/07/2019 GMT
    63                           ; 
    64                           ; Copyright © 2019, Microchip Technology Inc. and its subsidiaries ("Microchip")
    65                           ; All rights reserved.
    66                           ; 
    67                           ; This software is developed by Microchip Technology Inc. and its subsidiaries ("Microch
      +                          ip").
    68                           ; 
    69                           ; Redistribution and use in source and binary forms, with or without modification, are
    70                           ; permitted provided that the following conditions are met:
    71                           ; 
    72                           ;     1. Redistributions of source code must retain the above copyright notice, this lis
      +                          t of
    73                           ;        conditions and the following disclaimer.
    74                           ; 
    75                           ;     2. Redistributions in binary form must reproduce the above copyright notice, this 
      +                          list
    76                           ;        of conditions and the following disclaimer in the documentation and/or other
    77                           ;        materials provided with the distribution.
    78                           ; 
    79                           ;     3. Microchip's name may not be used to endorse or promote products derived from th
      +                          is
    80                           ;        software without specific prior written permission.
    81                           ; 
    82                           ; THIS SOFTWARE IS PROVIDED BY MICROCHIP "AS IS" AND ANY EXPRESS OR IMPLIED WARRANTIES,
    83                           ; INCLUDING, BUT NOT LIMITED TO, THE IMPLIED WARRANTIES OF MERCHANTABILITY AND FITNESS F
      +                          OR
    84                           ; PURPOSE ARE DISCLAIMED.  IN NO EVENT SHALL MICROCHIP BE LIABLE FOR ANY DIRECT, INDIREC
      +                          T,
    85                           ; INCIDENTAL, SPECIAL, EXEMPLARY, OR CONSEQUENTIAL DAMAGES (INCLUDING BUT NOT LIMITED TO
    86                           ; PROCUREMENT OF SUBSTITUTE GOODS OR SERVICES; LOSS OF USE, DATA OR PROFITS; OR BUSINESS
    87                           ; INTERRUPTION) HOWSOEVER CAUSED AND ON ANY THEORY OF LIABILITY, WHETHER IN CONTRACT, ST
      +                          RICT
    88                           ; LIABILITY, OR TORT (INCLUDING NEGLIGENCE OR OTHERWISE) ARISING IN ANY WAY OUT OF THE U
      +                          SE OF
    89                           ; THIS SOFTWARE, EVEN IF ADVISED OF THE POSSIBILITY OF SUCH DAMAGE.
    90                           ; 
    91                           ; 
    92                           ; Code-generator required, PIC16F887 Definitions
    93                           ; 
    94                           ; SFR Addresses
    95  0000                     	;# 
    96  0001                     	;# 
    97  0002                     	;# 
    98  0003                     	;# 
    99  0004                     	;# 
   100  0005                     	;# 
   101  0006                     	;# 
   102  0007                     	;# 
   103  0008                     	;# 
   104  0009                     	;# 
   105  000A                     	;# 
   106  000B                     	;# 
   107  000C                     	;# 
   108  000D                     	;# 
   109  000E                     	;# 
   110  000E                     	;# 
   111  000F                     	;# 
   112  0010                     	;# 
   113  0011                     	;# 
   114  0012                     	;# 
   115  0013                     	;# 
   116  0014                     	;# 
   117  0015                     	;# 
   118  0015                     	;# 
   119  0016                     	;# 
   120  0017                     	;# 
   121  0018                     	;# 
   122  0019                     	;# 
   123  001A                     	;# 
   124  001B                     	;# 
   125  001B                     	;# 
   126  001C                     	;# 
   127  001D                     	;# 
   128  001E                     	;# 
   129  001F                     	;# 
   130  0081                     	;# 
   131  0085                     	;# 
   132  0086                     	;# 
   133  0087                     	;# 
   134  0088                     	;# 
   135  0089                     	;# 
   136  008C                     	;# 
   137  008D                     	;# 
   138  008E                     	;# 
   139  008F                     	;# 
   140  0090                     	;# 
   141  0091                     	;# 
   142  0092                     	;# 
   143  0093                     	;# 
   144  0093                     	;# 
   145  0093                     	;# 
   146  0094                     	;# 
   147  0095                     	;# 
   148  0096                     	;# 
   149  0097                     	;# 
   150  0098                     	;# 
   151  0099                     	;# 
   152  009A                     	;# 
   153  009B                     	;# 
   154  009C                     	;# 
   155  009D                     	;# 
   156  009E                     	;# 
   157  009F                     	;# 
   158  0105                     	;# 
   159  0107                     	;# 
   160  0108                     	;# 
   161  0109                     	;# 
   162  010C                     	;# 
   163  010C                     	;# 
   164  010D                     	;# 
   165  010E                     	;# 
   166  010F                     	;# 
   167  0185                     	;# 
   168  0187                     	;# 
   169  0188                     	;# 
   170  0189                     	;# 
   171  018C                     	;# 
   172  018D                     	;# 
   173  0000                     	;# 
   174  0001                     	;# 
   175  0002                     	;# 
   176  0003                     	;# 
   177  0004                     	;# 
   178  0005                     	;# 
   179  0006                     	;# 
   180  0007                     	;# 
   181  0008                     	;# 
   182  0009                     	;# 
   183  000A                     	;# 
   184  000B                     	;# 
   185  000C                     	;# 
   186  000D                     	;# 
   187  000E                     	;# 
   188  000E                     	;# 
   189  000F                     	;# 
   190  0010                     	;# 
   191  0011                     	;# 
   192  0012                     	;# 
   193  0013                     	;# 
   194  0014                     	;# 
   195  0015                     	;# 
   196  0015                     	;# 
   197  0016                     	;# 
   198  0017                     	;# 
   199  0018                     	;# 
   200  0019                     	;# 
   201  001A                     	;# 
   202  001B                     	;# 
   203  001B                     	;# 
   204  001C                     	;# 
   205  001D                     	;# 
   206  001E                     	;# 
   207  001F                     	;# 
   208  0081                     	;# 
   209  0085                     	;# 
   210  0086                     	;# 
   211  0087                     	;# 
   212  0088                     	;# 
   213  0089                     	;# 
   214  008C                     	;# 
   215  008D                     	;# 
   216  008E                     	;# 
   217  008F                     	;# 
   218  0090                     	;# 
   219  0091                     	;# 
   220  0092                     	;# 
   221  0093                     	;# 
   222  0093                     	;# 
   223  0093                     	;# 
   224  0094                     	;# 
   225  0095                     	;# 
   226  0096                     	;# 
   227  0097                     	;# 
   228  0098                     	;# 
   229  0099                     	;# 
   230  009A                     	;# 
   231  009B                     	;# 
   232  009C                     	;# 
   233  009D                     	;# 
   234  009E                     	;# 
   235  009F                     	;# 
   236  0105                     	;# 
   237  0107                     	;# 
   238  0108                     	;# 
   239  0109                     	;# 
   240  010C                     	;# 
   241  010C                     	;# 
   242  010D                     	;# 
   243  010E                     	;# 
   244  010F                     	;# 
   245  0185                     	;# 
   246  0187                     	;# 
   247  0188                     	;# 
   248  0189                     	;# 
   249  018C                     	;# 
   250  018D                     	;# 
   251  0000                     	;# 
   252  0001                     	;# 
   253  0002                     	;# 
   254  0003                     	;# 
   255  0004                     	;# 
   256  0005                     	;# 
   257  0006                     	;# 
   258  0007                     	;# 
   259  0008                     	;# 
   260  0009                     	;# 
   261  000A                     	;# 
   262  000B                     	;# 
   263  000C                     	;# 
   264  000D                     	;# 
   265  000E                     	;# 
   266  000E                     	;# 
   267  000F                     	;# 
   268  0010                     	;# 
   269  0011                     	;# 
   270  0012                     	;# 
   271  0013                     	;# 
   272  0014                     	;# 
   273  0015                     	;# 
   274  0015                     	;# 
   275  0016                     	;# 
   276  0017                     	;# 
   277  0018                     	;# 
   278  0019                     	;# 
   279  001A                     	;# 
   280  001B                     	;# 
   281  001B                     	;# 
   282  001C                     	;# 
   283  001D                     	;# 
   284  001E                     	;# 
   285  001F                     	;# 
   286  0081                     	;# 
   287  0085                     	;# 
   288  0086                     	;# 
   289  0087                     	;# 
   290  0088                     	;# 
   291  0089                     	;# 
   292  008C                     	;# 
   293  008D                     	;# 
   294  008E                     	;# 
   295  008F                     	;# 
   296  0090                     	;# 
   297  0091                     	;# 
   298  0092                     	;# 
   299  0093                     	;# 
   300  0093                     	;# 
   301  0093                     	;# 
   302  0094                     	;# 
   303  0095                     	;# 
   304  0096                     	;# 
   305  0097                     	;# 
   306  0098                     	;# 
   307  0099                     	;# 
   308  009A                     	;# 
   309  009B                     	;# 
   310  009C                     	;# 
   311  009D                     	;# 
   312  009E                     	;# 
   313  009F                     	;# 
   314  0105                     	;# 
   315  0107                     	;# 
   316  0108                     	;# 
   317  0109                     	;# 
   318  010C                     	;# 
   319  010C                     	;# 
   320  010D                     	;# 
   321  010E                     	;# 
   322  010F                     	;# 
   323  0185                     	;# 
   324  0187                     	;# 
   325  0188                     	;# 
   326  0189                     	;# 
   327  018C                     	;# 
   328  018D                     	;# 
   329                           
   330                           	psect	strings
   331  1800                     __pstrings:	
   332  1800                     stringtab:	
   333  1800                     __stringtab:	
   334                           
   335                           ;	String table - string pointers are 1 byte each
   336  1800  1BFF               	btfsc	btemp+1,7
   337  1801  280A               	ljmp	stringcode
   338  1802  1383               	bcf	3,7
   339  1803  187F               	btfsc	btemp+1,0
   340  1804  1783               	bsf	3,7
   341  1805  0800               	movf	0,w
   342  1806  0A84               	incf	4,f
   343  1807  1903               	skipnz
   344  1808  0AFF               	incf	btemp+1,f
   345  1809  0008               	return
   346  180A                     stringcode:	
   347  180A                     stringdir:	
   348  180A  3018               	movlw	high stringdir
   349  180B  008A               	movwf	10
   350  180C  0804               	movf	4,w
   351  180D  0A84               	incf	4,f
   352  180E  0782               	addwf	2,f
   353  180F                     __stringbase:	
   354  180F  3400               	retlw	0
   355  1810                     __end_of__stringtab:	
   356  1810                     exp@coeff:	
   357  1810  3400               	retlw	0
   358  1811  3400               	retlw	0
   359  1812  3480               	retlw	128
   360  1813  343F               	retlw	63
   361  1814  3418               	retlw	24
   362  1815  3472               	retlw	114
   363  1816  3431               	retlw	49
   364  1817  343F               	retlw	63
   365  1818  34F0               	retlw	240
   366  1819  34FD               	retlw	253
   367  181A  3475               	retlw	117
   368  181B  343E               	retlw	62
   369  181C  3447               	retlw	71
   370  181D  3458               	retlw	88
   371  181E  3463               	retlw	99
   372  181F  343D               	retlw	61
   373  1820  3458               	retlw	88
   374  1821  3495               	retlw	149
   375  1822  341D               	retlw	29
   376  1823  343C               	retlw	60
   377  1824  3482               	retlw	130
   378  1825  34C4               	retlw	196
   379  1826  34AE               	retlw	174
   380  1827  343A               	retlw	58
   381  1828  34A8               	retlw	168
   382  1829  3478               	retlw	120
   383  182A  3421               	retlw	33
   384  182B  3439               	retlw	57
   385  182C  34EF               	retlw	239
   386  182D  3493               	retlw	147
   387  182E  3480               	retlw	128
   388  182F  3437               	retlw	55
   389  1830  34A0               	retlw	160
   390  1831  3492               	retlw	146
   391  1832  34A7               	retlw	167
   392  1833  3435               	retlw	53
   393  1834  3446               	retlw	70
   394  1835  3456               	retlw	86
   395  1836  3415               	retlw	21
   396  1837  3434               	retlw	52
   397  1838                     __end_ofexp@coeff:	
   398  1838                     log@coeff:	
   399  1838  3400               	retlw	0
   400  1839  3400               	retlw	0
   401  183A  3400               	retlw	0
   402  183B  3400               	retlw	0
   403  183C  34C4               	retlw	196
   404  183D  34FF               	retlw	255
   405  183E  347F               	retlw	127
   406  183F  343F               	retlw	63
   407  1840  3480               	retlw	128
   408  1841  34EF               	retlw	239
   409  1842  34FF               	retlw	255
   410  1843  34BE               	retlw	190
   411  1844  3490               	retlw	144
   412  1845  34E1               	retlw	225
   413  1846  34A9               	retlw	169
   414  1847  343E               	retlw	62
   415  1848  34EC               	retlw	236
   416  1849  3482               	retlw	130
   417  184A  3476               	retlw	118
   418  184B  34BE               	retlw	190
   419  184C  3482               	retlw	130
   420  184D  34AD               	retlw	173
   421  184E  342B               	retlw	43
   422  184F  343E               	retlw	62
   423  1850  340E               	retlw	14
   424  1851  343C               	retlw	60
   425  1852  34C3               	retlw	195
   426  1853  34BD               	retlw	189
   427  1854  3487               	retlw	135
   428  1855  34D1               	retlw	209
   429  1856  3413               	retlw	19
   430  1857  343D               	retlw	61
   431  1858  3441               	retlw	65
   432  1859  3478               	retlw	120
   433  185A  34D3               	retlw	211
   434  185B  34BB               	retlw	187
   435  185C                     __end_oflog@coeff:	
   436  0013                     _SSPBUF	set	19
   437  0014                     _SSPCON	set	20
   438  0006                     _PORTB	set	6
   439  0007                     _PORTCbits	set	7
   440  0006                     _PORTBbits	set	6
   441  0008                     _PORTD	set	8
   442  0018                     _RCSTAbits	set	24
   443  0019                     _TXREG	set	25
   444  000C                     _PIR1bits	set	12
   445  0005                     _PORTAbits	set	5
   446  001A                     _RCREG	set	26
   447  0008                     _PORTDbits	set	8
   448  0005                     _PORTA	set	5
   449  001F                     _ADCON0bits	set	31
   450  0094                     _SSPSTATbits	set	148
   451  0094                     _SSPSTAT	set	148
   452  0088                     _TRISD	set	136
   453  0086                     _TRISB	set	134
   454  0085                     _TRISA	set	133
   455  009A                     _SPBRGH	set	154
   456  0099                     _SPBRG	set	153
   457  0098                     _TXSTAbits	set	152
   458  009F                     _ADCON1bits	set	159
   459  043B                     _TRISC3	set	1083
   460  043D                     _TRISC5	set	1085
   461  043A                     _TRISC2	set	1082
   462  0189                     _ANSELH	set	393
   463  0188                     _ANSEL	set	392
   464  0187                     _BAUDCTLbits	set	391
   465  185C                     STR_1:	
   466  185C  3450               	retlw	80	;'P'
   467  185D  3431               	retlw	49	;'1'
   468  185E  3400               	retlw	0
   469  185F                     STR_2:	
   470  185F  3450               	retlw	80	;'P'
   471  1860  3432               	retlw	50	;'2'
   472  1861  3400               	retlw	0
   473  1862                     STR_3:	
   474  1862  3450               	retlw	80	;'P'
   475  1863  3433               	retlw	51	;'3'
   476  1864  3400               	retlw	0
   477  1865                     STR_4:	
   478  1865  3476               	retlw	118	;'v'
   479  1866  3400               	retlw	0
   480  1865                     
   481                           ; #config settings
   482  0000                     
   483                           	psect	cinit
   484  07EB                     start_initialization:	
   485  07EB                     __initialization:	
   486                           
   487                           ; Clear objects allocated to BANK1
   488  07EB  1683               	bsf	3,5	;RP0=1, select bank1
   489  07EC  1303               	bcf	3,6	;RP1=0, select bank1
   490  07ED  01E8               	clrf	__pbssBANK1& (0+127)
   491  07EE  01E9               	clrf	(__pbssBANK1+1)& (0+127)
   492  07EF  01EA               	clrf	(__pbssBANK1+2)& (0+127)
   493  07F0  01EB               	clrf	(__pbssBANK1+3)& (0+127)
   494  07F1  01EC               	clrf	(__pbssBANK1+4)& (0+127)
   495  07F2  01ED               	clrf	(__pbssBANK1+5)& (0+127)
   496                           
   497                           ; Clear objects allocated to BANK3
   498  07F3  1783               	bsf	3,7	;select IRP bank2
   499  07F4  3090               	movlw	low __pbssBANK3
   500  07F5  0084               	movwf	4
   501  07F6  30AE               	movlw	low (__pbssBANK3+30)
   502  07F7  160A  118A  2000  120A  118A  	fcall	clear_ram0
   503  07FC                     end_of_initialization:	
   504                           ;End of C runtime variable initialization code
   505                           
   506  07FC                     __end_of__initialization:	
   507  07FC  0183               	clrf	3
   508  07FD  160A  118A  2ED1   	ljmp	_main	;jump to C main() function
   509                           
   510                           	psect	bssBANK1
   511  00E8                     __pbssBANK1:	
   512  00E8                     _valor2:	
   513  00E8                     	ds	1
   514  00E9                     _valor:	
   515  00E9                     	ds	1
   516  00EA                     _enviar:	
   517  00EA                     	ds	1
   518  00EB                     _Voldc2:	
   519  00EB                     	ds	1
   520  00EC                     _Voldc:	
   521  00EC                     	ds	1
   522  00ED                     _i:	
   523  00ED                     	ds	1
   524                           
   525                           	psect	bssBANK3
   526  0190                     __pbssBANK3:	
   527  0190                     _voltaje2:	
   528  0190                     	ds	4
   529  0194                     _voltaje:	
   530  0194                     	ds	4
   531  0198                     _errno:	
   532  0198                     	ds	2
   533  019A                     _guardar2:	
   534  019A                     	ds	10
   535  01A4                     _guardar:	
   536  01A4                     	ds	10
   537                           
   538                           	psect	clrtext
   539  1000                     clear_ram0:	
   540                           ;	Called with FSR containing the base address, and
   541                           ;	W with the last address+1
   542                           
   543  1000  0064               	clrwdt	;clear the watchdog before getting into this loop
   544  1001                     clrloop0:	
   545  1001  0180               	clrf	0	;clear RAM location pointed to by FSR
   546  1002  0A84               	incf	4,f	;increment pointer
   547  1003  0604               	xorwf	4,w	;XOR with final address
   548  1004  1903               	btfsc	3,2	;have we reached the end yet?
   549  1005  3400               	retlw	0	;all done for this memory range, return
   550  1006  0604               	xorwf	4,w	;XOR again to restore value
   551  1007  2801               	goto	clrloop0	;do the next byte
   552                           
   553                           	psect	cstackBANK3
   554  01AE                     __pcstackBANK3:	
   555  01AE                     _ftoa2$1420:	
   556                           
   557                           ; 4 bytes @ 0x0
   558  01AE                     	ds	4
   559  01B2                     _ftoa2$1421:	
   560                           
   561                           ; 4 bytes @ 0x4
   562  01B2                     	ds	4
   563  01B6                     ftoa2@i:	
   564                           
   565                           ; 2 bytes @ 0x8
   566  01B6                     	ds	2
   567  01B8                     ftoa2@coso:	
   568                           
   569                           ; 2 bytes @ 0xA
   570  01B8                     	ds	2
   571  01BA                     ftoa2@cosof:	
   572                           
   573                           ; 4 bytes @ 0xC
   574  01BA                     	ds	4
   575                           
   576                           	psect	cstackBANK1
   577  00A0                     __pcstackBANK1:	
   578  00A0                     ?_floor:	
   579  00A0                     ?_eval_poly:	
   580                           ; 4 bytes @ 0x0
   581                           
   582  00A0                     ?___flsub:	
   583                           ; 4 bytes @ 0x0
   584                           
   585  00A0                     ___flsub@a:	
   586                           ; 4 bytes @ 0x0
   587                           
   588  00A0                     ___fldiv@rem:	
   589                           ; 4 bytes @ 0x0
   590                           
   591  00A0                     floor@x:	
   592                           ; 4 bytes @ 0x0
   593                           
   594  00A0                     eval_poly@x:	
   595                           ; 4 bytes @ 0x0
   596                           
   597                           
   598                           ; 4 bytes @ 0x0
   599  00A0                     	ds	4
   600  00A4                     ___fldiv@sign:	
   601  00A4                     eval_poly@d:	
   602                           ; 1 bytes @ 0x4
   603                           
   604  00A4                     ___flsub@b:	
   605                           ; 1 bytes @ 0x4
   606                           
   607  00A4                     floor@i:	
   608                           ; 4 bytes @ 0x4
   609                           
   610                           
   611                           ; 4 bytes @ 0x4
   612  00A4                     	ds	1
   613  00A5                     ___fldiv@new_exp:	
   614  00A5                     eval_poly@n:	
   615                           ; 2 bytes @ 0x5
   616                           
   617                           
   618                           ; 2 bytes @ 0x5
   619  00A5                     	ds	2
   620  00A7                     ??_eval_poly:	
   621  00A7                     ___fldiv@grs:	
   622                           ; 1 bytes @ 0x7
   623                           
   624                           
   625                           ; 4 bytes @ 0x7
   626  00A7                     	ds	1
   627  00A8                     floor@expon:	
   628                           
   629                           ; 2 bytes @ 0x8
   630  00A8                     	ds	3
   631  00AB                     ___fldiv@bexp:	
   632                           
   633                           ; 1 bytes @ 0xB
   634  00AB                     	ds	1
   635  00AC                     ___fldiv@aexp:	
   636  00AC                     eval_poly@res:	
   637                           ; 1 bytes @ 0xC
   638                           
   639                           
   640                           ; 4 bytes @ 0xC
   641  00AC                     	ds	4
   642  00B0                     ?_log:	
   643  00B0                     ?_ldexp:	
   644                           ; 4 bytes @ 0x10
   645                           
   646  00B0                     ldexp@value:	
   647                           ; 4 bytes @ 0x10
   648                           
   649  00B0                     log@x:	
   650                           ; 4 bytes @ 0x10
   651                           
   652                           
   653                           ; 4 bytes @ 0x10
   654  00B0                     	ds	4
   655  00B4                     ldexp@newexp:	
   656                           
   657                           ; 2 bytes @ 0x14
   658  00B4                     	ds	2
   659  00B6                     ?_exp:	
   660  00B6                     exp@x:	
   661                           ; 4 bytes @ 0x16
   662                           
   663                           
   664                           ; 4 bytes @ 0x16
   665  00B6                     	ds	4
   666  00BA                     _exp$1424:	
   667                           
   668                           ; 4 bytes @ 0x1A
   669  00BA                     	ds	4
   670  00BE                     exp@exponent:	
   671                           
   672                           ; 2 bytes @ 0x1E
   673  00BE                     	ds	2
   674  00C0                     exp@sign:	
   675                           
   676                           ; 1 bytes @ 0x20
   677  00C0                     	ds	1
   678  00C1                     ?_pow:	
   679  00C1                     pow@x:	
   680                           ; 4 bytes @ 0x21
   681                           
   682                           
   683                           ; 4 bytes @ 0x21
   684  00C1                     	ds	4
   685  00C5                     pow@y:	
   686                           
   687                           ; 4 bytes @ 0x25
   688  00C5                     	ds	4
   689  00C9                     ??_pow:	
   690                           
   691                           ; 1 bytes @ 0x29
   692  00C9                     	ds	1
   693  00CA                     _pow$1422:	
   694                           
   695                           ; 4 bytes @ 0x2A
   696  00CA                     	ds	4
   697  00CE                     _pow$1423:	
   698                           
   699                           ; 4 bytes @ 0x2E
   700  00CE                     	ds	4
   701  00D2                     pow@sign:	
   702                           
   703                           ; 1 bytes @ 0x32
   704  00D2                     	ds	1
   705  00D3                     pow@yi:	
   706                           
   707                           ; 4 bytes @ 0x33
   708  00D3                     	ds	4
   709  00D7                     ?_ftoa2:	
   710  00D7                     ftoa2@m:	
   711                           ; 1 bytes @ 0x37
   712                           
   713                           
   714                           ; 4 bytes @ 0x37
   715  00D7                     	ds	4
   716  00DB                     ftoa2@Q:	
   717                           
   718                           ; 1 bytes @ 0x3B
   719  00DB                     	ds	1
   720  00DC                     ftoa2@puntor:	
   721                           
   722                           ; 2 bytes @ 0x3C
   723  00DC                     	ds	2
   724  00DE                     ??_ftoa2:	
   725                           
   726                           ; 1 bytes @ 0x3E
   727  00DE                     	ds	2
   728  00E0                     ??_lee1:	
   729  00E0                     ??_lee3:	
   730                           ; 1 bytes @ 0x40
   731                           
   732  00E0                     ??_ADCread4:	
   733                           ; 1 bytes @ 0x40
   734                           
   735                           
   736                           ; 1 bytes @ 0x40
   737  00E0                     	ds	4
   738  00E4                     ??_Recieve:	
   739  00E4                     lee1@coso:	
   740                           ; 1 bytes @ 0x44
   741                           
   742  00E4                     lee3@coso2:	
   743                           ; 1 bytes @ 0x44
   744                           
   745                           
   746                           ; 1 bytes @ 0x44
   747  00E4                     	ds	1
   748  00E5                     ??_main:	
   749                           
   750                           ; 1 bytes @ 0x45
   751  00E5                     	ds	3
   752                           
   753                           	psect	cstackCOMMON
   754  0070                     __pcstackCOMMON:	
   755  0070                     ?___flge:	
   756  0070                     ?_setup:	
   757                           ; 1 bit 
   758                           
   759  0070                     ?_spiWrite:	
   760                           ; 1 bytes @ 0x0
   761                           
   762  0070                     ??_spiWrite:	
   763                           ; 1 bytes @ 0x0
   764                           
   765  0070                     ?_spiRead:	
   766                           ; 1 bytes @ 0x0
   767                           
   768  0070                     ??_spiRead:	
   769                           ; 1 bytes @ 0x0
   770                           
   771  0070                     ?_spiInit:	
   772                           ; 1 bytes @ 0x0
   773                           
   774  0070                     ?_port:	
   775                           ; 1 bytes @ 0x0
   776                           
   777  0070                     ??_port:	
   778                           ; 1 bytes @ 0x0
   779                           
   780  0070                     ?_com:	
   781                           ; 1 bytes @ 0x0
   782                           
   783  0070                     ?_lcd_clear:	
   784                           ; 1 bytes @ 0x0
   785                           
   786  0070                     ?_lcd_init:	
   787                           ; 1 bytes @ 0x0
   788                           
   789  0070                     ?_letra:	
   790                           ; 1 bytes @ 0x0
   791                           
   792  0070                     ?_lee1:	
   793                           ; 1 bytes @ 0x0
   794                           
   795  0070                     ?_lee2:	
   796                           ; 1 bytes @ 0x0
   797                           
   798  0070                     ?_lee3:	
   799                           ; 1 bytes @ 0x0
   800                           
   801  0070                     ?_lee4:	
   802                           ; 1 bytes @ 0x0
   803                           
   804  0070                     ?_ADCread3:	
   805                           ; 1 bytes @ 0x0
   806                           
   807  0070                     ?_ADCread4:	
   808                           ; 1 bytes @ 0x0
   809                           
   810  0070                     ?_reverse:	
   811                           ; 1 bytes @ 0x0
   812                           
   813  0070                     ?_Recieve:	
   814                           ; 1 bytes @ 0x0
   815                           
   816  0070                     ?_main:	
   817                           ; 1 bytes @ 0x0
   818                           
   819  0070                     ?_spiReceiveWait:	
   820                           ; 1 bytes @ 0x0
   821                           
   822  0070                     ??_spiReceiveWait:	
   823                           ; 1 bytes @ 0x0
   824                           
   825  0070                     ?__Umul8_16:	
   826                           ; 1 bytes @ 0x0
   827                           
   828  0070                     ?___awdiv:	
   829                           ; 2 bytes @ 0x0
   830                           
   831  0070                     ?___awmod:	
   832                           ; 2 bytes @ 0x0
   833                           
   834  0070                     ?___lwdiv:	
   835                           ; 2 bytes @ 0x0
   836                           
   837  0070                     ?___lwmod:	
   838                           ; 2 bytes @ 0x0
   839                           
   840  0070                     ?___flneg:	
   841                           ; 2 bytes @ 0x0
   842                           
   843  0070                     ?___fltol:	
   844                           ; 4 bytes @ 0x0
   845                           
   846  0070                     port@E:	
   847                           ; 4 bytes @ 0x0
   848                           
   849  0070                     spiInit@sDataSample:	
   850                           ; 1 bytes @ 0x0
   851                           
   852  0070                     spiWrite@dat:	
   853                           ; 1 bytes @ 0x0
   854                           
   855  0070                     __Umul8_16@multiplicand:	
   856                           ; 1 bytes @ 0x0
   857                           
   858  0070                     reverse@len:	
   859                           ; 1 bytes @ 0x0
   860                           
   861  0070                     ___awdiv@divisor:	
   862                           ; 2 bytes @ 0x0
   863                           
   864  0070                     ___awmod@divisor:	
   865                           ; 2 bytes @ 0x0
   866                           
   867  0070                     ___lwdiv@divisor:	
   868                           ; 2 bytes @ 0x0
   869                           
   870  0070                     ___lwmod@divisor:	
   871                           ; 2 bytes @ 0x0
   872                           
   873  0070                     ___flge@ff1:	
   874                           ; 2 bytes @ 0x0
   875                           
   876  0070                     ___flneg@f1:	
   877                           ; 4 bytes @ 0x0
   878                           
   879  0070                     ___fltol@f1:	
   880                           ; 4 bytes @ 0x0
   881                           
   882                           
   883                           ; 4 bytes @ 0x0
   884  0070                     	ds	1
   885  0071                     ??_com:	
   886  0071                     ??_letra:	
   887                           ; 1 bytes @ 0x1
   888                           
   889  0071                     spiInit@sClockIdle:	
   890                           ; 1 bytes @ 0x1
   891                           
   892                           
   893                           ; 1 bytes @ 0x1
   894  0071                     	ds	1
   895  0072                     ??__Umul8_16:	
   896  0072                     ??_reverse:	
   897                           ; 1 bytes @ 0x2
   898                           
   899  0072                     com@E:	
   900                           ; 1 bytes @ 0x2
   901                           
   902  0072                     letra@E:	
   903                           ; 1 bytes @ 0x2
   904                           
   905  0072                     spiInit@sTransmitEdge:	
   906                           ; 1 bytes @ 0x2
   907                           
   908  0072                     ___awdiv@dividend:	
   909                           ; 1 bytes @ 0x2
   910                           
   911  0072                     ___awmod@dividend:	
   912                           ; 2 bytes @ 0x2
   913                           
   914  0072                     ___lwdiv@dividend:	
   915                           ; 2 bytes @ 0x2
   916                           
   917  0072                     ___lwmod@dividend:	
   918                           ; 2 bytes @ 0x2
   919                           
   920                           
   921                           ; 2 bytes @ 0x2
   922  0072                     	ds	1
   923  0073                     ??_spiInit:	
   924  0073                     ??_lcd_clear:	
   925                           ; 1 bytes @ 0x3
   926                           
   927  0073                     ?_cur:	
   928                           ; 1 bytes @ 0x3
   929                           
   930  0073                     ??_lcd_init:	
   931                           ; 1 bytes @ 0x3
   932                           
   933  0073                     ?_word:	
   934                           ; 1 bytes @ 0x3
   935                           
   936  0073                     cur@b:	
   937                           ; 1 bytes @ 0x3
   938                           
   939  0073                     spiInit@sType:	
   940                           ; 1 bytes @ 0x3
   941                           
   942  0073                     word@a:	
   943                           ; 1 bytes @ 0x3
   944                           
   945                           
   946                           ; 2 bytes @ 0x3
   947  0073                     	ds	1
   948  0074                     ??_setup:	
   949  0074                     ??_cur:	
   950                           ; 1 bytes @ 0x4
   951                           
   952  0074                     ??___awdiv:	
   953                           ; 1 bytes @ 0x4
   954                           
   955  0074                     ??___awmod:	
   956                           ; 1 bytes @ 0x4
   957                           
   958  0074                     ??___flneg:	
   959                           ; 1 bytes @ 0x4
   960                           
   961  0074                     ??___fltol:	
   962                           ; 1 bytes @ 0x4
   963                           
   964  0074                     ??___lwdiv:	
   965                           ; 1 bytes @ 0x4
   966                           
   967  0074                     ??___lwmod:	
   968                           ; 1 bytes @ 0x4
   969                           
   970  0074                     __Umul8_16@product:	
   971                           ; 1 bytes @ 0x4
   972                           
   973  0074                     ___flge@ff2:	
   974                           ; 2 bytes @ 0x4
   975                           
   976                           
   977                           ; 4 bytes @ 0x4
   978  0074                     	ds	1
   979  0075                     ??_word:	
   980  0075                     ___awdiv@counter:	
   981                           ; 1 bytes @ 0x5
   982                           
   983  0075                     ___awmod@counter:	
   984                           ; 1 bytes @ 0x5
   985                           
   986  0075                     ___lwmod@counter:	
   987                           ; 1 bytes @ 0x5
   988                           
   989  0075                     reverse@tiempo:	
   990                           ; 1 bytes @ 0x5
   991                           
   992  0075                     ___lwdiv@quotient:	
   993                           ; 2 bytes @ 0x5
   994                           
   995                           
   996                           ; 2 bytes @ 0x5
   997  0075                     	ds	1
   998  0076                     cur@a:	
   999  0076                     ___awdiv@sign:	
  1000                           ; 1 bytes @ 0x6
  1001                           
  1002  0076                     ___awmod@sign:	
  1003                           ; 1 bytes @ 0x6
  1004                           
  1005  0076                     __Umul8_16@word_mpld:	
  1006                           ; 1 bytes @ 0x6
  1007                           
  1008                           
  1009                           ; 2 bytes @ 0x6
  1010  0076                     	ds	1
  1011  0077                     cur@tiempo:	
  1012  0077                     ___lwdiv@counter:	
  1013                           ; 1 bytes @ 0x7
  1014                           
  1015  0077                     reverse@i:	
  1016                           ; 1 bytes @ 0x7
  1017                           
  1018  0077                     ___awdiv@quotient:	
  1019                           ; 2 bytes @ 0x7
  1020                           
  1021                           
  1022                           ; 2 bytes @ 0x7
  1023  0077                     	ds	1
  1024  0078                     ?_utoa:	
  1025  0078                     ??___flge:	
  1026                           ; 1 bytes @ 0x8
  1027                           
  1028  0078                     __Umul8_16@multiplier:	
  1029                           ; 1 bytes @ 0x8
  1030                           
  1031  0078                     word@i:	
  1032                           ; 1 bytes @ 0x8
  1033                           
  1034  0078                     utoa@val:	
  1035                           ; 2 bytes @ 0x8
  1036                           
  1037                           
  1038                           ; 2 bytes @ 0x8
  1039  0078                     	ds	1
  1040  0079                     ___fltol@sign1:	
  1041  0079                     reverse@j:	
  1042                           ; 1 bytes @ 0x9
  1043                           
  1044                           
  1045                           ; 2 bytes @ 0x9
  1046  0079                     	ds	1
  1047  007A                     ___fltol@exp1:	
  1048  007A                     utoa@base:	
  1049                           ; 1 bytes @ 0xA
  1050                           
  1051                           
  1052                           ; 2 bytes @ 0xA
  1053  007A                     	ds	1
  1054  007B                     ??_frexp:	
  1055  007B                     reverse@zpr:	
  1056                           ; 1 bytes @ 0xB
  1057                           
  1058                           
  1059                           ; 1 bytes @ 0xB
  1060  007B                     	ds	1
  1061  007C                     ??_utoa:	
  1062  007C                     ??_Dtr:	
  1063                           ; 1 bytes @ 0xC
  1064                           
  1065                           
  1066                           ; 1 bytes @ 0xC
  1067  007C                     	ds	1
  1068  007D                     ??_itoa:	
  1069  007D                     ??_log:	
  1070                           ; 1 bytes @ 0xD
  1071                           
  1072  007D                     ??_floor:	
  1073                           ; 1 bytes @ 0xD
  1074                           
  1075  007D                     ??___flsub:	
  1076                           ; 1 bytes @ 0xD
  1077                           
  1078                           
  1079                           ; 1 bytes @ 0xD
  1080  007D                     	ds	1
  1081                           
  1082                           	psect	cstackBANK0
  1083  0020                     __pcstackBANK0:	
  1084  0020                     ?_Dtr:	
  1085  0020                     ?___xxtofl:	
  1086                           ; 2 bytes @ 0x0
  1087                           
  1088  0020                     Dtr@y:	
  1089                           ; 4 bytes @ 0x0
  1090                           
  1091  0020                     utoa@v:	
  1092                           ; 2 bytes @ 0x0
  1093                           
  1094  0020                     ___xxtofl@val:	
  1095                           ; 2 bytes @ 0x0
  1096                           
  1097                           
  1098                           ; 4 bytes @ 0x0
  1099  0020                     	ds	2
  1100  0022                     Dtr@zpr:	
  1101  0022                     utoa@c:	
  1102                           ; 1 bytes @ 0x2
  1103                           
  1104                           
  1105                           ; 1 bytes @ 0x2
  1106  0022                     	ds	1
  1107  0023                     utoa@buf:	
  1108  0023                     Dtr@P:	
  1109                           ; 1 bytes @ 0x3
  1110                           
  1111                           
  1112                           ; 2 bytes @ 0x3
  1113  0023                     	ds	1
  1114  0024                     ?_itoa:	
  1115  0024                     ??___xxtofl:	
  1116                           ; 1 bytes @ 0x4
  1117                           
  1118  0024                     itoa@val:	
  1119                           ; 1 bytes @ 0x4
  1120                           
  1121                           
  1122                           ; 2 bytes @ 0x4
  1123  0024                     	ds	1
  1124  0025                     Dtr@i:	
  1125                           
  1126                           ; 2 bytes @ 0x5
  1127  0025                     	ds	1
  1128  0026                     itoa@base:	
  1129                           
  1130                           ; 2 bytes @ 0x6
  1131  0026                     	ds	2
  1132  0028                     ___xxtofl@sign:	
  1133                           
  1134                           ; 1 bytes @ 0x8
  1135  0028                     	ds	1
  1136  0029                     ___xxtofl@exp:	
  1137  0029                     itoa@buf:	
  1138                           ; 1 bytes @ 0x9
  1139                           
  1140                           
  1141                           ; 1 bytes @ 0x9
  1142  0029                     	ds	1
  1143  002A                     ___xxtofl@arg:	
  1144                           
  1145                           ; 4 bytes @ 0xA
  1146  002A                     	ds	4
  1147  002E                     ?___fleq:	
  1148  002E                     ___fleq@ff1:	
  1149                           ; 1 bit 
  1150                           
  1151                           
  1152                           ; 4 bytes @ 0xE
  1153  002E                     	ds	4
  1154  0032                     ___fleq@ff2:	
  1155                           
  1156                           ; 4 bytes @ 0x12
  1157  0032                     	ds	4
  1158  0036                     ??___fleq:	
  1159                           
  1160                           ; 1 bytes @ 0x16
  1161  0036                     	ds	4
  1162  003A                     ?_frexp:	
  1163  003A                     frexp@value:	
  1164                           ; 4 bytes @ 0x1A
  1165                           
  1166                           
  1167                           ; 4 bytes @ 0x1A
  1168  003A                     	ds	4
  1169  003E                     frexp@eptr:	
  1170                           
  1171                           ; 1 bytes @ 0x1E
  1172  003E                     	ds	1
  1173  003F                     ?___flmul:	
  1174  003F                     ___flmul@b:	
  1175                           ; 4 bytes @ 0x1F
  1176                           
  1177                           
  1178                           ; 4 bytes @ 0x1F
  1179  003F                     	ds	4
  1180  0043                     ___flmul@a:	
  1181                           
  1182                           ; 4 bytes @ 0x23
  1183  0043                     	ds	4
  1184  0047                     ??___flmul:	
  1185                           
  1186                           ; 1 bytes @ 0x27
  1187  0047                     	ds	5
  1188  004C                     ___flmul@sign:	
  1189                           
  1190                           ; 1 bytes @ 0x2C
  1191  004C                     	ds	1
  1192  004D                     ___flmul@aexp:	
  1193                           
  1194                           ; 1 bytes @ 0x2D
  1195  004D                     	ds	1
  1196  004E                     ___flmul@grs:	
  1197                           
  1198                           ; 4 bytes @ 0x2E
  1199  004E                     	ds	4
  1200  0052                     ___flmul@bexp:	
  1201                           
  1202                           ; 1 bytes @ 0x32
  1203  0052                     	ds	1
  1204  0053                     ___flmul@prod:	
  1205                           
  1206                           ; 4 bytes @ 0x33
  1207  0053                     	ds	4
  1208  0057                     ___flmul@temp:	
  1209                           
  1210                           ; 2 bytes @ 0x37
  1211  0057                     	ds	2
  1212  0059                     ?___fladd:	
  1213  0059                     ?___fldiv:	
  1214                           ; 4 bytes @ 0x39
  1215                           
  1216  0059                     ___fladd@b:	
  1217                           ; 4 bytes @ 0x39
  1218                           
  1219  0059                     ___fldiv@a:	
  1220                           ; 4 bytes @ 0x39
  1221                           
  1222                           
  1223                           ; 4 bytes @ 0x39
  1224  0059                     	ds	4
  1225  005D                     ___fladd@a:	
  1226  005D                     ___fldiv@b:	
  1227                           ; 4 bytes @ 0x3D
  1228                           
  1229                           
  1230                           ; 4 bytes @ 0x3D
  1231  005D                     	ds	4
  1232  0061                     ??___fladd:	
  1233  0061                     ??___fldiv:	
  1234                           ; 1 bytes @ 0x41
  1235                           
  1236                           
  1237                           ; 1 bytes @ 0x41
  1238  0061                     	ds	5
  1239  0066                     ??_lee2:	
  1240  0066                     ??_lee4:	
  1241                           ; 1 bytes @ 0x46
  1242                           
  1243  0066                     ??_ADCread3:	
  1244                           ; 1 bytes @ 0x46
  1245                           
  1246                           
  1247                           ; 1 bytes @ 0x46
  1248  0066                     	ds	3
  1249  0069                     ___fladd@signs:	
  1250                           
  1251                           ; 1 bytes @ 0x49
  1252  0069                     	ds	1
  1253  006A                     lee2@coso:	
  1254  006A                     lee4@coso2:	
  1255                           ; 1 bytes @ 0x4A
  1256                           
  1257  006A                     ___fladd@aexp:	
  1258                           ; 1 bytes @ 0x4A
  1259                           
  1260                           
  1261                           ; 1 bytes @ 0x4A
  1262  006A                     	ds	1
  1263  006B                     ___fladd@bexp:	
  1264                           
  1265                           ; 1 bytes @ 0x4B
  1266  006B                     	ds	1
  1267  006C                     ___fladd@grs:	
  1268                           
  1269                           ; 1 bytes @ 0x4C
  1270  006C                     	ds	1
  1271  006D                     ??_ldexp:	
  1272  006D                     log@exponent:	
  1273                           ; 1 bytes @ 0x4D
  1274                           
  1275                           
  1276                           ; 2 bytes @ 0x4D
  1277  006D                     	ds	2
  1278  006F                     ??_exp:	
  1279                           
  1280                           ; 1 bytes @ 0x4F
  1281  006F                     	ds	1
  1282                           
  1283                           	psect	maintext
  1284  16D1                     __pmaintext:	
  1285 ;;
  1286 ;;Main: autosize = 0, tempsize = 3, incstack = 0, save=0
  1287 ;;
  1288 ;; *************** function _main *****************
  1289 ;; Defined at:
  1290 ;;		line 86 in file "master4.c"
  1291 ;; Parameters:    Size  Location     Type
  1292 ;;		None
  1293 ;; Auto vars:     Size  Location     Type
  1294 ;;		None
  1295 ;; Return value:  Size  Location     Type
  1296 ;;                  1    wreg      void 
  1297 ;; Registers used:
  1298 ;;		wreg, fsr0l, fsr0h, status,2, status,0, btemp+1, pclath, cstack
  1299 ;; Tracked objects:
  1300 ;;		On entry : B00/0
  1301 ;;		On exit  : 0/0
  1302 ;;		Unchanged: 0/0
  1303 ;; Data sizes:     COMMON   BANK0   BANK1   BANK3   BANK2
  1304 ;;      Params:         0       0       0       0       0
  1305 ;;      Locals:         0       0       0       0       0
  1306 ;;      Temps:          0       0       3       0       0
  1307 ;;      Totals:         0       0       3       0       0
  1308 ;;Total ram usage:        3 bytes
  1309 ;; Hardware stack levels required when called:    8
  1310 ;; This function calls:
  1311 ;;		_Recieve
  1312 ;;		_cur
  1313 ;;		_lcd_clear
  1314 ;;		_lcd_init
  1315 ;;		_lee1
  1316 ;;		_lee2
  1317 ;;		_lee3
  1318 ;;		_lee4
  1319 ;;		_setup
  1320 ;;		_spiRead
  1321 ;;		_spiWrite
  1322 ;;		_word
  1323 ;; This function is called by:
  1324 ;;		Startup code after reset
  1325 ;; This function uses a non-reentrant model
  1326 ;;
  1327                           
  1328                           
  1329                           ;psect for function _main
  1330  16D1                     _main:	
  1331  16D1                     l4724:	
  1332                           ;incstack = 0
  1333                           ; Regs used in _main: [wreg-fsr0h+status,2+status,0+btemp+1+pclath+cstack]
  1334                           
  1335                           
  1336                           ;master4.c: 87:     setup();
  1337  16D1  160A  158A  21C2  160A  118A  	fcall	_setup
  1338  16D6                     l4726:	
  1339                           
  1340                           ;master4.c: 88:     TXSTAbits.SYNC = 0;
  1341  16D6  1683               	bsf	3,5	;RP0=1, select bank1
  1342  16D7  1303               	bcf	3,6	;RP1=0, select bank1
  1343  16D8  1218               	bcf	24,4	;volatile
  1344  16D9                     l4728:	
  1345                           
  1346                           ;master4.c: 89:     TXSTAbits.BRGH =1;
  1347  16D9  1518               	bsf	24,2	;volatile
  1348  16DA                     l4730:	
  1349                           
  1350                           ;master4.c: 91:     BAUDCTLbits.BRG16 = 1;
  1351  16DA  1683               	bsf	3,5	;RP0=1, select bank3
  1352  16DB  1703               	bsf	3,6	;RP1=1, select bank3
  1353  16DC  1587               	bsf	7,3	;volatile
  1354  16DD                     l4732:	
  1355                           
  1356                           ;master4.c: 92:     SPBRG = 25;
  1357  16DD  3019               	movlw	25
  1358  16DE  1683               	bsf	3,5	;RP0=1, select bank1
  1359  16DF  1303               	bcf	3,6	;RP1=0, select bank1
  1360  16E0  0099               	movwf	25	;volatile
  1361  16E1                     l4734:	
  1362                           
  1363                           ;master4.c: 93:     SPBRGH = 0;
  1364  16E1  019A               	clrf	26	;volatile
  1365  16E2                     l4736:	
  1366                           
  1367                           ;master4.c: 94:     RCSTAbits.SPEN = 1;
  1368  16E2  1283               	bcf	3,5	;RP0=0, select bank0
  1369  16E3  1303               	bcf	3,6	;RP1=0, select bank0
  1370  16E4  1798               	bsf	24,7	;volatile
  1371  16E5                     l4738:	
  1372                           
  1373                           ;master4.c: 95:     RCSTAbits.RX9 = 0;
  1374  16E5  1318               	bcf	24,6	;volatile
  1375  16E6                     l4740:	
  1376                           
  1377                           ;master4.c: 96:     RCSTAbits.CREN = 1;
  1378  16E6  1618               	bsf	24,4	;volatile
  1379  16E7                     l4742:	
  1380                           
  1381                           ;master4.c: 97:     TXSTAbits.TXEN = 1;
  1382  16E7  1683               	bsf	3,5	;RP0=1, select bank1
  1383  16E8  1303               	bcf	3,6	;RP1=0, select bank1
  1384  16E9  1698               	bsf	24,5	;volatile
  1385  16EA                     l4744:	
  1386                           
  1387                           ;master4.c: 98:     PORTD = 0;
  1388  16EA  1283               	bcf	3,5	;RP0=0, select bank0
  1389  16EB  1303               	bcf	3,6	;RP1=0, select bank0
  1390  16EC  0188               	clrf	8	;volatile
  1391  16ED                     l4746:	
  1392                           
  1393                           ;master4.c: 104:     PORTD = 0;
  1394  16ED  0188               	clrf	8	;volatile
  1395  16EE                     l4748:	
  1396                           
  1397                           ;master4.c: 107:     PORTBbits.RB0=0;
  1398  16EE  1006               	bcf	6,0	;volatile
  1399  16EF                     l4750:	
  1400                           
  1401                           ;master4.c: 108:     lcd_init();
  1402  16EF  160A  158A  2656  160A  118A  	fcall	_lcd_init
  1403  16F4                     l4752:	
  1404                           
  1405                           ;master4.c: 109:     lcd_clear();
  1406  16F4  160A  158A  218A  160A  118A  	fcall	_lcd_clear
  1407  16F9                     l4754:	
  1408                           
  1409                           ;master4.c: 110:     _delay((unsigned long)((250)*(8000000/4000.0)));
  1410  16F9  3003               	movlw	3
  1411  16FA  1683               	bsf	3,5	;RP0=1, select bank1
  1412  16FB  1303               	bcf	3,6	;RP1=0, select bank1
  1413  16FC  00E7               	movwf	(??_main^(0+128)+2)
  1414  16FD  308A               	movlw	138
  1415  16FE  00E6               	movwf	(??_main^(0+128)+1)
  1416  16FF  3055               	movlw	85
  1417  1700  00E5               	movwf	??_main^(0+128)
  1418  1701                     u6747:	
  1419  1701  0BE5               	decfsz	??_main^(0+128),f
  1420  1702  2F01               	goto	u6747
  1421  1703  0BE6               	decfsz	(??_main^(0+128)+1),f
  1422  1704  2F01               	goto	u6747
  1423  1705  0BE7               	decfsz	(??_main^(0+128)+2),f
  1424  1706  2F01               	goto	u6747
  1425  1707                     l4756:	
  1426                           
  1427                           ;master4.c: 123:         cur(1,1);
  1428  1707  01F3               	clrf	cur@b
  1429  1708  0AF3               	incf	cur@b,f
  1430  1709  3001               	movlw	1
  1431  170A  160A  158A  222D  160A  118A  	fcall	_cur
  1432  170F                     l4758:	
  1433                           
  1434                           ;master4.c: 124:         word("P1");
  1435  170F  304D               	movlw	(low ((STR_1-__stringbase)| (0+32768)))& (0+255)
  1436  1710  00F3               	movwf	word@a
  1437  1711  3080               	movlw	128
  1438  1712  00F4               	movwf	word@a+1
  1439  1713  160A  158A  2294  160A  118A  	fcall	_word
  1440  1718                     l4760:	
  1441                           
  1442                           ;master4.c: 125:         cur(1,7);
  1443  1718  3007               	movlw	7
  1444  1719  1683               	bsf	3,5	;RP0=1, select bank1
  1445  171A  1303               	bcf	3,6	;RP1=0, select bank1
  1446  171B  00E5               	movwf	??_main^(0+128)
  1447  171C  0865               	movf	??_main^(0+128),w
  1448  171D  00F3               	movwf	cur@b
  1449  171E  3001               	movlw	1
  1450  171F  160A  158A  222D  160A  118A  	fcall	_cur
  1451  1724                     l4762:	
  1452                           
  1453                           ;master4.c: 126:         word("P2");
  1454  1724  3050               	movlw	(low ((STR_2-__stringbase)| (0+32768)))& (0+255)
  1455  1725  00F3               	movwf	word@a
  1456  1726  3080               	movlw	128
  1457  1727  00F4               	movwf	word@a+1
  1458  1728  160A  158A  2294  160A  118A  	fcall	_word
  1459  172D                     l4764:	
  1460                           
  1461                           ;master4.c: 127:         cur(1,13);
  1462  172D  300D               	movlw	13
  1463  172E  1683               	bsf	3,5	;RP0=1, select bank1
  1464  172F  1303               	bcf	3,6	;RP1=0, select bank1
  1465  1730  00E5               	movwf	??_main^(0+128)
  1466  1731  0865               	movf	??_main^(0+128),w
  1467  1732  00F3               	movwf	cur@b
  1468  1733  3001               	movlw	1
  1469  1734  160A  158A  222D  160A  118A  	fcall	_cur
  1470  1739                     l4766:	
  1471                           
  1472                           ;master4.c: 128:         word("P3");
  1473  1739  3053               	movlw	(low ((STR_3-__stringbase)| (0+32768)))& (0+255)
  1474  173A  00F3               	movwf	word@a
  1475  173B  3080               	movlw	128
  1476  173C  00F4               	movwf	word@a+1
  1477  173D  160A  158A  2294  160A  118A  	fcall	_word
  1478  1742                     l4768:	
  1479                           
  1480                           ;master4.c: 130:         cur(2,5);
  1481  1742  3005               	movlw	5
  1482  1743  1683               	bsf	3,5	;RP0=1, select bank1
  1483  1744  1303               	bcf	3,6	;RP1=0, select bank1
  1484  1745  00E5               	movwf	??_main^(0+128)
  1485  1746  0865               	movf	??_main^(0+128),w
  1486  1747  00F3               	movwf	cur@b
  1487  1748  3002               	movlw	2
  1488  1749  160A  158A  222D  160A  118A  	fcall	_cur
  1489  174E                     l4770:	
  1490                           
  1491                           ;master4.c: 131:         word("v");
  1492  174E  3056               	movlw	(low ((STR_4-__stringbase)| (0+32768)))& (0+255)
  1493  174F  00F3               	movwf	word@a
  1494  1750  3080               	movlw	128
  1495  1751  00F4               	movwf	word@a+1
  1496  1752  160A  158A  2294  160A  118A  	fcall	_word
  1497  1757                     l4772:	
  1498                           
  1499                           ;master4.c: 132:         cur(2,11);
  1500  1757  300B               	movlw	11
  1501  1758  1683               	bsf	3,5	;RP0=1, select bank1
  1502  1759  1303               	bcf	3,6	;RP1=0, select bank1
  1503  175A  00E5               	movwf	??_main^(0+128)
  1504  175B  0865               	movf	??_main^(0+128),w
  1505  175C  00F3               	movwf	cur@b
  1506  175D  3002               	movlw	2
  1507  175E  160A  158A  222D  160A  118A  	fcall	_cur
  1508  1763                     l4774:	
  1509                           
  1510                           ;master4.c: 133:         word("v");
  1511  1763  3056               	movlw	(low ((STR_4-__stringbase)| (0+32768)))& (0+255)
  1512  1764  00F3               	movwf	word@a
  1513  1765  3080               	movlw	128
  1514  1766  00F4               	movwf	word@a+1
  1515  1767  160A  158A  2294  160A  118A  	fcall	_word
  1516  176C                     l4776:	
  1517                           
  1518                           ;master4.c: 134:         Recieve();
  1519  176C  160A  158A  22D6  160A  118A  	fcall	_Recieve
  1520  1771                     l4778:	
  1521                           
  1522                           ;master4.c: 135:         _delay((unsigned long)((50)*(8000000/4000.0)));
  1523  1771  3082               	movlw	130
  1524  1772  1683               	bsf	3,5	;RP0=1, select bank1
  1525  1773  1303               	bcf	3,6	;RP1=0, select bank1
  1526  1774  00E6               	movwf	(??_main^(0+128)+1)
  1527  1775  30DD               	movlw	221
  1528  1776  00E5               	movwf	??_main^(0+128)
  1529  1777                     u6757:	
  1530  1777  0BE5               	decfsz	??_main^(0+128),f
  1531  1778  2F77               	goto	u6757
  1532  1779  0BE6               	decfsz	(??_main^(0+128)+1),f
  1533  177A  2F77               	goto	u6757
  1534  177B                     l4780:	
  1535                           
  1536                           ;master4.c: 136:          PORTCbits.RC2 = 0;
  1537  177B  1283               	bcf	3,5	;RP0=0, select bank0
  1538  177C  1303               	bcf	3,6	;RP1=0, select bank0
  1539  177D  1107               	bcf	7,2	;volatile
  1540  177E                     l4782:	
  1541                           
  1542                           ;master4.c: 137:         spiWrite(1);
  1543  177E  3001               	movlw	1
  1544  177F  160A  158A  2169  160A  118A  	fcall	_spiWrite
  1545  1784                     l4784:	
  1546                           
  1547                           ;master4.c: 139:         valor =spiRead();
  1548  1784  160A  158A  2176  160A  118A  	fcall	_spiRead
  1549  1789  1683               	bsf	3,5	;RP0=1, select bank1
  1550  178A  1303               	bcf	3,6	;RP1=0, select bank1
  1551  178B  00E5               	movwf	??_main^(0+128)
  1552  178C  0865               	movf	??_main^(0+128),w
  1553  178D  00E9               	movwf	_valor^(0+128)
  1554  178E                     l4786:	
  1555                           
  1556                           ;master4.c: 141:         cur(2,1);
  1557  178E  01F3               	clrf	cur@b
  1558  178F  0AF3               	incf	cur@b,f
  1559  1790  3002               	movlw	2
  1560  1791  160A  158A  222D  160A  118A  	fcall	_cur
  1561  1796                     l4788:	
  1562                           
  1563                           ;master4.c: 142:         lee2(valor);
  1564  1796  1683               	bsf	3,5	;RP0=1, select bank1
  1565  1797  1303               	bcf	3,6	;RP1=0, select bank1
  1566  1798  0869               	movf	_valor^(0+128),w
  1567  1799  160A  118A  20AA  160A  118A  	fcall	_lee2
  1568  179E                     l4790:	
  1569                           
  1570                           ;master4.c: 143:         cur(2,2);
  1571  179E  3002               	movlw	2
  1572  179F  1683               	bsf	3,5	;RP0=1, select bank1
  1573  17A0  1303               	bcf	3,6	;RP1=0, select bank1
  1574  17A1  00E5               	movwf	??_main^(0+128)
  1575  17A2  0865               	movf	??_main^(0+128),w
  1576  17A3  00F3               	movwf	cur@b
  1577  17A4  3002               	movlw	2
  1578  17A5  160A  158A  222D  160A  118A  	fcall	_cur
  1579  17AA                     l4792:	
  1580                           
  1581                           ;master4.c: 144:         lee1(valor);
  1582  17AA  1683               	bsf	3,5	;RP0=1, select bank1
  1583  17AB  1303               	bcf	3,6	;RP1=0, select bank1
  1584  17AC  0869               	movf	_valor^(0+128),w
  1585  17AD  160A  118A  21F4  160A  118A  	fcall	_lee1
  1586  17B2                     l4794:	
  1587                           
  1588                           ;master4.c: 145:         PORTCbits.RC2 = 1;
  1589  17B2  1283               	bcf	3,5	;RP0=0, select bank0
  1590  17B3  1303               	bcf	3,6	;RP1=0, select bank0
  1591  17B4  1507               	bsf	7,2	;volatile
  1592  17B5                     l4796:	
  1593                           
  1594                           ;master4.c: 146:          _delay((unsigned long)((50)*(8000000/4000.0)));
  1595  17B5  3082               	movlw	130
  1596  17B6  1683               	bsf	3,5	;RP0=1, select bank1
  1597  17B7  1303               	bcf	3,6	;RP1=0, select bank1
  1598  17B8  00E6               	movwf	(??_main^(0+128)+1)
  1599  17B9  30DD               	movlw	221
  1600  17BA  00E5               	movwf	??_main^(0+128)
  1601  17BB                     u6767:	
  1602  17BB  0BE5               	decfsz	??_main^(0+128),f
  1603  17BC  2FBB               	goto	u6767
  1604  17BD  0BE6               	decfsz	(??_main^(0+128)+1),f
  1605  17BE  2FBB               	goto	u6767
  1606  17BF                     l4798:	
  1607                           
  1608                           ;master4.c: 147:           PORTCbits.RC2 = 0;
  1609  17BF  1283               	bcf	3,5	;RP0=0, select bank0
  1610  17C0  1303               	bcf	3,6	;RP1=0, select bank0
  1611  17C1  1107               	bcf	7,2	;volatile
  1612  17C2                     l4800:	
  1613                           
  1614                           ;master4.c: 148:         spiWrite(0);
  1615  17C2  3000               	movlw	0
  1616  17C3  160A  158A  2169  160A  118A  	fcall	_spiWrite
  1617  17C8                     l4802:	
  1618                           
  1619                           ;master4.c: 149:         valor2 =spiRead();
  1620  17C8  160A  158A  2176  160A  118A  	fcall	_spiRead
  1621  17CD  1683               	bsf	3,5	;RP0=1, select bank1
  1622  17CE  1303               	bcf	3,6	;RP1=0, select bank1
  1623  17CF  00E5               	movwf	??_main^(0+128)
  1624  17D0  0865               	movf	??_main^(0+128),w
  1625  17D1  00E8               	movwf	_valor2^(0+128)
  1626  17D2                     l4804:	
  1627                           
  1628                           ;master4.c: 150:         cur(2,7);
  1629  17D2  3007               	movlw	7
  1630  17D3  00E5               	movwf	??_main^(0+128)
  1631  17D4  0865               	movf	??_main^(0+128),w
  1632  17D5  00F3               	movwf	cur@b
  1633  17D6  3002               	movlw	2
  1634  17D7  160A  158A  222D  160A  118A  	fcall	_cur
  1635  17DC                     l4806:	
  1636                           
  1637                           ;master4.c: 151:         lee4(valor2);
  1638  17DC  1683               	bsf	3,5	;RP0=1, select bank1
  1639  17DD  1303               	bcf	3,6	;RP1=0, select bank1
  1640  17DE  0868               	movf	_valor2^(0+128),w
  1641  17DF  160A  118A  214F  160A  118A  	fcall	_lee4
  1642  17E4                     l4808:	
  1643                           
  1644                           ;master4.c: 153:         cur(2,8);
  1645  17E4  3008               	movlw	8
  1646  17E5  1683               	bsf	3,5	;RP0=1, select bank1
  1647  17E6  1303               	bcf	3,6	;RP1=0, select bank1
  1648  17E7  00E5               	movwf	??_main^(0+128)
  1649  17E8  0865               	movf	??_main^(0+128),w
  1650  17E9  00F3               	movwf	cur@b
  1651  17EA  3002               	movlw	2
  1652  17EB  160A  158A  222D  160A  118A  	fcall	_cur
  1653  17F0                     l4810:	
  1654                           
  1655                           ;master4.c: 154:         lee3(valor2);
  1656  17F0  1683               	bsf	3,5	;RP0=1, select bank1
  1657  17F1  1303               	bcf	3,6	;RP1=0, select bank1
  1658  17F2  0868               	movf	_valor2^(0+128),w
  1659  17F3  160A  118A  22A9  160A  118A  	fcall	_lee3
  1660  17F8                     l4812:	
  1661                           
  1662                           ;master4.c: 155:          PORTCbits.RC2 = 1;
  1663  17F8  1283               	bcf	3,5	;RP0=0, select bank0
  1664  17F9  1303               	bcf	3,6	;RP1=0, select bank0
  1665  17FA  1507               	bsf	7,2	;volatile
  1666  17FB                     l4814:	
  1667                           
  1668                           ;master4.c: 160:         PORTBbits.RB0=1;
  1669  17FB  1406               	bsf	6,0	;volatile
  1670  17FC  2F07               	goto	l4756
  1671  17FD  120A  118A  2800   	ljmp	start
  1672  1800                     __end_of_main:	
  1673                           
  1674                           	psect	text1
  1675  1969                     __ptext1:	
  1676 ;; *************** function _spiWrite *****************
  1677 ;; Defined at:
  1678 ;;		line 35 in file "SPI.c"
  1679 ;; Parameters:    Size  Location     Type
  1680 ;;  dat             1    wreg     unsigned char 
  1681 ;; Auto vars:     Size  Location     Type
  1682 ;;  dat             1    0[COMMON] unsigned char 
  1683 ;; Return value:  Size  Location     Type
  1684 ;;                  1    wreg      void 
  1685 ;; Registers used:
  1686 ;;		wreg
  1687 ;; Tracked objects:
  1688 ;;		On entry : 0/0
  1689 ;;		On exit  : 0/0
  1690 ;;		Unchanged: 0/0
  1691 ;; Data sizes:     COMMON   BANK0   BANK1   BANK3   BANK2
  1692 ;;      Params:         0       0       0       0       0
  1693 ;;      Locals:         1       0       0       0       0
  1694 ;;      Temps:          0       0       0       0       0
  1695 ;;      Totals:         1       0       0       0       0
  1696 ;;Total ram usage:        1 bytes
  1697 ;; Hardware stack levels used:    1
  1698 ;; This function calls:
  1699 ;;		Nothing
  1700 ;; This function is called by:
  1701 ;;		_main
  1702 ;; This function uses a non-reentrant model
  1703 ;;
  1704                           
  1705                           
  1706                           ;psect for function _spiWrite
  1707  1969                     _spiWrite:	
  1708                           
  1709                           ;incstack = 0
  1710                           ; Regs used in _spiWrite: [wreg]
  1711                           ;spiWrite@dat stored from wreg
  1712  1969  00F0               	movwf	spiWrite@dat
  1713  196A                     l3504:	
  1714                           
  1715                           ;SPI.c: 35: void spiWrite(char dat);SPI.c: 36: {;SPI.c: 37:     SSPBUF = dat;
  1716  196A  0870               	movf	spiWrite@dat,w
  1717  196B  1283               	bcf	3,5	;RP0=0, select bank0
  1718  196C  1303               	bcf	3,6	;RP1=0, select bank0
  1719  196D  0093               	movwf	19	;volatile
  1720  196E                     l201:	
  1721  196E  0008               	return
  1722  196F                     __end_of_spiWrite:	
  1723                           
  1724                           	psect	text2
  1725  1976                     __ptext2:	
  1726 ;; *************** function _spiRead *****************
  1727 ;; Defined at:
  1728 ;;		line 48 in file "SPI.c"
  1729 ;; Parameters:    Size  Location     Type
  1730 ;;		None
  1731 ;; Auto vars:     Size  Location     Type
  1732 ;;		None
  1733 ;; Return value:  Size  Location     Type
  1734 ;;                  1    wreg      unsigned char 
  1735 ;; Registers used:
  1736 ;;		wreg, status,2, status,0, pclath, cstack
  1737 ;; Tracked objects:
  1738 ;;		On entry : 0/0
  1739 ;;		On exit  : 0/0
  1740 ;;		Unchanged: 0/0
  1741 ;; Data sizes:     COMMON   BANK0   BANK1   BANK3   BANK2
  1742 ;;      Params:         0       0       0       0       0
  1743 ;;      Locals:         0       0       0       0       0
  1744 ;;      Temps:          0       0       0       0       0
  1745 ;;      Totals:         0       0       0       0       0
  1746 ;;Total ram usage:        0 bytes
  1747 ;; Hardware stack levels used:    1
  1748 ;; Hardware stack levels required when called:    1
  1749 ;; This function calls:
  1750 ;;		_spiReceiveWait
  1751 ;; This function is called by:
  1752 ;;		_main
  1753 ;; This function uses a non-reentrant model
  1754 ;;
  1755                           
  1756                           
  1757                           ;psect for function _spiRead
  1758  1976                     _spiRead:	
  1759  1976                     l3506:	
  1760                           ;incstack = 0
  1761                           ; Regs used in _spiRead: [wreg+status,2+status,0+pclath+cstack]
  1762                           
  1763                           
  1764                           ;SPI.c: 50:     spiReceiveWait();
  1765  1976  160A  158A  216F  160A  158A  	fcall	_spiReceiveWait
  1766  197B                     l3508:	
  1767                           
  1768                           ;SPI.c: 51:     return(SSPBUF);
  1769  197B  1283               	bcf	3,5	;RP0=0, select bank0
  1770  197C  1303               	bcf	3,6	;RP1=0, select bank0
  1771  197D  0813               	movf	19,w	;volatile
  1772  197E                     l209:	
  1773  197E  0008               	return
  1774  197F                     __end_of_spiRead:	
  1775                           
  1776                           	psect	text3
  1777  196F                     __ptext3:	
  1778 ;; *************** function _spiReceiveWait *****************
  1779 ;; Defined at:
  1780 ;;		line 30 in file "SPI.c"
  1781 ;; Parameters:    Size  Location     Type
  1782 ;;		None
  1783 ;; Auto vars:     Size  Location     Type
  1784 ;;		None
  1785 ;; Return value:  Size  Location     Type
  1786 ;;                  1    wreg      void 
  1787 ;; Registers used:
  1788 ;;		None
  1789 ;; Tracked objects:
  1790 ;;		On entry : 0/0
  1791 ;;		On exit  : 0/0
  1792 ;;		Unchanged: 0/0
  1793 ;; Data sizes:     COMMON   BANK0   BANK1   BANK3   BANK2
  1794 ;;      Params:         0       0       0       0       0
  1795 ;;      Locals:         0       0       0       0       0
  1796 ;;      Temps:          0       0       0       0       0
  1797 ;;      Totals:         0       0       0       0       0
  1798 ;;Total ram usage:        0 bytes
  1799 ;; Hardware stack levels used:    1
  1800 ;; This function calls:
  1801 ;;		Nothing
  1802 ;; This function is called by:
  1803 ;;		_spiRead
  1804 ;; This function uses a non-reentrant model
  1805 ;;
  1806                           
  1807                           
  1808                           ;psect for function _spiReceiveWait
  1809  196F                     _spiReceiveWait:	
  1810  196F                     l3406:	
  1811                           ;incstack = 0
  1812                           ; Regs used in _spiReceiveWait: []
  1813                           
  1814  196F                     l195:	
  1815                           ;SPI.c: 32:     while ( !SSPSTATbits.BF );
  1816                           
  1817  196F  1683               	bsf	3,5	;RP0=1, select bank1
  1818  1970  1303               	bcf	3,6	;RP1=0, select bank1
  1819  1971  1C14               	btfss	20,0	;volatile
  1820  1972  2974               	goto	u4601
  1821  1973  2975               	goto	u4600
  1822  1974                     u4601:	
  1823  1974  296F               	goto	l195
  1824  1975                     u4600:	
  1825  1975                     l198:	
  1826  1975  0008               	return
  1827  1976                     __end_of_spiReceiveWait:	
  1828                           
  1829                           	psect	text4
  1830  19C2                     __ptext4:	
  1831 ;; *************** function _setup *****************
  1832 ;; Defined at:
  1833 ;;		line 187 in file "master4.c"
  1834 ;; Parameters:    Size  Location     Type
  1835 ;;		None
  1836 ;; Auto vars:     Size  Location     Type
  1837 ;;		None
  1838 ;; Return value:  Size  Location     Type
  1839 ;;                  1    wreg      void 
  1840 ;; Registers used:
  1841 ;;		wreg, status,2, status,0, pclath, cstack
  1842 ;; Tracked objects:
  1843 ;;		On entry : 0/0
  1844 ;;		On exit  : 0/0
  1845 ;;		Unchanged: 0/0
  1846 ;; Data sizes:     COMMON   BANK0   BANK1   BANK3   BANK2
  1847 ;;      Params:         0       0       0       0       0
  1848 ;;      Locals:         0       0       0       0       0
  1849 ;;      Temps:          0       0       0       0       0
  1850 ;;      Totals:         0       0       0       0       0
  1851 ;;Total ram usage:        0 bytes
  1852 ;; Hardware stack levels used:    1
  1853 ;; Hardware stack levels required when called:    1
  1854 ;; This function calls:
  1855 ;;		_spiInit
  1856 ;; This function is called by:
  1857 ;;		_main
  1858 ;; This function uses a non-reentrant model
  1859 ;;
  1860                           
  1861                           
  1862                           ;psect for function _setup
  1863  19C2                     _setup:	
  1864  19C2                     l3496:	
  1865                           ;incstack = 0
  1866                           ; Regs used in _setup: [wreg+status,2+status,0+pclath+cstack]
  1867                           
  1868                           
  1869                           ;master4.c: 188:     ANSEL=0;
  1870  19C2  1683               	bsf	3,5	;RP0=1, select bank3
  1871  19C3  1703               	bsf	3,6	;RP1=1, select bank3
  1872  19C4  0188               	clrf	8	;volatile
  1873                           
  1874                           ;master4.c: 189:     ANSELH=0;
  1875  19C5  0189               	clrf	9	;volatile
  1876                           
  1877                           ;master4.c: 190:     TRISA=0;
  1878  19C6  1683               	bsf	3,5	;RP0=1, select bank1
  1879  19C7  1303               	bcf	3,6	;RP1=0, select bank1
  1880  19C8  0185               	clrf	5	;volatile
  1881                           
  1882                           ;master4.c: 191:     PORTA=0;
  1883  19C9  1283               	bcf	3,5	;RP0=0, select bank0
  1884  19CA  1303               	bcf	3,6	;RP1=0, select bank0
  1885  19CB  0185               	clrf	5	;volatile
  1886  19CC                     l3498:	
  1887                           
  1888                           ;master4.c: 192:     TRISC2 = 0;
  1889  19CC  1683               	bsf	3,5	;RP0=1, select bank1
  1890  19CD  1303               	bcf	3,6	;RP1=0, select bank1
  1891  19CE  1107               	bcf	7,2	;volatile
  1892                           
  1893                           ;master4.c: 193:     TRISB = 0;
  1894  19CF  0186               	clrf	6	;volatile
  1895                           
  1896                           ;master4.c: 194:     TRISD = 0;
  1897  19D0  0188               	clrf	8	;volatile
  1898                           
  1899                           ;master4.c: 195:     PORTB = 0;
  1900  19D1  1283               	bcf	3,5	;RP0=0, select bank0
  1901  19D2  1303               	bcf	3,6	;RP1=0, select bank0
  1902  19D3  0186               	clrf	6	;volatile
  1903                           
  1904                           ;master4.c: 196:     PORTD = 0;
  1905  19D4  0188               	clrf	8	;volatile
  1906  19D5                     l3500:	
  1907                           
  1908                           ;master4.c: 197:     PORTCbits.RC2 = 1;
  1909  19D5  1507               	bsf	7,2	;volatile
  1910  19D6                     l3502:	
  1911                           
  1912                           ;master4.c: 198:     spiInit(SPI_MASTER_OSC_DIV4, SPI_DATA_SAMPLE_MIDDLE, SPI_CLOCK_IDLE
      +                          _LOW, SPI_IDLE_2_ACTIVE);
  1913  19D6  01F0               	clrf	spiInit@sDataSample
  1914  19D7  01F1               	clrf	spiInit@sClockIdle
  1915  19D8  01F2               	clrf	spiInit@sTransmitEdge
  1916  19D9  3020               	movlw	32
  1917  19DA  120A  118A  2007  160A  158A  	fcall	_spiInit
  1918  19DF                     l175:	
  1919  19DF  0008               	return
  1920  19E0                     __end_of_setup:	
  1921                           
  1922                           	psect	text5
  1923  0007                     __ptext5:	
  1924 ;; *************** function _spiInit *****************
  1925 ;; Defined at:
  1926 ;;		line 13 in file "SPI.c"
  1927 ;; Parameters:    Size  Location     Type
  1928 ;;  sType           1    wreg     enum E1264
  1929 ;;  sDataSample     1    0[COMMON] enum E1272
  1930 ;;  sClockIdle      1    1[COMMON] enum E1276
  1931 ;;  sTransmitEdg    1    2[COMMON] enum E1280
  1932 ;; Auto vars:     Size  Location     Type
  1933 ;;  sType           1    3[COMMON] enum E1264
  1934 ;; Return value:  Size  Location     Type
  1935 ;;                  1    wreg      void 
  1936 ;; Registers used:
  1937 ;;		wreg, status,2, status,0
  1938 ;; Tracked objects:
  1939 ;;		On entry : 0/0
  1940 ;;		On exit  : 0/0
  1941 ;;		Unchanged: 0/0
  1942 ;; Data sizes:     COMMON   BANK0   BANK1   BANK3   BANK2
  1943 ;;      Params:         3       0       0       0       0
  1944 ;;      Locals:         1       0       0       0       0
  1945 ;;      Temps:          0       0       0       0       0
  1946 ;;      Totals:         4       0       0       0       0
  1947 ;;Total ram usage:        4 bytes
  1948 ;; Hardware stack levels used:    1
  1949 ;; This function calls:
  1950 ;;		Nothing
  1951 ;; This function is called by:
  1952 ;;		_setup
  1953 ;; This function uses a non-reentrant model
  1954 ;;
  1955                           
  1956                           
  1957                           ;psect for function _spiInit
  1958  0007                     _spiInit:	
  1959                           
  1960                           ;incstack = 0
  1961                           ; Regs used in _spiInit: [wreg+status,2+status,0]
  1962                           ;spiInit@sType stored from wreg
  1963  0007  00F3               	movwf	spiInit@sType
  1964  0008                     l3396:	
  1965                           
  1966                           ;SPI.c: 13: void spiInit(Spi_Type sType, Spi_Data_Sample sDataSample, Spi_Clock_Idle sCl
      +                          ockIdle, Spi_Transmit_Edge sTransmitEdge);SPI.c: 14: {;SPI.c: 15:     TRISC5 = 0;
  1967  0008  1683               	bsf	3,5	;RP0=1, select bank1
  1968  0009  1303               	bcf	3,6	;RP1=0, select bank1
  1969  000A  1287               	bcf	7,5	;volatile
  1970                           
  1971                           ;SPI.c: 16:     if(sType & 0b00000100)
  1972  000B  1D73               	btfss	spiInit@sType,2
  1973  000C  280E               	goto	u4591
  1974  000D  280F               	goto	u4590
  1975  000E                     u4591:	
  1976  000E  2813               	goto	l3402
  1977  000F                     u4590:	
  1978  000F                     l3398:	
  1979                           
  1980                           ;SPI.c: 17:     {;SPI.c: 18:         SSPSTAT = sTransmitEdge;
  1981  000F  0872               	movf	spiInit@sTransmitEdge,w
  1982  0010  0094               	movwf	20	;volatile
  1983  0011                     l3400:	
  1984                           
  1985                           ;SPI.c: 19:         TRISC3 = 1;
  1986  0011  1587               	bsf	7,3	;volatile
  1987                           
  1988                           ;SPI.c: 20:     }
  1989  0012  2817               	goto	l191
  1990  0013                     l3402:	
  1991                           
  1992                           ;SPI.c: 22:     {;SPI.c: 23:         SSPSTAT = sDataSample | sTransmitEdge;
  1993  0013  0870               	movf	spiInit@sDataSample,w
  1994  0014  0472               	iorwf	spiInit@sTransmitEdge,w
  1995  0015  0094               	movwf	20	;volatile
  1996  0016                     l3404:	
  1997                           
  1998                           ;SPI.c: 24:         TRISC3 = 0;
  1999  0016  1187               	bcf	7,3	;volatile
  2000  0017                     l191:	
  2001                           ;SPI.c: 25:     }
  2002                           
  2003                           
  2004                           ;SPI.c: 27:     SSPCON = sType | sClockIdle;
  2005  0017  0873               	movf	spiInit@sType,w
  2006  0018  0471               	iorwf	spiInit@sClockIdle,w
  2007  0019  1283               	bcf	3,5	;RP0=0, select bank0
  2008  001A  1303               	bcf	3,6	;RP1=0, select bank0
  2009  001B  0094               	movwf	20	;volatile
  2010  001C                     l192:	
  2011  001C  0008               	return
  2012  001D                     __end_of_spiInit:	
  2013                           
  2014                           	psect	text6
  2015  114F                     __ptext6:	
  2016 ;; *************** function _lee4 *****************
  2017 ;; Defined at:
  2018 ;;		line 168 in file "./LCD2.h"
  2019 ;; Parameters:    Size  Location     Type
  2020 ;;  coso2           1    wreg     unsigned char 
  2021 ;; Auto vars:     Size  Location     Type
  2022 ;;  coso2           1   74[BANK0 ] unsigned char 
  2023 ;; Return value:  Size  Location     Type
  2024 ;;                  1    wreg      void 
  2025 ;; Registers used:
  2026 ;;		wreg, fsr0l, fsr0h, status,2, status,0, btemp+1, pclath, cstack
  2027 ;; Tracked objects:
  2028 ;;		On entry : 0/0
  2029 ;;		On exit  : 0/0
  2030 ;;		Unchanged: 0/0
  2031 ;; Data sizes:     COMMON   BANK0   BANK1   BANK3   BANK2
  2032 ;;      Params:         0       0       0       0       0
  2033 ;;      Locals:         0       1       0       0       0
  2034 ;;      Temps:          0       4       0       0       0
  2035 ;;      Totals:         0       5       0       0       0
  2036 ;;Total ram usage:        5 bytes
  2037 ;; Hardware stack levels used:    1
  2038 ;; Hardware stack levels required when called:    3
  2039 ;; This function calls:
  2040 ;;		___fldiv
  2041 ;;		___flmul
  2042 ;;		___fltol
  2043 ;;		___xxtofl
  2044 ;;		_itoa
  2045 ;;		_word
  2046 ;; This function is called by:
  2047 ;;		_main
  2048 ;; This function uses a non-reentrant model
  2049 ;;
  2050                           
  2051                           
  2052                           ;psect for function _lee4
  2053  114F                     _lee4:	
  2054                           
  2055                           ;incstack = 0
  2056                           ; Regs used in _lee4: [wreg-fsr0h+status,2+status,0+btemp+1+pclath+cstack]
  2057                           ;lee4@coso2 stored from wreg
  2058  114F  1283               	bcf	3,5	;RP0=0, select bank0
  2059  1150  1303               	bcf	3,6	;RP1=0, select bank0
  2060  1151  00EA               	movwf	lee4@coso2
  2061  1152                     l4688:	
  2062                           
  2063                           ;./LCD2.h: 169:     _delay((unsigned long)((1)*(8000000/4000.0)));
  2064  1152  3003               	movlw	3
  2065  1153  1283               	bcf	3,5	;RP0=0, select bank0
  2066  1154  1303               	bcf	3,6	;RP1=0, select bank0
  2067  1155  00E7               	movwf	??_lee4+1
  2068  1156  3097               	movlw	151
  2069  1157  00E6               	movwf	??_lee4
  2070  1158                     u6777:	
  2071  1158  0BE6               	decfsz	??_lee4,f
  2072  1159  2958               	goto	u6777
  2073  115A  0BE7               	decfsz	??_lee4+1,f
  2074  115B  2958               	goto	u6777
  2075                           
  2076                           ;./LCD2.h: 171:     Voldc2= coso2;
  2077  115C  1283               	bcf	3,5	;RP0=0, select bank0
  2078  115D  1303               	bcf	3,6	;RP1=0, select bank0
  2079  115E  086A               	movf	lee4@coso2,w
  2080  115F  00E6               	movwf	??_lee4
  2081  1160  0866               	movf	??_lee4,w
  2082  1161  1683               	bsf	3,5	;RP0=1, select bank1
  2083  1162  1303               	bcf	3,6	;RP1=0, select bank1
  2084  1163  00EB               	movwf	_Voldc2^(0+128)
  2085  1164                     l4690:	
  2086                           
  2087                           ;./LCD2.h: 172:     voltaje2=Voldc2*5.0/255.0;
  2088  1164  3043               	movlw	67
  2089  1165  1283               	bcf	3,5	;RP0=0, select bank0
  2090  1166  1303               	bcf	3,6	;RP1=0, select bank0
  2091  1167  00DC               	movwf	___fldiv@a+3
  2092  1168  307F               	movlw	127
  2093  1169  00DB               	movwf	___fldiv@a+2
  2094  116A  3000               	movlw	0
  2095  116B  00DA               	movwf	___fldiv@a+1
  2096  116C  3000               	movlw	0
  2097  116D  00D9               	movwf	___fldiv@a
  2098  116E  3040               	movlw	64
  2099  116F  00C2               	movwf	___flmul@b+3
  2100  1170  30A0               	movlw	160
  2101  1171  00C1               	movwf	___flmul@b+2
  2102  1172  3000               	movlw	0
  2103  1173  00C0               	movwf	___flmul@b+1
  2104  1174  3000               	movlw	0
  2105  1175  00BF               	movwf	___flmul@b
  2106  1176  1683               	bsf	3,5	;RP0=1, select bank1
  2107  1177  1303               	bcf	3,6	;RP1=0, select bank1
  2108  1178  086B               	movf	_Voldc2^(0+128),w
  2109  1179  1283               	bcf	3,5	;RP0=0, select bank0
  2110  117A  1303               	bcf	3,6	;RP1=0, select bank0
  2111  117B  00E6               	movwf	??_lee4
  2112  117C  01E7               	clrf	??_lee4+1
  2113  117D  01E8               	clrf	??_lee4+2
  2114  117E  01E9               	clrf	??_lee4+3
  2115  117F  0869               	movf	??_lee4+3,w
  2116  1180  00A3               	movwf	___xxtofl@val+3
  2117  1181  0868               	movf	??_lee4+2,w
  2118  1182  00A2               	movwf	___xxtofl@val+2
  2119  1183  0867               	movf	??_lee4+1,w
  2120  1184  00A1               	movwf	___xxtofl@val+1
  2121  1185  0866               	movf	??_lee4,w
  2122  1186  00A0               	movwf	___xxtofl@val
  2123  1187  3001               	movlw	1
  2124  1188  160A  118A  235E  160A  118A  	fcall	___xxtofl
  2125  118D  1283               	bcf	3,5	;RP0=0, select bank0
  2126  118E  1303               	bcf	3,6	;RP1=0, select bank0
  2127  118F  0823               	movf	?___xxtofl+3,w
  2128  1190  00C6               	movwf	___flmul@a+3
  2129  1191  0822               	movf	?___xxtofl+2,w
  2130  1192  00C5               	movwf	___flmul@a+2
  2131  1193  0821               	movf	?___xxtofl+1,w
  2132  1194  00C4               	movwf	___flmul@a+1
  2133  1195  0820               	movf	?___xxtofl,w
  2134  1196  00C3               	movwf	___flmul@a
  2135  1197  120A  118A  248A  160A  118A  	fcall	___flmul
  2136  119C  1283               	bcf	3,5	;RP0=0, select bank0
  2137  119D  1303               	bcf	3,6	;RP1=0, select bank0
  2138  119E  0842               	movf	?___flmul+3,w
  2139  119F  00E0               	movwf	___fldiv@b+3
  2140  11A0  0841               	movf	?___flmul+2,w
  2141  11A1  00DF               	movwf	___fldiv@b+2
  2142  11A2  0840               	movf	?___flmul+1,w
  2143  11A3  00DE               	movwf	___fldiv@b+1
  2144  11A4  083F               	movf	?___flmul,w
  2145  11A5  00DD               	movwf	___fldiv@b
  2146  11A6  120A  118A  21EA  160A  118A  	fcall	___fldiv
  2147  11AB  1283               	bcf	3,5	;RP0=0, select bank0
  2148  11AC  1303               	bcf	3,6	;RP1=0, select bank0
  2149  11AD  085C               	movf	?___fldiv+3,w
  2150  11AE  1683               	bsf	3,5	;RP0=1, select bank3
  2151  11AF  1703               	bsf	3,6	;RP1=1, select bank3
  2152  11B0  0093               	movwf	(_voltaje2+3)^(0+384)
  2153  11B1  1283               	bcf	3,5	;RP0=0, select bank0
  2154  11B2  1303               	bcf	3,6	;RP1=0, select bank0
  2155  11B3  085B               	movf	?___fldiv+2,w
  2156  11B4  1683               	bsf	3,5	;RP0=1, select bank3
  2157  11B5  1703               	bsf	3,6	;RP1=1, select bank3
  2158  11B6  0092               	movwf	(_voltaje2+2)^(0+384)
  2159  11B7  1283               	bcf	3,5	;RP0=0, select bank0
  2160  11B8  1303               	bcf	3,6	;RP1=0, select bank0
  2161  11B9  085A               	movf	?___fldiv+1,w
  2162  11BA  1683               	bsf	3,5	;RP0=1, select bank3
  2163  11BB  1703               	bsf	3,6	;RP1=1, select bank3
  2164  11BC  0091               	movwf	(_voltaje2+1)^(0+384)
  2165  11BD  1283               	bcf	3,5	;RP0=0, select bank0
  2166  11BE  1303               	bcf	3,6	;RP1=0, select bank0
  2167  11BF  0859               	movf	?___fldiv,w
  2168  11C0  1683               	bsf	3,5	;RP0=1, select bank3
  2169  11C1  1703               	bsf	3,6	;RP1=1, select bank3
  2170  11C2  0090               	movwf	_voltaje2^(0+384)
  2171  11C3                     l4692:	
  2172                           
  2173                           ;./LCD2.h: 173:      itoa(guardar2,voltaje2,10);
  2174  11C3  0813               	movf	(_voltaje2+3)^(0+384),w
  2175  11C4  00F3               	movwf	___fltol@f1+3
  2176  11C5  0812               	movf	(_voltaje2+2)^(0+384),w
  2177  11C6  00F2               	movwf	___fltol@f1+2
  2178  11C7  0811               	movf	(_voltaje2+1)^(0+384),w
  2179  11C8  00F1               	movwf	___fltol@f1+1
  2180  11C9  0810               	movf	_voltaje2^(0+384),w
  2181  11CA  00F0               	movwf	___fltol@f1
  2182  11CB  160A  158A  25DC  160A  118A  	fcall	___fltol
  2183  11D0  0871               	movf	?___fltol+1,w
  2184  11D1  1283               	bcf	3,5	;RP0=0, select bank0
  2185  11D2  1303               	bcf	3,6	;RP1=0, select bank0
  2186  11D3  00A5               	movwf	itoa@val+1
  2187  11D4  0870               	movf	?___fltol,w
  2188  11D5  00A4               	movwf	itoa@val
  2189  11D6  300A               	movlw	10
  2190  11D7  00A6               	movwf	itoa@base
  2191  11D8  3000               	movlw	0
  2192  11D9  00A7               	movwf	itoa@base+1
  2193  11DA  309A               	movlw	(low (_guardar2| (0+256)))& (0+255)
  2194  11DB  160A  158A  21E0  160A  118A  	fcall	_itoa
  2195  11E0                     l4694:	
  2196                           
  2197                           ;./LCD2.h: 176:     word(guardar2);
  2198  11E0  309A               	movlw	(low (_guardar2| (0+256)))& (0+255)
  2199  11E1  00F3               	movwf	word@a
  2200  11E2  3001               	movlw	1
  2201  11E3  00F4               	movwf	word@a+1
  2202  11E4  160A  158A  2294  160A  118A  	fcall	_word
  2203  11E9                     l4696:	
  2204                           
  2205                           ;./LCD2.h: 178:     _delay((unsigned long)((5)*(8000000/4000.0)));
  2206  11E9  300D               	movlw	13
  2207  11EA  1283               	bcf	3,5	;RP0=0, select bank0
  2208  11EB  1303               	bcf	3,6	;RP1=0, select bank0
  2209  11EC  00E7               	movwf	??_lee4+1
  2210  11ED  30FB               	movlw	251
  2211  11EE  00E6               	movwf	??_lee4
  2212  11EF                     u6787:	
  2213  11EF  0BE6               	decfsz	??_lee4,f
  2214  11F0  29EF               	goto	u6787
  2215  11F1  0BE7               	decfsz	??_lee4+1,f
  2216  11F2  29EF               	goto	u6787
  2217  11F3                     l126:	
  2218  11F3  0008               	return
  2219  11F4                     __end_of_lee4:	
  2220                           
  2221                           	psect	text7
  2222  12A9                     __ptext7:	
  2223 ;; *************** function _lee3 *****************
  2224 ;; Defined at:
  2225 ;;		line 156 in file "./LCD2.h"
  2226 ;; Parameters:    Size  Location     Type
  2227 ;;  coso2           1    wreg     unsigned char 
  2228 ;; Auto vars:     Size  Location     Type
  2229 ;;  coso2           1   68[BANK1 ] unsigned char 
  2230 ;; Return value:  Size  Location     Type
  2231 ;;                  1    wreg      void 
  2232 ;; Registers used:
  2233 ;;		wreg, fsr0l, fsr0h, status,2, status,0, btemp+1, pclath, cstack
  2234 ;; Tracked objects:
  2235 ;;		On entry : 0/0
  2236 ;;		On exit  : 0/0
  2237 ;;		Unchanged: 0/0
  2238 ;; Data sizes:     COMMON   BANK0   BANK1   BANK3   BANK2
  2239 ;;      Params:         0       0       0       0       0
  2240 ;;      Locals:         0       0       1       0       0
  2241 ;;      Temps:          0       0       4       0       0
  2242 ;;      Totals:         0       0       5       0       0
  2243 ;;Total ram usage:        5 bytes
  2244 ;; Hardware stack levels used:    1
  2245 ;; Hardware stack levels required when called:    6
  2246 ;; This function calls:
  2247 ;;		___fldiv
  2248 ;;		___flmul
  2249 ;;		___xxtofl
  2250 ;;		_ftoa2
  2251 ;;		_word
  2252 ;; This function is called by:
  2253 ;;		_main
  2254 ;; This function uses a non-reentrant model
  2255 ;;
  2256                           
  2257                           
  2258                           ;psect for function _lee3
  2259  12A9                     _lee3:	
  2260                           
  2261                           ;incstack = 0
  2262                           ; Regs used in _lee3: [wreg-fsr0h+status,2+status,0+btemp+1+pclath+cstack]
  2263                           ;lee3@coso2 stored from wreg
  2264  12A9  1683               	bsf	3,5	;RP0=1, select bank1
  2265  12AA  1303               	bcf	3,6	;RP1=0, select bank1
  2266  12AB  00E4               	movwf	lee3@coso2^(0+128)
  2267  12AC                     l4678:	
  2268                           
  2269                           ;./LCD2.h: 157:     _delay((unsigned long)((1)*(8000000/4000.0)));
  2270  12AC  3003               	movlw	3
  2271  12AD  1683               	bsf	3,5	;RP0=1, select bank1
  2272  12AE  1303               	bcf	3,6	;RP1=0, select bank1
  2273  12AF  00E1               	movwf	(??_lee3^(0+128)+1)
  2274  12B0  3097               	movlw	151
  2275  12B1  00E0               	movwf	??_lee3^(0+128)
  2276  12B2                     u6797:	
  2277  12B2  0BE0               	decfsz	??_lee3^(0+128),f
  2278  12B3  2AB2               	goto	u6797
  2279  12B4  0BE1               	decfsz	(??_lee3^(0+128)+1),f
  2280  12B5  2AB2               	goto	u6797
  2281                           
  2282                           ;./LCD2.h: 159:     Voldc2= coso2;
  2283  12B6  1683               	bsf	3,5	;RP0=1, select bank1
  2284  12B7  1303               	bcf	3,6	;RP1=0, select bank1
  2285  12B8  0864               	movf	lee3@coso2^(0+128),w
  2286  12B9  00E0               	movwf	??_lee3^(0+128)
  2287  12BA  0860               	movf	??_lee3^(0+128),w
  2288  12BB  00EB               	movwf	_Voldc2^(0+128)
  2289  12BC                     l4680:	
  2290                           
  2291                           ;./LCD2.h: 160:     voltaje2=Voldc2*5.0/255.0;
  2292  12BC  3043               	movlw	67
  2293  12BD  1283               	bcf	3,5	;RP0=0, select bank0
  2294  12BE  1303               	bcf	3,6	;RP1=0, select bank0
  2295  12BF  00DC               	movwf	___fldiv@a+3
  2296  12C0  307F               	movlw	127
  2297  12C1  00DB               	movwf	___fldiv@a+2
  2298  12C2  3000               	movlw	0
  2299  12C3  00DA               	movwf	___fldiv@a+1
  2300  12C4  3000               	movlw	0
  2301  12C5  00D9               	movwf	___fldiv@a
  2302  12C6  3040               	movlw	64
  2303  12C7  00C2               	movwf	___flmul@b+3
  2304  12C8  30A0               	movlw	160
  2305  12C9  00C1               	movwf	___flmul@b+2
  2306  12CA  3000               	movlw	0
  2307  12CB  00C0               	movwf	___flmul@b+1
  2308  12CC  3000               	movlw	0
  2309  12CD  00BF               	movwf	___flmul@b
  2310  12CE  1683               	bsf	3,5	;RP0=1, select bank1
  2311  12CF  1303               	bcf	3,6	;RP1=0, select bank1
  2312  12D0  086B               	movf	_Voldc2^(0+128),w
  2313  12D1  00E0               	movwf	??_lee3^(0+128)
  2314  12D2  01E1               	clrf	(??_lee3^(0+128)+1)
  2315  12D3  01E2               	clrf	(??_lee3^(0+128)+2)
  2316  12D4  01E3               	clrf	(??_lee3^(0+128)+3)
  2317  12D5  0863               	movf	(??_lee3+3)^(0+128),w
  2318  12D6  1283               	bcf	3,5	;RP0=0, select bank0
  2319  12D7  1303               	bcf	3,6	;RP1=0, select bank0
  2320  12D8  00A3               	movwf	___xxtofl@val+3
  2321  12D9  1683               	bsf	3,5	;RP0=1, select bank1
  2322  12DA  1303               	bcf	3,6	;RP1=0, select bank1
  2323  12DB  0862               	movf	(??_lee3+2)^(0+128),w
  2324  12DC  1283               	bcf	3,5	;RP0=0, select bank0
  2325  12DD  1303               	bcf	3,6	;RP1=0, select bank0
  2326  12DE  00A2               	movwf	___xxtofl@val+2
  2327  12DF  1683               	bsf	3,5	;RP0=1, select bank1
  2328  12E0  1303               	bcf	3,6	;RP1=0, select bank1
  2329  12E1  0861               	movf	(??_lee3+1)^(0+128),w
  2330  12E2  1283               	bcf	3,5	;RP0=0, select bank0
  2331  12E3  1303               	bcf	3,6	;RP1=0, select bank0
  2332  12E4  00A1               	movwf	___xxtofl@val+1
  2333  12E5  1683               	bsf	3,5	;RP0=1, select bank1
  2334  12E6  1303               	bcf	3,6	;RP1=0, select bank1
  2335  12E7  0860               	movf	??_lee3^(0+128),w
  2336  12E8  1283               	bcf	3,5	;RP0=0, select bank0
  2337  12E9  1303               	bcf	3,6	;RP1=0, select bank0
  2338  12EA  00A0               	movwf	___xxtofl@val
  2339  12EB  3001               	movlw	1
  2340  12EC  160A  118A  235E  160A  118A  	fcall	___xxtofl
  2341  12F1  1283               	bcf	3,5	;RP0=0, select bank0
  2342  12F2  1303               	bcf	3,6	;RP1=0, select bank0
  2343  12F3  0823               	movf	?___xxtofl+3,w
  2344  12F4  00C6               	movwf	___flmul@a+3
  2345  12F5  0822               	movf	?___xxtofl+2,w
  2346  12F6  00C5               	movwf	___flmul@a+2
  2347  12F7  0821               	movf	?___xxtofl+1,w
  2348  12F8  00C4               	movwf	___flmul@a+1
  2349  12F9  0820               	movf	?___xxtofl,w
  2350  12FA  00C3               	movwf	___flmul@a
  2351  12FB  120A  118A  248A  160A  118A  	fcall	___flmul
  2352  1300  1283               	bcf	3,5	;RP0=0, select bank0
  2353  1301  1303               	bcf	3,6	;RP1=0, select bank0
  2354  1302  0842               	movf	?___flmul+3,w
  2355  1303  00E0               	movwf	___fldiv@b+3
  2356  1304  0841               	movf	?___flmul+2,w
  2357  1305  00DF               	movwf	___fldiv@b+2
  2358  1306  0840               	movf	?___flmul+1,w
  2359  1307  00DE               	movwf	___fldiv@b+1
  2360  1308  083F               	movf	?___flmul,w
  2361  1309  00DD               	movwf	___fldiv@b
  2362  130A  120A  118A  21EA  160A  118A  	fcall	___fldiv
  2363  130F  1283               	bcf	3,5	;RP0=0, select bank0
  2364  1310  1303               	bcf	3,6	;RP1=0, select bank0
  2365  1311  085C               	movf	?___fldiv+3,w
  2366  1312  1683               	bsf	3,5	;RP0=1, select bank3
  2367  1313  1703               	bsf	3,6	;RP1=1, select bank3
  2368  1314  0093               	movwf	(_voltaje2+3)^(0+384)
  2369  1315  1283               	bcf	3,5	;RP0=0, select bank0
  2370  1316  1303               	bcf	3,6	;RP1=0, select bank0
  2371  1317  085B               	movf	?___fldiv+2,w
  2372  1318  1683               	bsf	3,5	;RP0=1, select bank3
  2373  1319  1703               	bsf	3,6	;RP1=1, select bank3
  2374  131A  0092               	movwf	(_voltaje2+2)^(0+384)
  2375  131B  1283               	bcf	3,5	;RP0=0, select bank0
  2376  131C  1303               	bcf	3,6	;RP1=0, select bank0
  2377  131D  085A               	movf	?___fldiv+1,w
  2378  131E  1683               	bsf	3,5	;RP0=1, select bank3
  2379  131F  1703               	bsf	3,6	;RP1=1, select bank3
  2380  1320  0091               	movwf	(_voltaje2+1)^(0+384)
  2381  1321  1283               	bcf	3,5	;RP0=0, select bank0
  2382  1322  1303               	bcf	3,6	;RP1=0, select bank0
  2383  1323  0859               	movf	?___fldiv,w
  2384  1324  1683               	bsf	3,5	;RP0=1, select bank3
  2385  1325  1703               	bsf	3,6	;RP1=1, select bank3
  2386  1326  0090               	movwf	_voltaje2^(0+384)
  2387  1327                     l4682:	
  2388                           
  2389                           ;./LCD2.h: 162:     ftoa2(voltaje2,guardar2,2);
  2390  1327  0813               	movf	(_voltaje2+3)^(0+384),w
  2391  1328  1683               	bsf	3,5	;RP0=1, select bank1
  2392  1329  1303               	bcf	3,6	;RP1=0, select bank1
  2393  132A  00DA               	movwf	(ftoa2@m+3)^(0+128)
  2394  132B  1683               	bsf	3,5	;RP0=1, select bank3
  2395  132C  1703               	bsf	3,6	;RP1=1, select bank3
  2396  132D  0812               	movf	(_voltaje2+2)^(0+384),w
  2397  132E  1683               	bsf	3,5	;RP0=1, select bank1
  2398  132F  1303               	bcf	3,6	;RP1=0, select bank1
  2399  1330  00D9               	movwf	(ftoa2@m+2)^(0+128)
  2400  1331  1683               	bsf	3,5	;RP0=1, select bank3
  2401  1332  1703               	bsf	3,6	;RP1=1, select bank3
  2402  1333  0811               	movf	(_voltaje2+1)^(0+384),w
  2403  1334  1683               	bsf	3,5	;RP0=1, select bank1
  2404  1335  1303               	bcf	3,6	;RP1=0, select bank1
  2405  1336  00D8               	movwf	(ftoa2@m+1)^(0+128)
  2406  1337  1683               	bsf	3,5	;RP0=1, select bank3
  2407  1338  1703               	bsf	3,6	;RP1=1, select bank3
  2408  1339  0810               	movf	_voltaje2^(0+384),w
  2409  133A  1683               	bsf	3,5	;RP0=1, select bank1
  2410  133B  1303               	bcf	3,6	;RP1=0, select bank1
  2411  133C  00D7               	movwf	ftoa2@m^(0+128)
  2412  133D  309A               	movlw	(low (_guardar2| (0+256)))& (0+255)
  2413  133E  00E0               	movwf	??_lee3^(0+128)
  2414  133F  0860               	movf	??_lee3^(0+128),w
  2415  1340  00DB               	movwf	ftoa2@Q^(0+128)
  2416  1341  3002               	movlw	2
  2417  1342  00DC               	movwf	ftoa2@puntor^(0+128)
  2418  1343  3000               	movlw	0
  2419  1344  00DD               	movwf	(ftoa2@puntor^(0+128)+1)
  2420  1345  120A  158A  21CF  160A  118A  	fcall	_ftoa2
  2421  134A                     l4684:	
  2422                           
  2423                           ;./LCD2.h: 164:     word(guardar2);
  2424  134A  309A               	movlw	(low (_guardar2| (0+256)))& (0+255)
  2425  134B  00F3               	movwf	word@a
  2426  134C  3001               	movlw	1
  2427  134D  00F4               	movwf	word@a+1
  2428  134E  160A  158A  2294  160A  118A  	fcall	_word
  2429  1353                     l4686:	
  2430                           
  2431                           ;./LCD2.h: 165:     _delay((unsigned long)((5)*(8000000/4000.0)));
  2432  1353  300D               	movlw	13
  2433  1354  1683               	bsf	3,5	;RP0=1, select bank1
  2434  1355  1303               	bcf	3,6	;RP1=0, select bank1
  2435  1356  00E1               	movwf	(??_lee3^(0+128)+1)
  2436  1357  30FB               	movlw	251
  2437  1358  00E0               	movwf	??_lee3^(0+128)
  2438  1359                     u6807:	
  2439  1359  0BE0               	decfsz	??_lee3^(0+128),f
  2440  135A  2B59               	goto	u6807
  2441  135B  0BE1               	decfsz	(??_lee3^(0+128)+1),f
  2442  135C  2B59               	goto	u6807
  2443  135D                     l123:	
  2444  135D  0008               	return
  2445  135E                     __end_of_lee3:	
  2446                           
  2447                           	psect	text8
  2448  10AA                     __ptext8:	
  2449 ;; *************** function _lee2 *****************
  2450 ;; Defined at:
  2451 ;;		line 142 in file "./LCD2.h"
  2452 ;; Parameters:    Size  Location     Type
  2453 ;;  coso            1    wreg     unsigned char 
  2454 ;; Auto vars:     Size  Location     Type
  2455 ;;  coso            1   74[BANK0 ] unsigned char 
  2456 ;; Return value:  Size  Location     Type
  2457 ;;                  1    wreg      void 
  2458 ;; Registers used:
  2459 ;;		wreg, fsr0l, fsr0h, status,2, status,0, btemp+1, pclath, cstack
  2460 ;; Tracked objects:
  2461 ;;		On entry : 0/0
  2462 ;;		On exit  : 0/0
  2463 ;;		Unchanged: 0/0
  2464 ;; Data sizes:     COMMON   BANK0   BANK1   BANK3   BANK2
  2465 ;;      Params:         0       0       0       0       0
  2466 ;;      Locals:         0       1       0       0       0
  2467 ;;      Temps:          0       4       0       0       0
  2468 ;;      Totals:         0       5       0       0       0
  2469 ;;Total ram usage:        5 bytes
  2470 ;; Hardware stack levels used:    1
  2471 ;; Hardware stack levels required when called:    3
  2472 ;; This function calls:
  2473 ;;		___fldiv
  2474 ;;		___flmul
  2475 ;;		___fltol
  2476 ;;		___xxtofl
  2477 ;;		_itoa
  2478 ;;		_word
  2479 ;; This function is called by:
  2480 ;;		_main
  2481 ;; This function uses a non-reentrant model
  2482 ;;
  2483                           
  2484                           
  2485                           ;psect for function _lee2
  2486  10AA                     _lee2:	
  2487                           
  2488                           ;incstack = 0
  2489                           ; Regs used in _lee2: [wreg-fsr0h+status,2+status,0+btemp+1+pclath+cstack]
  2490                           ;lee2@coso stored from wreg
  2491  10AA  1283               	bcf	3,5	;RP0=0, select bank0
  2492  10AB  1303               	bcf	3,6	;RP1=0, select bank0
  2493  10AC  00EA               	movwf	lee2@coso
  2494  10AD                     l4668:	
  2495                           
  2496                           ;./LCD2.h: 143:     _delay((unsigned long)((1)*(8000000/4000.0)));
  2497  10AD  3003               	movlw	3
  2498  10AE  1283               	bcf	3,5	;RP0=0, select bank0
  2499  10AF  1303               	bcf	3,6	;RP1=0, select bank0
  2500  10B0  00E7               	movwf	??_lee2+1
  2501  10B1  3097               	movlw	151
  2502  10B2  00E6               	movwf	??_lee2
  2503  10B3                     u6817:	
  2504  10B3  0BE6               	decfsz	??_lee2,f
  2505  10B4  28B3               	goto	u6817
  2506  10B5  0BE7               	decfsz	??_lee2+1,f
  2507  10B6  28B3               	goto	u6817
  2508                           
  2509                           ;./LCD2.h: 145:     Voldc= coso;
  2510  10B7  1283               	bcf	3,5	;RP0=0, select bank0
  2511  10B8  1303               	bcf	3,6	;RP1=0, select bank0
  2512  10B9  086A               	movf	lee2@coso,w
  2513  10BA  00E6               	movwf	??_lee2
  2514  10BB  0866               	movf	??_lee2,w
  2515  10BC  1683               	bsf	3,5	;RP0=1, select bank1
  2516  10BD  1303               	bcf	3,6	;RP1=0, select bank1
  2517  10BE  00EC               	movwf	_Voldc^(0+128)
  2518  10BF                     l4670:	
  2519                           
  2520                           ;./LCD2.h: 146:     voltaje=Voldc*5.0/255.0;
  2521  10BF  3043               	movlw	67
  2522  10C0  1283               	bcf	3,5	;RP0=0, select bank0
  2523  10C1  1303               	bcf	3,6	;RP1=0, select bank0
  2524  10C2  00DC               	movwf	___fldiv@a+3
  2525  10C3  307F               	movlw	127
  2526  10C4  00DB               	movwf	___fldiv@a+2
  2527  10C5  3000               	movlw	0
  2528  10C6  00DA               	movwf	___fldiv@a+1
  2529  10C7  3000               	movlw	0
  2530  10C8  00D9               	movwf	___fldiv@a
  2531  10C9  3040               	movlw	64
  2532  10CA  00C2               	movwf	___flmul@b+3
  2533  10CB  30A0               	movlw	160
  2534  10CC  00C1               	movwf	___flmul@b+2
  2535  10CD  3000               	movlw	0
  2536  10CE  00C0               	movwf	___flmul@b+1
  2537  10CF  3000               	movlw	0
  2538  10D0  00BF               	movwf	___flmul@b
  2539  10D1  1683               	bsf	3,5	;RP0=1, select bank1
  2540  10D2  1303               	bcf	3,6	;RP1=0, select bank1
  2541  10D3  086C               	movf	_Voldc^(0+128),w
  2542  10D4  1283               	bcf	3,5	;RP0=0, select bank0
  2543  10D5  1303               	bcf	3,6	;RP1=0, select bank0
  2544  10D6  00E6               	movwf	??_lee2
  2545  10D7  01E7               	clrf	??_lee2+1
  2546  10D8  01E8               	clrf	??_lee2+2
  2547  10D9  01E9               	clrf	??_lee2+3
  2548  10DA  0869               	movf	??_lee2+3,w
  2549  10DB  00A3               	movwf	___xxtofl@val+3
  2550  10DC  0868               	movf	??_lee2+2,w
  2551  10DD  00A2               	movwf	___xxtofl@val+2
  2552  10DE  0867               	movf	??_lee2+1,w
  2553  10DF  00A1               	movwf	___xxtofl@val+1
  2554  10E0  0866               	movf	??_lee2,w
  2555  10E1  00A0               	movwf	___xxtofl@val
  2556  10E2  3001               	movlw	1
  2557  10E3  160A  118A  235E  160A  118A  	fcall	___xxtofl
  2558  10E8  1283               	bcf	3,5	;RP0=0, select bank0
  2559  10E9  1303               	bcf	3,6	;RP1=0, select bank0
  2560  10EA  0823               	movf	?___xxtofl+3,w
  2561  10EB  00C6               	movwf	___flmul@a+3
  2562  10EC  0822               	movf	?___xxtofl+2,w
  2563  10ED  00C5               	movwf	___flmul@a+2
  2564  10EE  0821               	movf	?___xxtofl+1,w
  2565  10EF  00C4               	movwf	___flmul@a+1
  2566  10F0  0820               	movf	?___xxtofl,w
  2567  10F1  00C3               	movwf	___flmul@a
  2568  10F2  120A  118A  248A  160A  118A  	fcall	___flmul
  2569  10F7  1283               	bcf	3,5	;RP0=0, select bank0
  2570  10F8  1303               	bcf	3,6	;RP1=0, select bank0
  2571  10F9  0842               	movf	?___flmul+3,w
  2572  10FA  00E0               	movwf	___fldiv@b+3
  2573  10FB  0841               	movf	?___flmul+2,w
  2574  10FC  00DF               	movwf	___fldiv@b+2
  2575  10FD  0840               	movf	?___flmul+1,w
  2576  10FE  00DE               	movwf	___fldiv@b+1
  2577  10FF  083F               	movf	?___flmul,w
  2578  1100  00DD               	movwf	___fldiv@b
  2579  1101  120A  118A  21EA  160A  118A  	fcall	___fldiv
  2580  1106  1283               	bcf	3,5	;RP0=0, select bank0
  2581  1107  1303               	bcf	3,6	;RP1=0, select bank0
  2582  1108  085C               	movf	?___fldiv+3,w
  2583  1109  1683               	bsf	3,5	;RP0=1, select bank3
  2584  110A  1703               	bsf	3,6	;RP1=1, select bank3
  2585  110B  0097               	movwf	(_voltaje+3)^(0+384)
  2586  110C  1283               	bcf	3,5	;RP0=0, select bank0
  2587  110D  1303               	bcf	3,6	;RP1=0, select bank0
  2588  110E  085B               	movf	?___fldiv+2,w
  2589  110F  1683               	bsf	3,5	;RP0=1, select bank3
  2590  1110  1703               	bsf	3,6	;RP1=1, select bank3
  2591  1111  0096               	movwf	(_voltaje+2)^(0+384)
  2592  1112  1283               	bcf	3,5	;RP0=0, select bank0
  2593  1113  1303               	bcf	3,6	;RP1=0, select bank0
  2594  1114  085A               	movf	?___fldiv+1,w
  2595  1115  1683               	bsf	3,5	;RP0=1, select bank3
  2596  1116  1703               	bsf	3,6	;RP1=1, select bank3
  2597  1117  0095               	movwf	(_voltaje+1)^(0+384)
  2598  1118  1283               	bcf	3,5	;RP0=0, select bank0
  2599  1119  1303               	bcf	3,6	;RP1=0, select bank0
  2600  111A  0859               	movf	?___fldiv,w
  2601  111B  1683               	bsf	3,5	;RP0=1, select bank3
  2602  111C  1703               	bsf	3,6	;RP1=1, select bank3
  2603  111D  0094               	movwf	_voltaje^(0+384)
  2604  111E                     l4672:	
  2605                           
  2606                           ;./LCD2.h: 147:      itoa(guardar,voltaje,10);
  2607  111E  0817               	movf	(_voltaje+3)^(0+384),w
  2608  111F  00F3               	movwf	___fltol@f1+3
  2609  1120  0816               	movf	(_voltaje+2)^(0+384),w
  2610  1121  00F2               	movwf	___fltol@f1+2
  2611  1122  0815               	movf	(_voltaje+1)^(0+384),w
  2612  1123  00F1               	movwf	___fltol@f1+1
  2613  1124  0814               	movf	_voltaje^(0+384),w
  2614  1125  00F0               	movwf	___fltol@f1
  2615  1126  160A  158A  25DC  160A  118A  	fcall	___fltol
  2616  112B  0871               	movf	?___fltol+1,w
  2617  112C  1283               	bcf	3,5	;RP0=0, select bank0
  2618  112D  1303               	bcf	3,6	;RP1=0, select bank0
  2619  112E  00A5               	movwf	itoa@val+1
  2620  112F  0870               	movf	?___fltol,w
  2621  1130  00A4               	movwf	itoa@val
  2622  1131  300A               	movlw	10
  2623  1132  00A6               	movwf	itoa@base
  2624  1133  3000               	movlw	0
  2625  1134  00A7               	movwf	itoa@base+1
  2626  1135  30A4               	movlw	(low (_guardar| (0+256)))& (0+255)
  2627  1136  160A  158A  21E0  160A  118A  	fcall	_itoa
  2628  113B                     l4674:	
  2629                           
  2630                           ;./LCD2.h: 150:     word(guardar);
  2631  113B  30A4               	movlw	(low (_guardar| (0+256)))& (0+255)
  2632  113C  00F3               	movwf	word@a
  2633  113D  3001               	movlw	1
  2634  113E  00F4               	movwf	word@a+1
  2635  113F  160A  158A  2294  160A  118A  	fcall	_word
  2636  1144                     l4676:	
  2637                           
  2638                           ;./LCD2.h: 152:     _delay((unsigned long)((5)*(8000000/4000.0)));
  2639  1144  300D               	movlw	13
  2640  1145  1283               	bcf	3,5	;RP0=0, select bank0
  2641  1146  1303               	bcf	3,6	;RP1=0, select bank0
  2642  1147  00E7               	movwf	??_lee2+1
  2643  1148  30FB               	movlw	251
  2644  1149  00E6               	movwf	??_lee2
  2645  114A                     u6827:	
  2646  114A  0BE6               	decfsz	??_lee2,f
  2647  114B  294A               	goto	u6827
  2648  114C  0BE7               	decfsz	??_lee2+1,f
  2649  114D  294A               	goto	u6827
  2650  114E                     l120:	
  2651  114E  0008               	return
  2652  114F                     __end_of_lee2:	
  2653                           
  2654                           	psect	text9
  2655  11F4                     __ptext9:	
  2656 ;; *************** function _lee1 *****************
  2657 ;; Defined at:
  2658 ;;		line 130 in file "./LCD2.h"
  2659 ;; Parameters:    Size  Location     Type
  2660 ;;  coso            1    wreg     unsigned char 
  2661 ;; Auto vars:     Size  Location     Type
  2662 ;;  coso            1   68[BANK1 ] unsigned char 
  2663 ;; Return value:  Size  Location     Type
  2664 ;;                  1    wreg      void 
  2665 ;; Registers used:
  2666 ;;		wreg, fsr0l, fsr0h, status,2, status,0, btemp+1, pclath, cstack
  2667 ;; Tracked objects:
  2668 ;;		On entry : 0/0
  2669 ;;		On exit  : 0/0
  2670 ;;		Unchanged: 0/0
  2671 ;; Data sizes:     COMMON   BANK0   BANK1   BANK3   BANK2
  2672 ;;      Params:         0       0       0       0       0
  2673 ;;      Locals:         0       0       1       0       0
  2674 ;;      Temps:          0       0       4       0       0
  2675 ;;      Totals:         0       0       5       0       0
  2676 ;;Total ram usage:        5 bytes
  2677 ;; Hardware stack levels used:    1
  2678 ;; Hardware stack levels required when called:    6
  2679 ;; This function calls:
  2680 ;;		___fldiv
  2681 ;;		___flmul
  2682 ;;		___xxtofl
  2683 ;;		_ftoa2
  2684 ;;		_word
  2685 ;; This function is called by:
  2686 ;;		_main
  2687 ;; This function uses a non-reentrant model
  2688 ;;
  2689                           
  2690                           
  2691                           ;psect for function _lee1
  2692  11F4                     _lee1:	
  2693                           
  2694                           ;incstack = 0
  2695                           ; Regs used in _lee1: [wreg-fsr0h+status,2+status,0+btemp+1+pclath+cstack]
  2696                           ;lee1@coso stored from wreg
  2697  11F4  1683               	bsf	3,5	;RP0=1, select bank1
  2698  11F5  1303               	bcf	3,6	;RP1=0, select bank1
  2699  11F6  00E4               	movwf	lee1@coso^(0+128)
  2700  11F7                     l4658:	
  2701                           
  2702                           ;./LCD2.h: 131:     _delay((unsigned long)((1)*(8000000/4000.0)));
  2703  11F7  3003               	movlw	3
  2704  11F8  1683               	bsf	3,5	;RP0=1, select bank1
  2705  11F9  1303               	bcf	3,6	;RP1=0, select bank1
  2706  11FA  00E1               	movwf	(??_lee1^(0+128)+1)
  2707  11FB  3097               	movlw	151
  2708  11FC  00E0               	movwf	??_lee1^(0+128)
  2709  11FD                     u6837:	
  2710  11FD  0BE0               	decfsz	??_lee1^(0+128),f
  2711  11FE  29FD               	goto	u6837
  2712  11FF  0BE1               	decfsz	(??_lee1^(0+128)+1),f
  2713  1200  29FD               	goto	u6837
  2714                           
  2715                           ;./LCD2.h: 133:     Voldc= coso;
  2716  1201  1683               	bsf	3,5	;RP0=1, select bank1
  2717  1202  1303               	bcf	3,6	;RP1=0, select bank1
  2718  1203  0864               	movf	lee1@coso^(0+128),w
  2719  1204  00E0               	movwf	??_lee1^(0+128)
  2720  1205  0860               	movf	??_lee1^(0+128),w
  2721  1206  00EC               	movwf	_Voldc^(0+128)
  2722  1207                     l4660:	
  2723                           
  2724                           ;./LCD2.h: 134:     voltaje=Voldc*5.0/255.0;
  2725  1207  3043               	movlw	67
  2726  1208  1283               	bcf	3,5	;RP0=0, select bank0
  2727  1209  1303               	bcf	3,6	;RP1=0, select bank0
  2728  120A  00DC               	movwf	___fldiv@a+3
  2729  120B  307F               	movlw	127
  2730  120C  00DB               	movwf	___fldiv@a+2
  2731  120D  3000               	movlw	0
  2732  120E  00DA               	movwf	___fldiv@a+1
  2733  120F  3000               	movlw	0
  2734  1210  00D9               	movwf	___fldiv@a
  2735  1211  3040               	movlw	64
  2736  1212  00C2               	movwf	___flmul@b+3
  2737  1213  30A0               	movlw	160
  2738  1214  00C1               	movwf	___flmul@b+2
  2739  1215  3000               	movlw	0
  2740  1216  00C0               	movwf	___flmul@b+1
  2741  1217  3000               	movlw	0
  2742  1218  00BF               	movwf	___flmul@b
  2743  1219  1683               	bsf	3,5	;RP0=1, select bank1
  2744  121A  1303               	bcf	3,6	;RP1=0, select bank1
  2745  121B  086C               	movf	_Voldc^(0+128),w
  2746  121C  00E0               	movwf	??_lee1^(0+128)
  2747  121D  01E1               	clrf	(??_lee1^(0+128)+1)
  2748  121E  01E2               	clrf	(??_lee1^(0+128)+2)
  2749  121F  01E3               	clrf	(??_lee1^(0+128)+3)
  2750  1220  0863               	movf	(??_lee1+3)^(0+128),w
  2751  1221  1283               	bcf	3,5	;RP0=0, select bank0
  2752  1222  1303               	bcf	3,6	;RP1=0, select bank0
  2753  1223  00A3               	movwf	___xxtofl@val+3
  2754  1224  1683               	bsf	3,5	;RP0=1, select bank1
  2755  1225  1303               	bcf	3,6	;RP1=0, select bank1
  2756  1226  0862               	movf	(??_lee1+2)^(0+128),w
  2757  1227  1283               	bcf	3,5	;RP0=0, select bank0
  2758  1228  1303               	bcf	3,6	;RP1=0, select bank0
  2759  1229  00A2               	movwf	___xxtofl@val+2
  2760  122A  1683               	bsf	3,5	;RP0=1, select bank1
  2761  122B  1303               	bcf	3,6	;RP1=0, select bank1
  2762  122C  0861               	movf	(??_lee1+1)^(0+128),w
  2763  122D  1283               	bcf	3,5	;RP0=0, select bank0
  2764  122E  1303               	bcf	3,6	;RP1=0, select bank0
  2765  122F  00A1               	movwf	___xxtofl@val+1
  2766  1230  1683               	bsf	3,5	;RP0=1, select bank1
  2767  1231  1303               	bcf	3,6	;RP1=0, select bank1
  2768  1232  0860               	movf	??_lee1^(0+128),w
  2769  1233  1283               	bcf	3,5	;RP0=0, select bank0
  2770  1234  1303               	bcf	3,6	;RP1=0, select bank0
  2771  1235  00A0               	movwf	___xxtofl@val
  2772  1236  3001               	movlw	1
  2773  1237  160A  118A  235E  160A  118A  	fcall	___xxtofl
  2774  123C  1283               	bcf	3,5	;RP0=0, select bank0
  2775  123D  1303               	bcf	3,6	;RP1=0, select bank0
  2776  123E  0823               	movf	?___xxtofl+3,w
  2777  123F  00C6               	movwf	___flmul@a+3
  2778  1240  0822               	movf	?___xxtofl+2,w
  2779  1241  00C5               	movwf	___flmul@a+2
  2780  1242  0821               	movf	?___xxtofl+1,w
  2781  1243  00C4               	movwf	___flmul@a+1
  2782  1244  0820               	movf	?___xxtofl,w
  2783  1245  00C3               	movwf	___flmul@a
  2784  1246  120A  118A  248A  160A  118A  	fcall	___flmul
  2785  124B  1283               	bcf	3,5	;RP0=0, select bank0
  2786  124C  1303               	bcf	3,6	;RP1=0, select bank0
  2787  124D  0842               	movf	?___flmul+3,w
  2788  124E  00E0               	movwf	___fldiv@b+3
  2789  124F  0841               	movf	?___flmul+2,w
  2790  1250  00DF               	movwf	___fldiv@b+2
  2791  1251  0840               	movf	?___flmul+1,w
  2792  1252  00DE               	movwf	___fldiv@b+1
  2793  1253  083F               	movf	?___flmul,w
  2794  1254  00DD               	movwf	___fldiv@b
  2795  1255  120A  118A  21EA  160A  118A  	fcall	___fldiv
  2796  125A  1283               	bcf	3,5	;RP0=0, select bank0
  2797  125B  1303               	bcf	3,6	;RP1=0, select bank0
  2798  125C  085C               	movf	?___fldiv+3,w
  2799  125D  1683               	bsf	3,5	;RP0=1, select bank3
  2800  125E  1703               	bsf	3,6	;RP1=1, select bank3
  2801  125F  0097               	movwf	(_voltaje+3)^(0+384)
  2802  1260  1283               	bcf	3,5	;RP0=0, select bank0
  2803  1261  1303               	bcf	3,6	;RP1=0, select bank0
  2804  1262  085B               	movf	?___fldiv+2,w
  2805  1263  1683               	bsf	3,5	;RP0=1, select bank3
  2806  1264  1703               	bsf	3,6	;RP1=1, select bank3
  2807  1265  0096               	movwf	(_voltaje+2)^(0+384)
  2808  1266  1283               	bcf	3,5	;RP0=0, select bank0
  2809  1267  1303               	bcf	3,6	;RP1=0, select bank0
  2810  1268  085A               	movf	?___fldiv+1,w
  2811  1269  1683               	bsf	3,5	;RP0=1, select bank3
  2812  126A  1703               	bsf	3,6	;RP1=1, select bank3
  2813  126B  0095               	movwf	(_voltaje+1)^(0+384)
  2814  126C  1283               	bcf	3,5	;RP0=0, select bank0
  2815  126D  1303               	bcf	3,6	;RP1=0, select bank0
  2816  126E  0859               	movf	?___fldiv,w
  2817  126F  1683               	bsf	3,5	;RP0=1, select bank3
  2818  1270  1703               	bsf	3,6	;RP1=1, select bank3
  2819  1271  0094               	movwf	_voltaje^(0+384)
  2820  1272                     l4662:	
  2821                           
  2822                           ;./LCD2.h: 136:     ftoa2(voltaje,guardar,2);
  2823  1272  0817               	movf	(_voltaje+3)^(0+384),w
  2824  1273  1683               	bsf	3,5	;RP0=1, select bank1
  2825  1274  1303               	bcf	3,6	;RP1=0, select bank1
  2826  1275  00DA               	movwf	(ftoa2@m+3)^(0+128)
  2827  1276  1683               	bsf	3,5	;RP0=1, select bank3
  2828  1277  1703               	bsf	3,6	;RP1=1, select bank3
  2829  1278  0816               	movf	(_voltaje+2)^(0+384),w
  2830  1279  1683               	bsf	3,5	;RP0=1, select bank1
  2831  127A  1303               	bcf	3,6	;RP1=0, select bank1
  2832  127B  00D9               	movwf	(ftoa2@m+2)^(0+128)
  2833  127C  1683               	bsf	3,5	;RP0=1, select bank3
  2834  127D  1703               	bsf	3,6	;RP1=1, select bank3
  2835  127E  0815               	movf	(_voltaje+1)^(0+384),w
  2836  127F  1683               	bsf	3,5	;RP0=1, select bank1
  2837  1280  1303               	bcf	3,6	;RP1=0, select bank1
  2838  1281  00D8               	movwf	(ftoa2@m+1)^(0+128)
  2839  1282  1683               	bsf	3,5	;RP0=1, select bank3
  2840  1283  1703               	bsf	3,6	;RP1=1, select bank3
  2841  1284  0814               	movf	_voltaje^(0+384),w
  2842  1285  1683               	bsf	3,5	;RP0=1, select bank1
  2843  1286  1303               	bcf	3,6	;RP1=0, select bank1
  2844  1287  00D7               	movwf	ftoa2@m^(0+128)
  2845  1288  30A4               	movlw	(low (_guardar| (0+256)))& (0+255)
  2846  1289  00E0               	movwf	??_lee1^(0+128)
  2847  128A  0860               	movf	??_lee1^(0+128),w
  2848  128B  00DB               	movwf	ftoa2@Q^(0+128)
  2849  128C  3002               	movlw	2
  2850  128D  00DC               	movwf	ftoa2@puntor^(0+128)
  2851  128E  3000               	movlw	0
  2852  128F  00DD               	movwf	(ftoa2@puntor^(0+128)+1)
  2853  1290  120A  158A  21CF  160A  118A  	fcall	_ftoa2
  2854  1295                     l4664:	
  2855                           
  2856                           ;./LCD2.h: 138:     word(guardar);
  2857  1295  30A4               	movlw	(low (_guardar| (0+256)))& (0+255)
  2858  1296  00F3               	movwf	word@a
  2859  1297  3001               	movlw	1
  2860  1298  00F4               	movwf	word@a+1
  2861  1299  160A  158A  2294  160A  118A  	fcall	_word
  2862  129E                     l4666:	
  2863                           
  2864                           ;./LCD2.h: 139:     _delay((unsigned long)((5)*(8000000/4000.0)));
  2865  129E  300D               	movlw	13
  2866  129F  1683               	bsf	3,5	;RP0=1, select bank1
  2867  12A0  1303               	bcf	3,6	;RP1=0, select bank1
  2868  12A1  00E1               	movwf	(??_lee1^(0+128)+1)
  2869  12A2  30FB               	movlw	251
  2870  12A3  00E0               	movwf	??_lee1^(0+128)
  2871  12A4                     u6847:	
  2872  12A4  0BE0               	decfsz	??_lee1^(0+128),f
  2873  12A5  2AA4               	goto	u6847
  2874  12A6  0BE1               	decfsz	(??_lee1^(0+128)+1),f
  2875  12A7  2AA4               	goto	u6847
  2876  12A8                     l117:	
  2877  12A8  0008               	return
  2878  12A9                     __end_of_lee1:	
  2879                           
  2880                           	psect	text10
  2881  1E56                     __ptext10:	
  2882 ;; *************** function _lcd_init *****************
  2883 ;; Defined at:
  2884 ;;		line 76 in file "./LCD2.h"
  2885 ;; Parameters:    Size  Location     Type
  2886 ;;		None
  2887 ;; Auto vars:     Size  Location     Type
  2888 ;;		None
  2889 ;; Return value:  Size  Location     Type
  2890 ;;                  1    wreg      void 
  2891 ;; Registers used:
  2892 ;;		wreg, status,2, status,0, pclath, cstack
  2893 ;; Tracked objects:
  2894 ;;		On entry : 0/0
  2895 ;;		On exit  : 0/0
  2896 ;;		Unchanged: 0/0
  2897 ;; Data sizes:     COMMON   BANK0   BANK1   BANK3   BANK2
  2898 ;;      Params:         0       0       0       0       0
  2899 ;;      Locals:         0       0       0       0       0
  2900 ;;      Temps:          2       0       0       0       0
  2901 ;;      Totals:         2       0       0       0       0
  2902 ;;Total ram usage:        2 bytes
  2903 ;; Hardware stack levels used:    1
  2904 ;; Hardware stack levels required when called:    2
  2905 ;; This function calls:
  2906 ;;		_com
  2907 ;; This function is called by:
  2908 ;;		_main
  2909 ;; This function uses a non-reentrant model
  2910 ;;
  2911                           
  2912                           
  2913                           ;psect for function _lcd_init
  2914  1E56                     _lcd_init:	
  2915  1E56                     l4634:	
  2916                           ;incstack = 0
  2917                           ; Regs used in _lcd_init: [wreg+status,2+status,0+pclath+cstack]
  2918                           
  2919                           
  2920                           ;./LCD2.h: 79:    _delay((unsigned long)((20)*(8000000/4000.0)));
  2921  1E56  3034               	movlw	52
  2922  1E57  00F4               	movwf	??_lcd_init+1
  2923  1E58  30F1               	movlw	241
  2924  1E59  00F3               	movwf	??_lcd_init
  2925  1E5A                     u6857:	
  2926  1E5A  0BF3               	decfsz	??_lcd_init,f
  2927  1E5B  2E5A               	goto	u6857
  2928  1E5C  0BF4               	decfsz	??_lcd_init+1,f
  2929  1E5D  2E5A               	goto	u6857
  2930  1E5E  2E5F               	nop2
  2931  1E5F                     l4636:	
  2932                           
  2933                           ;./LCD2.h: 80:   com(0x30);
  2934  1E5F  3030               	movlw	48
  2935  1E60  160A  158A  2197  160A  158A  	fcall	_com
  2936  1E65                     l4638:	
  2937                           
  2938                           ;./LCD2.h: 81:  _delay((unsigned long)((10)*(8000000/4000.0)));
  2939  1E65  301A               	movlw	26
  2940  1E66  00F4               	movwf	??_lcd_init+1
  2941  1E67  30F8               	movlw	248
  2942  1E68  00F3               	movwf	??_lcd_init
  2943  1E69                     u6867:	
  2944  1E69  0BF3               	decfsz	??_lcd_init,f
  2945  1E6A  2E69               	goto	u6867
  2946  1E6B  0BF4               	decfsz	??_lcd_init+1,f
  2947  1E6C  2E69               	goto	u6867
  2948  1E6D  0000               	nop
  2949                           
  2950                           ;./LCD2.h: 82:   com(0x30);
  2951  1E6E  3030               	movlw	48
  2952  1E6F  160A  158A  2197  160A  158A  	fcall	_com
  2953  1E74                     l4640:	
  2954                           
  2955                           ;./LCD2.h: 83:  _delay((unsigned long)((110)*(8000000/4000000.0)));
  2956  1E74  3049               	movlw	73
  2957  1E75  00F3               	movwf	??_lcd_init
  2958  1E76                     u6877:	
  2959  1E76  0BF3               	decfsz	??_lcd_init,f
  2960  1E77  2E76               	goto	u6877
  2961  1E78                     l4642:	
  2962                           
  2963                           ;./LCD2.h: 84:   com(0x30);
  2964  1E78  3030               	movlw	48
  2965  1E79  160A  158A  2197  160A  158A  	fcall	_com
  2966                           
  2967                           ;./LCD2.h: 85:  _delay((unsigned long)((11)*(8000000/4000.0)));
  2968  1E7E  301D               	movlw	29
  2969  1E7F  00F4               	movwf	??_lcd_init+1
  2970  1E80  3091               	movlw	145
  2971  1E81  00F3               	movwf	??_lcd_init
  2972  1E82                     u6887:	
  2973  1E82  0BF3               	decfsz	??_lcd_init,f
  2974  1E83  2E82               	goto	u6887
  2975  1E84  0BF4               	decfsz	??_lcd_init+1,f
  2976  1E85  2E82               	goto	u6887
  2977  1E86                     l4644:	
  2978                           
  2979                           ;./LCD2.h: 88:   com(0x38);
  2980  1E86  3038               	movlw	56
  2981  1E87  160A  158A  2197  160A  158A  	fcall	_com
  2982  1E8C                     l4646:	
  2983                           
  2984                           ;./LCD2.h: 89:   _delay((unsigned long)((4)*(8000000/4000.0)));
  2985  1E8C  300B               	movlw	11
  2986  1E8D  00F4               	movwf	??_lcd_init+1
  2987  1E8E  3062               	movlw	98
  2988  1E8F  00F3               	movwf	??_lcd_init
  2989  1E90                     u6897:	
  2990  1E90  0BF3               	decfsz	??_lcd_init,f
  2991  1E91  2E90               	goto	u6897
  2992  1E92  0BF4               	decfsz	??_lcd_init+1,f
  2993  1E93  2E90               	goto	u6897
  2994  1E94  0000               	nop
  2995                           
  2996                           ;./LCD2.h: 90:   com(0x08);
  2997  1E95  3008               	movlw	8
  2998  1E96  160A  158A  2197  160A  158A  	fcall	_com
  2999  1E9B                     l4648:	
  3000                           
  3001                           ;./LCD2.h: 91:   _delay((unsigned long)((4)*(8000000/4000.0)));
  3002  1E9B  300B               	movlw	11
  3003  1E9C  00F4               	movwf	??_lcd_init+1
  3004  1E9D  3062               	movlw	98
  3005  1E9E  00F3               	movwf	??_lcd_init
  3006  1E9F                     u6907:	
  3007  1E9F  0BF3               	decfsz	??_lcd_init,f
  3008  1EA0  2E9F               	goto	u6907
  3009  1EA1  0BF4               	decfsz	??_lcd_init+1,f
  3010  1EA2  2E9F               	goto	u6907
  3011  1EA3  0000               	nop
  3012  1EA4                     l4650:	
  3013                           
  3014                           ;./LCD2.h: 92:   com(0x01);
  3015  1EA4  3001               	movlw	1
  3016  1EA5  160A  158A  2197  160A  158A  	fcall	_com
  3017                           
  3018                           ;./LCD2.h: 93:   _delay((unsigned long)((4)*(8000000/4000.0)));
  3019  1EAA  300B               	movlw	11
  3020  1EAB  00F4               	movwf	??_lcd_init+1
  3021  1EAC  3062               	movlw	98
  3022  1EAD  00F3               	movwf	??_lcd_init
  3023  1EAE                     u6917:	
  3024  1EAE  0BF3               	decfsz	??_lcd_init,f
  3025  1EAF  2EAE               	goto	u6917
  3026  1EB0  0BF4               	decfsz	??_lcd_init+1,f
  3027  1EB1  2EAE               	goto	u6917
  3028  1EB2  0000               	nop
  3029  1EB3                     l4652:	
  3030                           
  3031                           ;./LCD2.h: 94:   com(0x06);
  3032  1EB3  3006               	movlw	6
  3033  1EB4  160A  158A  2197  160A  158A  	fcall	_com
  3034  1EB9                     l4654:	
  3035                           
  3036                           ;./LCD2.h: 95:   _delay((unsigned long)((4)*(8000000/4000.0)));
  3037  1EB9  300B               	movlw	11
  3038  1EBA  00F4               	movwf	??_lcd_init+1
  3039  1EBB  3062               	movlw	98
  3040  1EBC  00F3               	movwf	??_lcd_init
  3041  1EBD                     u6927:	
  3042  1EBD  0BF3               	decfsz	??_lcd_init,f
  3043  1EBE  2EBD               	goto	u6927
  3044  1EBF  0BF4               	decfsz	??_lcd_init+1,f
  3045  1EC0  2EBD               	goto	u6927
  3046  1EC1  0000               	nop
  3047                           
  3048                           ;./LCD2.h: 96:   com(0x0C);
  3049  1EC2  300C               	movlw	12
  3050  1EC3  160A  158A  2197  160A  158A  	fcall	_com
  3051  1EC8                     l4656:	
  3052                           
  3053                           ;./LCD2.h: 97:   _delay((unsigned long)((4)*(8000000/4000.0)));
  3054  1EC8  300B               	movlw	11
  3055  1EC9  00F4               	movwf	??_lcd_init+1
  3056  1ECA  3062               	movlw	98
  3057  1ECB  00F3               	movwf	??_lcd_init
  3058  1ECC                     u6937:	
  3059  1ECC  0BF3               	decfsz	??_lcd_init,f
  3060  1ECD  2ECC               	goto	u6937
  3061  1ECE  0BF4               	decfsz	??_lcd_init+1,f
  3062  1ECF  2ECC               	goto	u6937
  3063  1ED0  0000               	nop
  3064  1ED1                     l99:	
  3065  1ED1  0008               	return
  3066  1ED2                     __end_of_lcd_init:	
  3067                           
  3068                           	psect	text11
  3069  198A                     __ptext11:	
  3070 ;; *************** function _lcd_clear *****************
  3071 ;; Defined at:
  3072 ;;		line 56 in file "./LCD2.h"
  3073 ;; Parameters:    Size  Location     Type
  3074 ;;		None
  3075 ;; Auto vars:     Size  Location     Type
  3076 ;;		None
  3077 ;; Return value:  Size  Location     Type
  3078 ;;                  1    wreg      void 
  3079 ;; Registers used:
  3080 ;;		wreg, status,2, status,0, pclath, cstack
  3081 ;; Tracked objects:
  3082 ;;		On entry : 0/0
  3083 ;;		On exit  : 0/0
  3084 ;;		Unchanged: 0/0
  3085 ;; Data sizes:     COMMON   BANK0   BANK1   BANK3   BANK2
  3086 ;;      Params:         0       0       0       0       0
  3087 ;;      Locals:         0       0       0       0       0
  3088 ;;      Temps:          0       0       0       0       0
  3089 ;;      Totals:         0       0       0       0       0
  3090 ;;Total ram usage:        0 bytes
  3091 ;; Hardware stack levels used:    1
  3092 ;; Hardware stack levels required when called:    2
  3093 ;; This function calls:
  3094 ;;		_com
  3095 ;; This function is called by:
  3096 ;;		_main
  3097 ;; This function uses a non-reentrant model
  3098 ;;
  3099                           
  3100                           
  3101                           ;psect for function _lcd_clear
  3102  198A                     _lcd_clear:	
  3103  198A                     l4632:	
  3104                           ;incstack = 0
  3105                           ; Regs used in _lcd_clear: [wreg+status,2+status,0+pclath+cstack]
  3106                           
  3107                           
  3108                           ;./LCD2.h: 57:  com(0);
  3109  198A  3000               	movlw	0
  3110  198B  160A  158A  2197  160A  158A  	fcall	_com
  3111                           
  3112                           ;./LCD2.h: 58:  com(1);
  3113  1990  3001               	movlw	1
  3114  1991  160A  158A  2197  160A  158A  	fcall	_com
  3115  1996                     l90:	
  3116  1996  0008               	return
  3117  1997                     __end_of_lcd_clear:	
  3118                           
  3119                           	psect	text12
  3120  1AD6                     __ptext12:	
  3121 ;; *************** function _Recieve *****************
  3122 ;; Defined at:
  3123 ;;		line 59 in file "master4.c"
  3124 ;; Parameters:    Size  Location     Type
  3125 ;;		None
  3126 ;; Auto vars:     Size  Location     Type
  3127 ;;		None
  3128 ;; Return value:  Size  Location     Type
  3129 ;;                  1    wreg      void 
  3130 ;; Registers used:
  3131 ;;		wreg, fsr0l, fsr0h, status,2, status,0, btemp+1, pclath, cstack
  3132 ;; Tracked objects:
  3133 ;;		On entry : 0/0
  3134 ;;		On exit  : 0/0
  3135 ;;		Unchanged: 0/0
  3136 ;; Data sizes:     COMMON   BANK0   BANK1   BANK3   BANK2
  3137 ;;      Params:         0       0       0       0       0
  3138 ;;      Locals:         0       0       0       0       0
  3139 ;;      Temps:          0       0       1       0       0
  3140 ;;      Totals:         0       0       1       0       0
  3141 ;;Total ram usage:        1 bytes
  3142 ;; Hardware stack levels used:    1
  3143 ;; Hardware stack levels required when called:    7
  3144 ;; This function calls:
  3145 ;;		_ADCread3
  3146 ;;		_ADCread4
  3147 ;;		_cur
  3148 ;; This function is called by:
  3149 ;;		_main
  3150 ;; This function uses a non-reentrant model
  3151 ;;
  3152                           
  3153                           
  3154                           ;psect for function _Recieve
  3155  1AD6                     _Recieve:	
  3156  1AD6                     l4698:	
  3157                           ;incstack = 0
  3158                           ; Regs used in _Recieve: [wreg-fsr0h+status,2+status,0+btemp+1+pclath+cstack]
  3159                           
  3160                           
  3161                           ;master4.c: 60:       PIR1bits.RCIF= 1;
  3162  1AD6  1283               	bcf	3,5	;RP0=0, select bank0
  3163  1AD7  1303               	bcf	3,6	;RP1=0, select bank0
  3164  1AD8  168C               	bsf	12,5	;volatile
  3165                           
  3166                           ;master4.c: 61:        if(PIR1bits.RCIF== 1){
  3167  1AD9  1E8C               	btfss	12,5	;volatile
  3168  1ADA  2ADC               	goto	u6711
  3169  1ADB  2ADD               	goto	u6710
  3170  1ADC                     u6711:	
  3171  1ADC  2B02               	goto	l4708
  3172  1ADD                     u6710:	
  3173  1ADD                     l4700:	
  3174                           
  3175                           ;master4.c: 63:         cur(2,13);
  3176  1ADD  300D               	movlw	13
  3177  1ADE  1683               	bsf	3,5	;RP0=1, select bank1
  3178  1ADF  1303               	bcf	3,6	;RP1=0, select bank1
  3179  1AE0  00E4               	movwf	??_Recieve^(0+128)
  3180  1AE1  0864               	movf	??_Recieve^(0+128),w
  3181  1AE2  00F3               	movwf	cur@b
  3182  1AE3  3002               	movlw	2
  3183  1AE4  160A  158A  222D  160A  158A  	fcall	_cur
  3184  1AE9                     l4702:	
  3185                           
  3186                           ;master4.c: 64:         ADCread3();
  3187  1AE9  160A  158A  26D2  160A  158A  	fcall	_ADCread3
  3188  1AEE                     l4704:	
  3189                           
  3190                           ;master4.c: 65:         cur(2,14);
  3191  1AEE  300E               	movlw	14
  3192  1AEF  1683               	bsf	3,5	;RP0=1, select bank1
  3193  1AF0  1303               	bcf	3,6	;RP1=0, select bank1
  3194  1AF1  00E4               	movwf	??_Recieve^(0+128)
  3195  1AF2  0864               	movf	??_Recieve^(0+128),w
  3196  1AF3  00F3               	movwf	cur@b
  3197  1AF4  3002               	movlw	2
  3198  1AF5  160A  158A  222D  160A  158A  	fcall	_cur
  3199                           
  3200                           ;master4.c: 66:         ADCread4();
  3201  1AFA  160A  158A  2760  160A  158A  	fcall	_ADCread4
  3202  1AFF                     l4706:	
  3203                           
  3204                           ;master4.c: 67:         PIR1bits.RCIF=0;
  3205  1AFF  1283               	bcf	3,5	;RP0=0, select bank0
  3206  1B00  1303               	bcf	3,6	;RP1=0, select bank0
  3207  1B01  128C               	bcf	12,5	;volatile
  3208  1B02                     l4708:	
  3209                           
  3210                           ;master4.c: 72:       if(PIR1bits.TXIF==1){
  3211  1B02  1E0C               	btfss	12,4	;volatile
  3212  1B03  2B05               	goto	u6721
  3213  1B04  2B06               	goto	u6720
  3214  1B05                     u6721:	
  3215  1B05  2B0D               	goto	l4714
  3216  1B06                     u6720:	
  3217  1B06                     l4710:	
  3218                           
  3219                           ;master4.c: 73:      TXREG= valor;
  3220  1B06  1683               	bsf	3,5	;RP0=1, select bank1
  3221  1B07  1303               	bcf	3,6	;RP1=0, select bank1
  3222  1B08  0869               	movf	_valor^(0+128),w
  3223  1B09  1283               	bcf	3,5	;RP0=0, select bank0
  3224  1B0A  1303               	bcf	3,6	;RP1=0, select bank0
  3225  1B0B  0099               	movwf	25	;volatile
  3226  1B0C                     l4712:	
  3227                           
  3228                           ;master4.c: 74:     PIR1bits.TXIF=0;
  3229  1B0C  120C               	bcf	12,4	;volatile
  3230  1B0D                     l4714:	
  3231                           
  3232                           ;master4.c: 80:       if(PIR1bits.TXIF==1){
  3233  1B0D  1E0C               	btfss	12,4	;volatile
  3234  1B0E  2B10               	goto	u6731
  3235  1B0F  2B11               	goto	u6730
  3236  1B10                     u6731:	
  3237  1B10  2B18               	goto	l164
  3238  1B11                     u6730:	
  3239  1B11                     l4716:	
  3240                           
  3241                           ;master4.c: 81:      TXREG= valor2;
  3242  1B11  1683               	bsf	3,5	;RP0=1, select bank1
  3243  1B12  1303               	bcf	3,6	;RP1=0, select bank1
  3244  1B13  0868               	movf	_valor2^(0+128),w
  3245  1B14  1283               	bcf	3,5	;RP0=0, select bank0
  3246  1B15  1303               	bcf	3,6	;RP1=0, select bank0
  3247  1B16  0099               	movwf	25	;volatile
  3248  1B17                     l4718:	
  3249                           
  3250                           ;master4.c: 82:     PIR1bits.TXIF=0;
  3251  1B17  120C               	bcf	12,4	;volatile
  3252  1B18                     l164:	
  3253  1B18  0008               	return
  3254  1B19                     __end_of_Recieve:	
  3255                           
  3256                           	psect	text13
  3257  1A2D                     __ptext13:	
  3258 ;; *************** function _cur *****************
  3259 ;; Defined at:
  3260 ;;		line 60 in file "./LCD2.h"
  3261 ;; Parameters:    Size  Location     Type
  3262 ;;  a               1    wreg     unsigned char 
  3263 ;;  b               1    3[COMMON] unsigned char 
  3264 ;; Auto vars:     Size  Location     Type
  3265 ;;  a               1    6[COMMON] unsigned char 
  3266 ;;  tiempo          1    7[COMMON] unsigned char 
  3267 ;; Return value:  Size  Location     Type
  3268 ;;                  1    wreg      void 
  3269 ;; Registers used:
  3270 ;;		wreg, status,2, status,0, pclath, cstack
  3271 ;; Tracked objects:
  3272 ;;		On entry : 0/0
  3273 ;;		On exit  : 0/0
  3274 ;;		Unchanged: 0/0
  3275 ;; Data sizes:     COMMON   BANK0   BANK1   BANK3   BANK2
  3276 ;;      Params:         1       0       0       0       0
  3277 ;;      Locals:         2       0       0       0       0
  3278 ;;      Temps:          2       0       0       0       0
  3279 ;;      Totals:         5       0       0       0       0
  3280 ;;Total ram usage:        5 bytes
  3281 ;; Hardware stack levels used:    1
  3282 ;; Hardware stack levels required when called:    2
  3283 ;; This function calls:
  3284 ;;		_com
  3285 ;; This function is called by:
  3286 ;;		_Recieve
  3287 ;;		_main
  3288 ;; This function uses a non-reentrant model
  3289 ;;
  3290                           
  3291                           
  3292                           ;psect for function _cur
  3293  1A2D                     _cur:	
  3294                           
  3295                           ;incstack = 0
  3296                           ; Regs used in _cur: [wreg+status,2+status,0+pclath+cstack]
  3297                           ;cur@a stored from wreg
  3298  1A2D  00F6               	movwf	cur@a
  3299  1A2E                     l4602:	
  3300                           
  3301                           ;./LCD2.h: 61:  char tiempo;;./LCD2.h: 62:  if(a == 1)
  3302  1A2E  0376               	decf	cur@a,w
  3303  1A2F  1D03               	btfss	3,2
  3304  1A30  2A32               	goto	u6691
  3305  1A31  2A33               	goto	u6690
  3306  1A32                     u6691:	
  3307  1A32  2A3F               	goto	l4608
  3308  1A33                     u6690:	
  3309  1A33                     l4604:	
  3310                           
  3311                           ;./LCD2.h: 63:  {;./LCD2.h: 64:    tiempo = 0x80 + b - 1;
  3312  1A33  0873               	movf	cur@b,w
  3313  1A34  3E7F               	addlw	127
  3314  1A35  00F4               	movwf	??_cur
  3315  1A36  0874               	movf	??_cur,w
  3316  1A37  00F7               	movwf	cur@tiempo
  3317  1A38                     l4606:	
  3318                           
  3319                           ;./LCD2.h: 65:       com(tiempo);
  3320  1A38  0877               	movf	cur@tiempo,w
  3321  1A39  160A  158A  2197  160A  158A  	fcall	_com
  3322                           
  3323                           ;./LCD2.h: 66:  }
  3324  1A3E  2A50               	goto	l4614
  3325  1A3F                     l4608:	
  3326  1A3F  3002               	movlw	2
  3327  1A40  0676               	xorwf	cur@a,w
  3328  1A41  1D03               	btfss	3,2
  3329  1A42  2A44               	goto	u6701
  3330  1A43  2A45               	goto	u6700
  3331  1A44                     u6701:	
  3332  1A44  2A50               	goto	l4614
  3333  1A45                     u6700:	
  3334  1A45                     l4610:	
  3335                           
  3336                           ;./LCD2.h: 68:  {;./LCD2.h: 69:   tiempo = 0xC0 + b - 1;
  3337  1A45  0873               	movf	cur@b,w
  3338  1A46  3EBF               	addlw	191
  3339  1A47  00F4               	movwf	??_cur
  3340  1A48  0874               	movf	??_cur,w
  3341  1A49  00F7               	movwf	cur@tiempo
  3342  1A4A                     l4612:	
  3343                           
  3344                           ;./LCD2.h: 71:         com(tiempo);
  3345  1A4A  0877               	movf	cur@tiempo,w
  3346  1A4B  160A  158A  2197  160A  158A  	fcall	_com
  3347  1A50                     l4614:	
  3348                           
  3349                           ;./LCD2.h: 73:     _delay((unsigned long)((4)*(8000000/4000.0)));
  3350  1A50  300B               	movlw	11
  3351  1A51  00F5               	movwf	??_cur+1
  3352  1A52  3062               	movlw	98
  3353  1A53  00F4               	movwf	??_cur
  3354  1A54                     u6947:	
  3355  1A54  0BF4               	decfsz	??_cur,f
  3356  1A55  2A54               	goto	u6947
  3357  1A56  0BF5               	decfsz	??_cur+1,f
  3358  1A57  2A54               	goto	u6947
  3359  1A58  0000               	nop
  3360  1A59                     l96:	
  3361  1A59  0008               	return
  3362  1A5A                     __end_of_cur:	
  3363                           
  3364                           	psect	text14
  3365  1997                     __ptext14:	
  3366 ;; *************** function _com *****************
  3367 ;; Defined at:
  3368 ;;		line 48 in file "./LCD2.h"
  3369 ;; Parameters:    Size  Location     Type
  3370 ;;  E               1    wreg     unsigned char 
  3371 ;; Auto vars:     Size  Location     Type
  3372 ;;  E               1    2[COMMON] unsigned char 
  3373 ;; Return value:  Size  Location     Type
  3374 ;;                  1    wreg      void 
  3375 ;; Registers used:
  3376 ;;		wreg, status,2, status,0, pclath, cstack
  3377 ;; Tracked objects:
  3378 ;;		On entry : 0/0
  3379 ;;		On exit  : 0/0
  3380 ;;		Unchanged: 0/0
  3381 ;; Data sizes:     COMMON   BANK0   BANK1   BANK3   BANK2
  3382 ;;      Params:         0       0       0       0       0
  3383 ;;      Locals:         1       0       0       0       0
  3384 ;;      Temps:          1       0       0       0       0
  3385 ;;      Totals:         2       0       0       0       0
  3386 ;;Total ram usage:        2 bytes
  3387 ;; Hardware stack levels used:    1
  3388 ;; Hardware stack levels required when called:    1
  3389 ;; This function calls:
  3390 ;;		_port
  3391 ;; This function is called by:
  3392 ;;		_lcd_clear
  3393 ;;		_cur
  3394 ;;		_lcd_init
  3395 ;;		_Lcd_Shift_Right
  3396 ;;		_Lcd_Shift_Left
  3397 ;; This function uses a non-reentrant model
  3398 ;;
  3399                           
  3400                           
  3401                           ;psect for function _com
  3402  1997                     _com:	
  3403                           
  3404                           ;incstack = 0
  3405                           ; Regs used in _com: [wreg+status,2+status,0+pclath+cstack]
  3406                           ;com@E stored from wreg
  3407  1997  00F2               	movwf	com@E
  3408  1998                     l4566:	
  3409                           
  3410                           ;./LCD2.h: 49:     PORTDbits.RD0 = 0;
  3411  1998  1283               	bcf	3,5	;RP0=0, select bank0
  3412  1999  1303               	bcf	3,6	;RP1=0, select bank0
  3413  199A  1008               	bcf	8,0	;volatile
  3414  199B                     l4568:	
  3415                           
  3416                           ;./LCD2.h: 50:     port(E);
  3417  199B  0872               	movf	com@E,w
  3418  199C  160A  158A  2163  160A  158A  	fcall	_port
  3419  19A1                     l4570:	
  3420                           
  3421                           ;./LCD2.h: 51:     PORTDbits.RD2 = 1;
  3422  19A1  1283               	bcf	3,5	;RP0=0, select bank0
  3423  19A2  1303               	bcf	3,6	;RP1=0, select bank0
  3424  19A3  1508               	bsf	8,2	;volatile
  3425  19A4                     l4572:	
  3426                           
  3427                           ;./LCD2.h: 52:     _delay((unsigned long)((5)*(8000000/4000000.0)));
  3428  19A4  3003               	movlw	3
  3429  19A5  00F1               	movwf	??_com
  3430  19A6                     u6957:	
  3431  19A6  0BF1               	decfsz	??_com,f
  3432  19A7  29A6               	goto	u6957
  3433  19A8                     l4574:	
  3434                           
  3435                           ;./LCD2.h: 53:     PORTDbits.RD2 = 0;
  3436  19A8  1283               	bcf	3,5	;RP0=0, select bank0
  3437  19A9  1303               	bcf	3,6	;RP1=0, select bank0
  3438  19AA  1108               	bcf	8,2	;volatile
  3439  19AB                     l87:	
  3440  19AB  0008               	return
  3441  19AC                     __end_of_com:	
  3442                           
  3443                           	psect	text15
  3444  1F60                     __ptext15:	
  3445 ;; *************** function _ADCread4 *****************
  3446 ;; Defined at:
  3447 ;;		line 192 in file "./LCD2.h"
  3448 ;; Parameters:    Size  Location     Type
  3449 ;;		None
  3450 ;; Auto vars:     Size  Location     Type
  3451 ;;		None
  3452 ;; Return value:  Size  Location     Type
  3453 ;;                  1    wreg      void 
  3454 ;; Registers used:
  3455 ;;		wreg, fsr0l, fsr0h, status,2, status,0, btemp+1, pclath, cstack
  3456 ;; Tracked objects:
  3457 ;;		On entry : 0/0
  3458 ;;		On exit  : 0/0
  3459 ;;		Unchanged: 0/0
  3460 ;; Data sizes:     COMMON   BANK0   BANK1   BANK3   BANK2
  3461 ;;      Params:         0       0       0       0       0
  3462 ;;      Locals:         0       0       0       0       0
  3463 ;;      Temps:          0       0       4       0       0
  3464 ;;      Totals:         0       0       4       0       0
  3465 ;;Total ram usage:        4 bytes
  3466 ;; Hardware stack levels used:    1
  3467 ;; Hardware stack levels required when called:    6
  3468 ;; This function calls:
  3469 ;;		___fldiv
  3470 ;;		___flmul
  3471 ;;		___xxtofl
  3472 ;;		_ftoa2
  3473 ;;		_word
  3474 ;; This function is called by:
  3475 ;;		_Recieve
  3476 ;; This function uses a non-reentrant model
  3477 ;;
  3478                           
  3479                           
  3480                           ;psect for function _ADCread4
  3481  1F60                     _ADCread4:	
  3482  1F60                     l4624:	
  3483                           ;incstack = 0
  3484                           ; Regs used in _ADCread4: [wreg-fsr0h+status,2+status,0+btemp+1+pclath+cstack]
  3485                           
  3486                           
  3487                           ;./LCD2.h: 195:    enviar= RCREG;
  3488  1F60  1283               	bcf	3,5	;RP0=0, select bank0
  3489  1F61  1303               	bcf	3,6	;RP1=0, select bank0
  3490  1F62  081A               	movf	26,w	;volatile
  3491  1F63  1683               	bsf	3,5	;RP0=1, select bank1
  3492  1F64  1303               	bcf	3,6	;RP1=0, select bank1
  3493  1F65  00E0               	movwf	??_ADCread4^(0+128)
  3494  1F66  0860               	movf	??_ADCread4^(0+128),w
  3495  1F67  00EA               	movwf	_enviar^(0+128)
  3496  1F68                     l4626:	
  3497                           
  3498                           ;./LCD2.h: 196:     voltaje=enviar*5.0/255.0;
  3499  1F68  3043               	movlw	67
  3500  1F69  1283               	bcf	3,5	;RP0=0, select bank0
  3501  1F6A  1303               	bcf	3,6	;RP1=0, select bank0
  3502  1F6B  00DC               	movwf	___fldiv@a+3
  3503  1F6C  307F               	movlw	127
  3504  1F6D  00DB               	movwf	___fldiv@a+2
  3505  1F6E  3000               	movlw	0
  3506  1F6F  00DA               	movwf	___fldiv@a+1
  3507  1F70  3000               	movlw	0
  3508  1F71  00D9               	movwf	___fldiv@a
  3509  1F72  3040               	movlw	64
  3510  1F73  00C2               	movwf	___flmul@b+3
  3511  1F74  30A0               	movlw	160
  3512  1F75  00C1               	movwf	___flmul@b+2
  3513  1F76  3000               	movlw	0
  3514  1F77  00C0               	movwf	___flmul@b+1
  3515  1F78  3000               	movlw	0
  3516  1F79  00BF               	movwf	___flmul@b
  3517  1F7A  1683               	bsf	3,5	;RP0=1, select bank1
  3518  1F7B  1303               	bcf	3,6	;RP1=0, select bank1
  3519  1F7C  086A               	movf	_enviar^(0+128),w
  3520  1F7D  00E0               	movwf	??_ADCread4^(0+128)
  3521  1F7E  01E1               	clrf	(??_ADCread4^(0+128)+1)
  3522  1F7F  01E2               	clrf	(??_ADCread4^(0+128)+2)
  3523  1F80  01E3               	clrf	(??_ADCread4^(0+128)+3)
  3524  1F81  0863               	movf	(??_ADCread4+3)^(0+128),w
  3525  1F82  1283               	bcf	3,5	;RP0=0, select bank0
  3526  1F83  1303               	bcf	3,6	;RP1=0, select bank0
  3527  1F84  00A3               	movwf	___xxtofl@val+3
  3528  1F85  1683               	bsf	3,5	;RP0=1, select bank1
  3529  1F86  1303               	bcf	3,6	;RP1=0, select bank1
  3530  1F87  0862               	movf	(??_ADCread4+2)^(0+128),w
  3531  1F88  1283               	bcf	3,5	;RP0=0, select bank0
  3532  1F89  1303               	bcf	3,6	;RP1=0, select bank0
  3533  1F8A  00A2               	movwf	___xxtofl@val+2
  3534  1F8B  1683               	bsf	3,5	;RP0=1, select bank1
  3535  1F8C  1303               	bcf	3,6	;RP1=0, select bank1
  3536  1F8D  0861               	movf	(??_ADCread4+1)^(0+128),w
  3537  1F8E  1283               	bcf	3,5	;RP0=0, select bank0
  3538  1F8F  1303               	bcf	3,6	;RP1=0, select bank0
  3539  1F90  00A1               	movwf	___xxtofl@val+1
  3540  1F91  1683               	bsf	3,5	;RP0=1, select bank1
  3541  1F92  1303               	bcf	3,6	;RP1=0, select bank1
  3542  1F93  0860               	movf	??_ADCread4^(0+128),w
  3543  1F94  1283               	bcf	3,5	;RP0=0, select bank0
  3544  1F95  1303               	bcf	3,6	;RP1=0, select bank0
  3545  1F96  00A0               	movwf	___xxtofl@val
  3546  1F97  3001               	movlw	1
  3547  1F98  160A  118A  235E  160A  158A  	fcall	___xxtofl
  3548  1F9D  1283               	bcf	3,5	;RP0=0, select bank0
  3549  1F9E  1303               	bcf	3,6	;RP1=0, select bank0
  3550  1F9F  0823               	movf	?___xxtofl+3,w
  3551  1FA0  00C6               	movwf	___flmul@a+3
  3552  1FA1  0822               	movf	?___xxtofl+2,w
  3553  1FA2  00C5               	movwf	___flmul@a+2
  3554  1FA3  0821               	movf	?___xxtofl+1,w
  3555  1FA4  00C4               	movwf	___flmul@a+1
  3556  1FA5  0820               	movf	?___xxtofl,w
  3557  1FA6  00C3               	movwf	___flmul@a
  3558  1FA7  120A  118A  248A  160A  158A  	fcall	___flmul
  3559  1FAC  1283               	bcf	3,5	;RP0=0, select bank0
  3560  1FAD  1303               	bcf	3,6	;RP1=0, select bank0
  3561  1FAE  0842               	movf	?___flmul+3,w
  3562  1FAF  00E0               	movwf	___fldiv@b+3
  3563  1FB0  0841               	movf	?___flmul+2,w
  3564  1FB1  00DF               	movwf	___fldiv@b+2
  3565  1FB2  0840               	movf	?___flmul+1,w
  3566  1FB3  00DE               	movwf	___fldiv@b+1
  3567  1FB4  083F               	movf	?___flmul,w
  3568  1FB5  00DD               	movwf	___fldiv@b
  3569  1FB6  120A  118A  21EA  160A  158A  	fcall	___fldiv
  3570  1FBB  1283               	bcf	3,5	;RP0=0, select bank0
  3571  1FBC  1303               	bcf	3,6	;RP1=0, select bank0
  3572  1FBD  085C               	movf	?___fldiv+3,w
  3573  1FBE  1683               	bsf	3,5	;RP0=1, select bank3
  3574  1FBF  1703               	bsf	3,6	;RP1=1, select bank3
  3575  1FC0  0097               	movwf	(_voltaje+3)^(0+384)
  3576  1FC1  1283               	bcf	3,5	;RP0=0, select bank0
  3577  1FC2  1303               	bcf	3,6	;RP1=0, select bank0
  3578  1FC3  085B               	movf	?___fldiv+2,w
  3579  1FC4  1683               	bsf	3,5	;RP0=1, select bank3
  3580  1FC5  1703               	bsf	3,6	;RP1=1, select bank3
  3581  1FC6  0096               	movwf	(_voltaje+2)^(0+384)
  3582  1FC7  1283               	bcf	3,5	;RP0=0, select bank0
  3583  1FC8  1303               	bcf	3,6	;RP1=0, select bank0
  3584  1FC9  085A               	movf	?___fldiv+1,w
  3585  1FCA  1683               	bsf	3,5	;RP0=1, select bank3
  3586  1FCB  1703               	bsf	3,6	;RP1=1, select bank3
  3587  1FCC  0095               	movwf	(_voltaje+1)^(0+384)
  3588  1FCD  1283               	bcf	3,5	;RP0=0, select bank0
  3589  1FCE  1303               	bcf	3,6	;RP1=0, select bank0
  3590  1FCF  0859               	movf	?___fldiv,w
  3591  1FD0  1683               	bsf	3,5	;RP0=1, select bank3
  3592  1FD1  1703               	bsf	3,6	;RP1=1, select bank3
  3593  1FD2  0094               	movwf	_voltaje^(0+384)
  3594  1FD3                     l4628:	
  3595                           
  3596                           ;./LCD2.h: 198:     ftoa2(voltaje,guardar,2);
  3597  1FD3  0817               	movf	(_voltaje+3)^(0+384),w
  3598  1FD4  1683               	bsf	3,5	;RP0=1, select bank1
  3599  1FD5  1303               	bcf	3,6	;RP1=0, select bank1
  3600  1FD6  00DA               	movwf	(ftoa2@m+3)^(0+128)
  3601  1FD7  1683               	bsf	3,5	;RP0=1, select bank3
  3602  1FD8  1703               	bsf	3,6	;RP1=1, select bank3
  3603  1FD9  0816               	movf	(_voltaje+2)^(0+384),w
  3604  1FDA  1683               	bsf	3,5	;RP0=1, select bank1
  3605  1FDB  1303               	bcf	3,6	;RP1=0, select bank1
  3606  1FDC  00D9               	movwf	(ftoa2@m+2)^(0+128)
  3607  1FDD  1683               	bsf	3,5	;RP0=1, select bank3
  3608  1FDE  1703               	bsf	3,6	;RP1=1, select bank3
  3609  1FDF  0815               	movf	(_voltaje+1)^(0+384),w
  3610  1FE0  1683               	bsf	3,5	;RP0=1, select bank1
  3611  1FE1  1303               	bcf	3,6	;RP1=0, select bank1
  3612  1FE2  00D8               	movwf	(ftoa2@m+1)^(0+128)
  3613  1FE3  1683               	bsf	3,5	;RP0=1, select bank3
  3614  1FE4  1703               	bsf	3,6	;RP1=1, select bank3
  3615  1FE5  0814               	movf	_voltaje^(0+384),w
  3616  1FE6  1683               	bsf	3,5	;RP0=1, select bank1
  3617  1FE7  1303               	bcf	3,6	;RP1=0, select bank1
  3618  1FE8  00D7               	movwf	ftoa2@m^(0+128)
  3619  1FE9  30A4               	movlw	(low (_guardar| (0+256)))& (0+255)
  3620  1FEA  00E0               	movwf	??_ADCread4^(0+128)
  3621  1FEB  0860               	movf	??_ADCread4^(0+128),w
  3622  1FEC  00DB               	movwf	ftoa2@Q^(0+128)
  3623  1FED  3002               	movlw	2
  3624  1FEE  00DC               	movwf	ftoa2@puntor^(0+128)
  3625  1FEF  3000               	movlw	0
  3626  1FF0  00DD               	movwf	(ftoa2@puntor^(0+128)+1)
  3627  1FF1  120A  158A  21CF  160A  158A  	fcall	_ftoa2
  3628  1FF6                     l4630:	
  3629                           
  3630                           ;./LCD2.h: 200:     word(guardar);
  3631  1FF6  30A4               	movlw	(low (_guardar| (0+256)))& (0+255)
  3632  1FF7  00F3               	movwf	word@a
  3633  1FF8  3001               	movlw	1
  3634  1FF9  00F4               	movwf	word@a+1
  3635  1FFA  160A  158A  2294  160A  158A  	fcall	_word
  3636  1FFF                     l132:	
  3637  1FFF  0008               	return
  3638  2000                     __end_of_ADCread4:	
  3639                           
  3640                           	psect	text16
  3641  09CF                     __ptext16:	
  3642 ;; *************** function _ftoa2 *****************
  3643 ;; Defined at:
  3644 ;;		line 248 in file "./LCD2.h"
  3645 ;; Parameters:    Size  Location     Type
  3646 ;;  m               4   55[BANK1 ] float 
  3647 ;;  Q               1   59[BANK1 ] PTR unsigned char 
  3648 ;;		 -> guardar2(10), guardar(10), 
  3649 ;;  puntor          2   60[BANK1 ] int 
  3650 ;; Auto vars:     Size  Location     Type
  3651 ;;  cosof           4   12[BANK3 ] float 
  3652 ;;  coso            2   10[BANK3 ] int 
  3653 ;;  i               2    8[BANK3 ] int 
  3654 ;; Return value:  Size  Location     Type
  3655 ;;                  1    wreg      void 
  3656 ;; Registers used:
  3657 ;;		wreg, fsr0l, fsr0h, status,2, status,0, btemp+1, pclath, cstack
  3658 ;; Tracked objects:
  3659 ;;		On entry : 0/0
  3660 ;;		On exit  : 0/0
  3661 ;;		Unchanged: 0/0
  3662 ;; Data sizes:     COMMON   BANK0   BANK1   BANK3   BANK2
  3663 ;;      Params:         0       0       7       0       0
  3664 ;;      Locals:         0       0       0      16       0
  3665 ;;      Temps:          0       0       2       0       0
  3666 ;;      Totals:         0       0       9      16       0
  3667 ;;Total ram usage:       25 bytes
  3668 ;; Hardware stack levels used:    1
  3669 ;; Hardware stack levels required when called:    5
  3670 ;; This function calls:
  3671 ;;		_Dtr
  3672 ;;		___flmul
  3673 ;;		___flsub
  3674 ;;		___fltol
  3675 ;;		___xxtofl
  3676 ;;		_pow
  3677 ;; This function is called by:
  3678 ;;		_lee1
  3679 ;;		_lee3
  3680 ;;		_ADCread4
  3681 ;; This function uses a non-reentrant model
  3682 ;;
  3683                           
  3684                           
  3685                           ;psect for function _ftoa2
  3686  09CF                     _ftoa2:	
  3687  09CF                     l4584:	
  3688                           ;incstack = 0
  3689                           ; Regs used in _ftoa2: [wreg-fsr0h+status,2+status,0+btemp+1+pclath+cstack]
  3690                           
  3691                           
  3692                           ;./LCD2.h: 249:     int coso = (int)m;
  3693  09CF  1683               	bsf	3,5	;RP0=1, select bank1
  3694  09D0  1303               	bcf	3,6	;RP1=0, select bank1
  3695  09D1  085A               	movf	(ftoa2@m+3)^(0+128),w
  3696  09D2  00F3               	movwf	___fltol@f1+3
  3697  09D3  0859               	movf	(ftoa2@m+2)^(0+128),w
  3698  09D4  00F2               	movwf	___fltol@f1+2
  3699  09D5  0858               	movf	(ftoa2@m+1)^(0+128),w
  3700  09D6  00F1               	movwf	___fltol@f1+1
  3701  09D7  0857               	movf	ftoa2@m^(0+128),w
  3702  09D8  00F0               	movwf	___fltol@f1
  3703  09D9  160A  158A  25DC  120A  158A  	fcall	___fltol
  3704  09DE  0871               	movf	?___fltol+1,w
  3705  09DF  1683               	bsf	3,5	;RP0=1, select bank3
  3706  09E0  1703               	bsf	3,6	;RP1=1, select bank3
  3707  09E1  00B9               	movwf	(ftoa2@coso+1)^(0+384)
  3708  09E2  0870               	movf	?___fltol,w
  3709  09E3  00B8               	movwf	ftoa2@coso^(0+384)
  3710  09E4                     l4586:	
  3711                           
  3712                           ;./LCD2.h: 250:     float cosof = m - (float)coso;
  3713  09E4  0838               	movf	ftoa2@coso^(0+384),w
  3714  09E5  1283               	bcf	3,5	;RP0=0, select bank0
  3715  09E6  1303               	bcf	3,6	;RP1=0, select bank0
  3716  09E7  00A0               	movwf	___xxtofl@val
  3717  09E8  1683               	bsf	3,5	;RP0=1, select bank3
  3718  09E9  1703               	bsf	3,6	;RP1=1, select bank3
  3719  09EA  0839               	movf	(ftoa2@coso+1)^(0+384),w
  3720  09EB  1283               	bcf	3,5	;RP0=0, select bank0
  3721  09EC  1303               	bcf	3,6	;RP1=0, select bank0
  3722  09ED  00A1               	movwf	___xxtofl@val+1
  3723  09EE  3000               	movlw	0
  3724  09EF  1BA1               	btfsc	___xxtofl@val+1,7
  3725  09F0  30FF               	movlw	255
  3726  09F1  00A2               	movwf	___xxtofl@val+2
  3727  09F2  00A3               	movwf	___xxtofl@val+3
  3728  09F3  3001               	movlw	1
  3729  09F4  160A  118A  235E  120A  158A  	fcall	___xxtofl
  3730  09F9  1283               	bcf	3,5	;RP0=0, select bank0
  3731  09FA  1303               	bcf	3,6	;RP1=0, select bank0
  3732  09FB  0823               	movf	?___xxtofl+3,w
  3733  09FC  1683               	bsf	3,5	;RP0=1, select bank1
  3734  09FD  1303               	bcf	3,6	;RP1=0, select bank1
  3735  09FE  00A3               	movwf	(___flsub@a+3)^(0+128)
  3736  09FF  1283               	bcf	3,5	;RP0=0, select bank0
  3737  0A00  1303               	bcf	3,6	;RP1=0, select bank0
  3738  0A01  0822               	movf	?___xxtofl+2,w
  3739  0A02  1683               	bsf	3,5	;RP0=1, select bank1
  3740  0A03  1303               	bcf	3,6	;RP1=0, select bank1
  3741  0A04  00A2               	movwf	(___flsub@a+2)^(0+128)
  3742  0A05  1283               	bcf	3,5	;RP0=0, select bank0
  3743  0A06  1303               	bcf	3,6	;RP1=0, select bank0
  3744  0A07  0821               	movf	?___xxtofl+1,w
  3745  0A08  1683               	bsf	3,5	;RP0=1, select bank1
  3746  0A09  1303               	bcf	3,6	;RP1=0, select bank1
  3747  0A0A  00A1               	movwf	(___flsub@a+1)^(0+128)
  3748  0A0B  1283               	bcf	3,5	;RP0=0, select bank0
  3749  0A0C  1303               	bcf	3,6	;RP1=0, select bank0
  3750  0A0D  0820               	movf	?___xxtofl,w
  3751  0A0E  1683               	bsf	3,5	;RP0=1, select bank1
  3752  0A0F  1303               	bcf	3,6	;RP1=0, select bank1
  3753  0A10  00A0               	movwf	___flsub@a^(0+128)
  3754  0A11  085A               	movf	(ftoa2@m+3)^(0+128),w
  3755  0A12  00A7               	movwf	(___flsub@b+3)^(0+128)
  3756  0A13  0859               	movf	(ftoa2@m+2)^(0+128),w
  3757  0A14  00A6               	movwf	(___flsub@b+2)^(0+128)
  3758  0A15  0858               	movf	(ftoa2@m+1)^(0+128),w
  3759  0A16  00A5               	movwf	(___flsub@b+1)^(0+128)
  3760  0A17  0857               	movf	ftoa2@m^(0+128),w
  3761  0A18  00A4               	movwf	___flsub@b^(0+128)
  3762  0A19  160A  158A  23A8  120A  158A  	fcall	___flsub
  3763  0A1E  1683               	bsf	3,5	;RP0=1, select bank1
  3764  0A1F  1303               	bcf	3,6	;RP1=0, select bank1
  3765  0A20  0823               	movf	(?___flsub+3)^(0+128),w
  3766  0A21  1683               	bsf	3,5	;RP0=1, select bank3
  3767  0A22  1703               	bsf	3,6	;RP1=1, select bank3
  3768  0A23  00BD               	movwf	(ftoa2@cosof+3)^(0+384)
  3769  0A24  1683               	bsf	3,5	;RP0=1, select bank1
  3770  0A25  1303               	bcf	3,6	;RP1=0, select bank1
  3771  0A26  0822               	movf	(?___flsub+2)^(0+128),w
  3772  0A27  1683               	bsf	3,5	;RP0=1, select bank3
  3773  0A28  1703               	bsf	3,6	;RP1=1, select bank3
  3774  0A29  00BC               	movwf	(ftoa2@cosof+2)^(0+384)
  3775  0A2A  1683               	bsf	3,5	;RP0=1, select bank1
  3776  0A2B  1303               	bcf	3,6	;RP1=0, select bank1
  3777  0A2C  0821               	movf	(?___flsub+1)^(0+128),w
  3778  0A2D  1683               	bsf	3,5	;RP0=1, select bank3
  3779  0A2E  1703               	bsf	3,6	;RP1=1, select bank3
  3780  0A2F  00BB               	movwf	(ftoa2@cosof+1)^(0+384)
  3781  0A30  1683               	bsf	3,5	;RP0=1, select bank1
  3782  0A31  1303               	bcf	3,6	;RP1=0, select bank1
  3783  0A32  0820               	movf	?___flsub^(0+128),w
  3784  0A33  1683               	bsf	3,5	;RP0=1, select bank3
  3785  0A34  1703               	bsf	3,6	;RP1=1, select bank3
  3786  0A35  00BA               	movwf	ftoa2@cosof^(0+384)
  3787  0A36                     l4588:	
  3788                           
  3789                           ;./LCD2.h: 251:     int i = Dtr(coso, Q, 0);
  3790  0A36  0839               	movf	(ftoa2@coso+1)^(0+384),w
  3791  0A37  1283               	bcf	3,5	;RP0=0, select bank0
  3792  0A38  1303               	bcf	3,6	;RP1=0, select bank0
  3793  0A39  00A1               	movwf	Dtr@y+1
  3794  0A3A  1683               	bsf	3,5	;RP0=1, select bank3
  3795  0A3B  1703               	bsf	3,6	;RP1=1, select bank3
  3796  0A3C  0838               	movf	ftoa2@coso^(0+384),w
  3797  0A3D  1283               	bcf	3,5	;RP0=0, select bank0
  3798  0A3E  1303               	bcf	3,6	;RP1=0, select bank0
  3799  0A3F  00A0               	movwf	Dtr@y
  3800  0A40  1683               	bsf	3,5	;RP0=1, select bank1
  3801  0A41  1303               	bcf	3,6	;RP1=0, select bank1
  3802  0A42  085B               	movf	ftoa2@Q^(0+128),w
  3803  0A43  00DE               	movwf	??_ftoa2^(0+128)
  3804  0A44  085E               	movf	??_ftoa2^(0+128),w
  3805  0A45  1283               	bcf	3,5	;RP0=0, select bank0
  3806  0A46  1303               	bcf	3,6	;RP1=0, select bank0
  3807  0A47  00A2               	movwf	Dtr@zpr
  3808  0A48  3000               	movlw	0
  3809  0A49  00A3               	movwf	Dtr@P
  3810  0A4A  00A4               	movwf	Dtr@P+1
  3811  0A4B  160A  158A  2564  120A  158A  	fcall	_Dtr
  3812  0A50  1283               	bcf	3,5	;RP0=0, select bank0
  3813  0A51  1303               	bcf	3,6	;RP1=0, select bank0
  3814  0A52  0821               	movf	?_Dtr+1,w
  3815  0A53  1683               	bsf	3,5	;RP0=1, select bank3
  3816  0A54  1703               	bsf	3,6	;RP1=1, select bank3
  3817  0A55  00B7               	movwf	(ftoa2@i+1)^(0+384)
  3818  0A56  1283               	bcf	3,5	;RP0=0, select bank0
  3819  0A57  1303               	bcf	3,6	;RP1=0, select bank0
  3820  0A58  0820               	movf	?_Dtr,w
  3821  0A59  1683               	bsf	3,5	;RP0=1, select bank3
  3822  0A5A  1703               	bsf	3,6	;RP1=1, select bank3
  3823  0A5B  00B6               	movwf	ftoa2@i^(0+384)
  3824  0A5C                     l4590:	
  3825                           
  3826                           ;./LCD2.h: 252:     if(puntor != 0){
  3827  0A5C  1683               	bsf	3,5	;RP0=1, select bank1
  3828  0A5D  1303               	bcf	3,6	;RP1=0, select bank1
  3829  0A5E  085C               	movf	ftoa2@puntor^(0+128),w
  3830  0A5F  045D               	iorwf	(ftoa2@puntor+1)^(0+128),w
  3831  0A60  1903               	btfsc	3,2
  3832  0A61  2A63               	goto	u6681
  3833  0A62  2A64               	goto	u6680
  3834  0A63                     u6681:	
  3835  0A63  2B52               	goto	l154
  3836  0A64                     u6680:	
  3837  0A64                     l4592:	
  3838                           
  3839                           ;./LCD2.h: 253:         Q[i] = '.';
  3840  0A64  302E               	movlw	46
  3841  0A65  00DE               	movwf	??_ftoa2^(0+128)
  3842  0A66  1683               	bsf	3,5	;RP0=1, select bank3
  3843  0A67  1703               	bsf	3,6	;RP1=1, select bank3
  3844  0A68  0836               	movf	ftoa2@i^(0+384),w
  3845  0A69  1683               	bsf	3,5	;RP0=1, select bank1
  3846  0A6A  1303               	bcf	3,6	;RP1=0, select bank1
  3847  0A6B  075B               	addwf	ftoa2@Q^(0+128),w
  3848  0A6C  00DF               	movwf	(??_ftoa2+1)^(0+128)
  3849  0A6D  085F               	movf	(??_ftoa2+1)^(0+128),w
  3850  0A6E  0084               	movwf	4
  3851  0A6F  085E               	movf	??_ftoa2^(0+128),w
  3852  0A70  1783               	bsf	3,7	;select IRP bank2
  3853  0A71  0080               	movwf	0
  3854  0A72                     l4594:	
  3855                           
  3856                           ;./LCD2.h: 254:         cosof= cosof* pow(10,puntor);
  3857  0A72  085C               	movf	ftoa2@puntor^(0+128),w
  3858  0A73  1283               	bcf	3,5	;RP0=0, select bank0
  3859  0A74  1303               	bcf	3,6	;RP1=0, select bank0
  3860  0A75  00A0               	movwf	___xxtofl@val
  3861  0A76  1683               	bsf	3,5	;RP0=1, select bank1
  3862  0A77  1303               	bcf	3,6	;RP1=0, select bank1
  3863  0A78  085D               	movf	(ftoa2@puntor+1)^(0+128),w
  3864  0A79  1283               	bcf	3,5	;RP0=0, select bank0
  3865  0A7A  1303               	bcf	3,6	;RP1=0, select bank0
  3866  0A7B  00A1               	movwf	___xxtofl@val+1
  3867  0A7C  3000               	movlw	0
  3868  0A7D  1BA1               	btfsc	___xxtofl@val+1,7
  3869  0A7E  30FF               	movlw	255
  3870  0A7F  00A2               	movwf	___xxtofl@val+2
  3871  0A80  00A3               	movwf	___xxtofl@val+3
  3872  0A81  3001               	movlw	1
  3873  0A82  160A  118A  235E  120A  158A  	fcall	___xxtofl
  3874  0A87  1283               	bcf	3,5	;RP0=0, select bank0
  3875  0A88  1303               	bcf	3,6	;RP1=0, select bank0
  3876  0A89  0823               	movf	?___xxtofl+3,w
  3877  0A8A  1683               	bsf	3,5	;RP0=1, select bank3
  3878  0A8B  1703               	bsf	3,6	;RP1=1, select bank3
  3879  0A8C  00B1               	movwf	(_ftoa2$1420+3)^(0+384)
  3880  0A8D  1283               	bcf	3,5	;RP0=0, select bank0
  3881  0A8E  1303               	bcf	3,6	;RP1=0, select bank0
  3882  0A8F  0822               	movf	?___xxtofl+2,w
  3883  0A90  1683               	bsf	3,5	;RP0=1, select bank3
  3884  0A91  1703               	bsf	3,6	;RP1=1, select bank3
  3885  0A92  00B0               	movwf	(_ftoa2$1420+2)^(0+384)
  3886  0A93  1283               	bcf	3,5	;RP0=0, select bank0
  3887  0A94  1303               	bcf	3,6	;RP1=0, select bank0
  3888  0A95  0821               	movf	?___xxtofl+1,w
  3889  0A96  1683               	bsf	3,5	;RP0=1, select bank3
  3890  0A97  1703               	bsf	3,6	;RP1=1, select bank3
  3891  0A98  00AF               	movwf	(_ftoa2$1420+1)^(0+384)
  3892  0A99  1283               	bcf	3,5	;RP0=0, select bank0
  3893  0A9A  1303               	bcf	3,6	;RP1=0, select bank0
  3894  0A9B  0820               	movf	?___xxtofl,w
  3895  0A9C  1683               	bsf	3,5	;RP0=1, select bank3
  3896  0A9D  1703               	bsf	3,6	;RP1=1, select bank3
  3897  0A9E  00AE               	movwf	_ftoa2$1420^(0+384)
  3898  0A9F                     l4596:	
  3899                           
  3900                           ;./LCD2.h: 254:         cosof= cosof* pow(10,puntor);
  3901  0A9F  0831               	movf	(_ftoa2$1420+3)^(0+384),w
  3902  0AA0  1683               	bsf	3,5	;RP0=1, select bank1
  3903  0AA1  1303               	bcf	3,6	;RP1=0, select bank1
  3904  0AA2  00C8               	movwf	(pow@y+3)^(0+128)
  3905  0AA3  1683               	bsf	3,5	;RP0=1, select bank3
  3906  0AA4  1703               	bsf	3,6	;RP1=1, select bank3
  3907  0AA5  0830               	movf	(_ftoa2$1420+2)^(0+384),w
  3908  0AA6  1683               	bsf	3,5	;RP0=1, select bank1
  3909  0AA7  1303               	bcf	3,6	;RP1=0, select bank1
  3910  0AA8  00C7               	movwf	(pow@y+2)^(0+128)
  3911  0AA9  1683               	bsf	3,5	;RP0=1, select bank3
  3912  0AAA  1703               	bsf	3,6	;RP1=1, select bank3
  3913  0AAB  082F               	movf	(_ftoa2$1420+1)^(0+384),w
  3914  0AAC  1683               	bsf	3,5	;RP0=1, select bank1
  3915  0AAD  1303               	bcf	3,6	;RP1=0, select bank1
  3916  0AAE  00C6               	movwf	(pow@y+1)^(0+128)
  3917  0AAF  1683               	bsf	3,5	;RP0=1, select bank3
  3918  0AB0  1703               	bsf	3,6	;RP1=1, select bank3
  3919  0AB1  082E               	movf	_ftoa2$1420^(0+384),w
  3920  0AB2  1683               	bsf	3,5	;RP0=1, select bank1
  3921  0AB3  1303               	bcf	3,6	;RP1=0, select bank1
  3922  0AB4  00C5               	movwf	pow@y^(0+128)
  3923  0AB5  3041               	movlw	65
  3924  0AB6  00C4               	movwf	(pow@x+3)^(0+128)
  3925  0AB7  3020               	movlw	32
  3926  0AB8  00C3               	movwf	(pow@x+2)^(0+128)
  3927  0AB9  3000               	movlw	0
  3928  0ABA  00C2               	movwf	(pow@x+1)^(0+128)
  3929  0ABB  3000               	movlw	0
  3930  0ABC  00C1               	movwf	pow@x^(0+128)
  3931  0ABD  120A  118A  201D  120A  158A  	fcall	_pow
  3932  0AC2  1683               	bsf	3,5	;RP0=1, select bank1
  3933  0AC3  1303               	bcf	3,6	;RP1=0, select bank1
  3934  0AC4  0844               	movf	(?_pow+3)^(0+128),w
  3935  0AC5  1683               	bsf	3,5	;RP0=1, select bank3
  3936  0AC6  1703               	bsf	3,6	;RP1=1, select bank3
  3937  0AC7  00B5               	movwf	(_ftoa2$1421+3)^(0+384)
  3938  0AC8  1683               	bsf	3,5	;RP0=1, select bank1
  3939  0AC9  1303               	bcf	3,6	;RP1=0, select bank1
  3940  0ACA  0843               	movf	(?_pow+2)^(0+128),w
  3941  0ACB  1683               	bsf	3,5	;RP0=1, select bank3
  3942  0ACC  1703               	bsf	3,6	;RP1=1, select bank3
  3943  0ACD  00B4               	movwf	(_ftoa2$1421+2)^(0+384)
  3944  0ACE  1683               	bsf	3,5	;RP0=1, select bank1
  3945  0ACF  1303               	bcf	3,6	;RP1=0, select bank1
  3946  0AD0  0842               	movf	(?_pow+1)^(0+128),w
  3947  0AD1  1683               	bsf	3,5	;RP0=1, select bank3
  3948  0AD2  1703               	bsf	3,6	;RP1=1, select bank3
  3949  0AD3  00B3               	movwf	(_ftoa2$1421+1)^(0+384)
  3950  0AD4  1683               	bsf	3,5	;RP0=1, select bank1
  3951  0AD5  1303               	bcf	3,6	;RP1=0, select bank1
  3952  0AD6  0841               	movf	?_pow^(0+128),w
  3953  0AD7  1683               	bsf	3,5	;RP0=1, select bank3
  3954  0AD8  1703               	bsf	3,6	;RP1=1, select bank3
  3955  0AD9  00B2               	movwf	_ftoa2$1421^(0+384)
  3956  0ADA                     l4598:	
  3957                           
  3958                           ;./LCD2.h: 254:         cosof= cosof* pow(10,puntor);
  3959  0ADA  083D               	movf	(ftoa2@cosof+3)^(0+384),w
  3960  0ADB  1283               	bcf	3,5	;RP0=0, select bank0
  3961  0ADC  1303               	bcf	3,6	;RP1=0, select bank0
  3962  0ADD  00C2               	movwf	___flmul@b+3
  3963  0ADE  1683               	bsf	3,5	;RP0=1, select bank3
  3964  0ADF  1703               	bsf	3,6	;RP1=1, select bank3
  3965  0AE0  083C               	movf	(ftoa2@cosof+2)^(0+384),w
  3966  0AE1  1283               	bcf	3,5	;RP0=0, select bank0
  3967  0AE2  1303               	bcf	3,6	;RP1=0, select bank0
  3968  0AE3  00C1               	movwf	___flmul@b+2
  3969  0AE4  1683               	bsf	3,5	;RP0=1, select bank3
  3970  0AE5  1703               	bsf	3,6	;RP1=1, select bank3
  3971  0AE6  083B               	movf	(ftoa2@cosof+1)^(0+384),w
  3972  0AE7  1283               	bcf	3,5	;RP0=0, select bank0
  3973  0AE8  1303               	bcf	3,6	;RP1=0, select bank0
  3974  0AE9  00C0               	movwf	___flmul@b+1
  3975  0AEA  1683               	bsf	3,5	;RP0=1, select bank3
  3976  0AEB  1703               	bsf	3,6	;RP1=1, select bank3
  3977  0AEC  083A               	movf	ftoa2@cosof^(0+384),w
  3978  0AED  1283               	bcf	3,5	;RP0=0, select bank0
  3979  0AEE  1303               	bcf	3,6	;RP1=0, select bank0
  3980  0AEF  00BF               	movwf	___flmul@b
  3981  0AF0  1683               	bsf	3,5	;RP0=1, select bank3
  3982  0AF1  1703               	bsf	3,6	;RP1=1, select bank3
  3983  0AF2  0835               	movf	(_ftoa2$1421+3)^(0+384),w
  3984  0AF3  1283               	bcf	3,5	;RP0=0, select bank0
  3985  0AF4  1303               	bcf	3,6	;RP1=0, select bank0
  3986  0AF5  00C6               	movwf	___flmul@a+3
  3987  0AF6  1683               	bsf	3,5	;RP0=1, select bank3
  3988  0AF7  1703               	bsf	3,6	;RP1=1, select bank3
  3989  0AF8  0834               	movf	(_ftoa2$1421+2)^(0+384),w
  3990  0AF9  1283               	bcf	3,5	;RP0=0, select bank0
  3991  0AFA  1303               	bcf	3,6	;RP1=0, select bank0
  3992  0AFB  00C5               	movwf	___flmul@a+2
  3993  0AFC  1683               	bsf	3,5	;RP0=1, select bank3
  3994  0AFD  1703               	bsf	3,6	;RP1=1, select bank3
  3995  0AFE  0833               	movf	(_ftoa2$1421+1)^(0+384),w
  3996  0AFF  1283               	bcf	3,5	;RP0=0, select bank0
  3997  0B00  1303               	bcf	3,6	;RP1=0, select bank0
  3998  0B01  00C4               	movwf	___flmul@a+1
  3999  0B02  1683               	bsf	3,5	;RP0=1, select bank3
  4000  0B03  1703               	bsf	3,6	;RP1=1, select bank3
  4001  0B04  0832               	movf	_ftoa2$1421^(0+384),w
  4002  0B05  1283               	bcf	3,5	;RP0=0, select bank0
  4003  0B06  1303               	bcf	3,6	;RP1=0, select bank0
  4004  0B07  00C3               	movwf	___flmul@a
  4005  0B08  120A  118A  248A  120A  158A  	fcall	___flmul
  4006  0B0D  1283               	bcf	3,5	;RP0=0, select bank0
  4007  0B0E  1303               	bcf	3,6	;RP1=0, select bank0
  4008  0B0F  0842               	movf	?___flmul+3,w
  4009  0B10  1683               	bsf	3,5	;RP0=1, select bank3
  4010  0B11  1703               	bsf	3,6	;RP1=1, select bank3
  4011  0B12  00BD               	movwf	(ftoa2@cosof+3)^(0+384)
  4012  0B13  1283               	bcf	3,5	;RP0=0, select bank0
  4013  0B14  1303               	bcf	3,6	;RP1=0, select bank0
  4014  0B15  0841               	movf	?___flmul+2,w
  4015  0B16  1683               	bsf	3,5	;RP0=1, select bank3
  4016  0B17  1703               	bsf	3,6	;RP1=1, select bank3
  4017  0B18  00BC               	movwf	(ftoa2@cosof+2)^(0+384)
  4018  0B19  1283               	bcf	3,5	;RP0=0, select bank0
  4019  0B1A  1303               	bcf	3,6	;RP1=0, select bank0
  4020  0B1B  0840               	movf	?___flmul+1,w
  4021  0B1C  1683               	bsf	3,5	;RP0=1, select bank3
  4022  0B1D  1703               	bsf	3,6	;RP1=1, select bank3
  4023  0B1E  00BB               	movwf	(ftoa2@cosof+1)^(0+384)
  4024  0B1F  1283               	bcf	3,5	;RP0=0, select bank0
  4025  0B20  1303               	bcf	3,6	;RP1=0, select bank0
  4026  0B21  083F               	movf	?___flmul,w
  4027  0B22  1683               	bsf	3,5	;RP0=1, select bank3
  4028  0B23  1703               	bsf	3,6	;RP1=1, select bank3
  4029  0B24  00BA               	movwf	ftoa2@cosof^(0+384)
  4030  0B25                     l4600:	
  4031                           
  4032                           ;./LCD2.h: 255:         Dtr((int)cosof, Q +1,puntor);
  4033  0B25  083D               	movf	(ftoa2@cosof+3)^(0+384),w
  4034  0B26  00F3               	movwf	___fltol@f1+3
  4035  0B27  083C               	movf	(ftoa2@cosof+2)^(0+384),w
  4036  0B28  00F2               	movwf	___fltol@f1+2
  4037  0B29  083B               	movf	(ftoa2@cosof+1)^(0+384),w
  4038  0B2A  00F1               	movwf	___fltol@f1+1
  4039  0B2B  083A               	movf	ftoa2@cosof^(0+384),w
  4040  0B2C  00F0               	movwf	___fltol@f1
  4041  0B2D  160A  158A  25DC  120A  158A  	fcall	___fltol
  4042  0B32  0871               	movf	?___fltol+1,w
  4043  0B33  1283               	bcf	3,5	;RP0=0, select bank0
  4044  0B34  1303               	bcf	3,6	;RP1=0, select bank0
  4045  0B35  00A1               	movwf	Dtr@y+1
  4046  0B36  0870               	movf	?___fltol,w
  4047  0B37  00A0               	movwf	Dtr@y
  4048  0B38  1683               	bsf	3,5	;RP0=1, select bank1
  4049  0B39  1303               	bcf	3,6	;RP1=0, select bank1
  4050  0B3A  085B               	movf	ftoa2@Q^(0+128),w
  4051  0B3B  3E01               	addlw	1
  4052  0B3C  00DE               	movwf	??_ftoa2^(0+128)
  4053  0B3D  085E               	movf	??_ftoa2^(0+128),w
  4054  0B3E  1283               	bcf	3,5	;RP0=0, select bank0
  4055  0B3F  1303               	bcf	3,6	;RP1=0, select bank0
  4056  0B40  00A2               	movwf	Dtr@zpr
  4057  0B41  1683               	bsf	3,5	;RP0=1, select bank1
  4058  0B42  1303               	bcf	3,6	;RP1=0, select bank1
  4059  0B43  085D               	movf	(ftoa2@puntor+1)^(0+128),w
  4060  0B44  1283               	bcf	3,5	;RP0=0, select bank0
  4061  0B45  1303               	bcf	3,6	;RP1=0, select bank0
  4062  0B46  00A4               	movwf	Dtr@P+1
  4063  0B47  1683               	bsf	3,5	;RP0=1, select bank1
  4064  0B48  1303               	bcf	3,6	;RP1=0, select bank1
  4065  0B49  085C               	movf	ftoa2@puntor^(0+128),w
  4066  0B4A  1283               	bcf	3,5	;RP0=0, select bank0
  4067  0B4B  1303               	bcf	3,6	;RP1=0, select bank0
  4068  0B4C  00A3               	movwf	Dtr@P
  4069  0B4D  160A  158A  2564  120A  158A  	fcall	_Dtr
  4070  0B52                     l154:	
  4071  0B52  0008               	return
  4072  0B53                     __end_of_ftoa2:	
  4073                           
  4074                           	psect	text17
  4075  001D                     __ptext17:	
  4076 ;; *************** function _pow *****************
  4077 ;; Defined at:
  4078 ;;		line 5 in file "C:\Program Files (x86)\Microchip\xc8\v2.10\pic\sources\c90\common\pow.c"
  4079 ;; Parameters:    Size  Location     Type
  4080 ;;  x               4   33[BANK1 ] void 
  4081 ;;  y               4   37[BANK1 ] void 
  4082 ;; Auto vars:     Size  Location     Type
  4083 ;;  yi              4   51[BANK1 ] unsigned long 
  4084 ;;  sign            1   50[BANK1 ] unsigned char 
  4085 ;; Return value:  Size  Location     Type
  4086 ;;                  4   33[BANK1 ] unsigned char 
  4087 ;; Registers used:
  4088 ;;		wreg, fsr0l, fsr0h, status,2, status,0, btemp+1, pclath, cstack
  4089 ;; Tracked objects:
  4090 ;;		On entry : 0/0
  4091 ;;		On exit  : 0/0
  4092 ;;		Unchanged: 0/0
  4093 ;; Data sizes:     COMMON   BANK0   BANK1   BANK3   BANK2
  4094 ;;      Params:         0       0       8       0       0
  4095 ;;      Locals:         0       0      13       0       0
  4096 ;;      Temps:          0       0       1       0       0
  4097 ;;      Totals:         0       0      22       0       0
  4098 ;;Total ram usage:       22 bytes
  4099 ;; Hardware stack levels used:    1
  4100 ;; Hardware stack levels required when called:    4
  4101 ;; This function calls:
  4102 ;;		___fleq
  4103 ;;		___flge
  4104 ;;		___flmul
  4105 ;;		___flneg
  4106 ;;		___fltol
  4107 ;;		___xxtofl
  4108 ;;		_exp
  4109 ;;		_log
  4110 ;; This function is called by:
  4111 ;;		_ftoa2
  4112 ;; This function uses a non-reentrant model
  4113 ;;
  4114                           
  4115                           
  4116                           ;psect for function _pow
  4117  001D                     _pow:	
  4118  001D                     l4526:	
  4119                           ;incstack = 0
  4120                           ; Regs used in _pow: [wreg-fsr0h+status,2+status,0+btemp+1+pclath+cstack]
  4121                           
  4122  001D  1683               	bsf	3,5	;RP0=1, select bank1
  4123  001E  1303               	bcf	3,6	;RP1=0, select bank1
  4124  001F  01D2               	clrf	pow@sign^(0+128)
  4125  0020                     l4528:	
  4126  0020  0844               	movf	(pow@x+3)^(0+128),w
  4127  0021  1283               	bcf	3,5	;RP0=0, select bank0
  4128  0022  1303               	bcf	3,6	;RP1=0, select bank0
  4129  0023  00B1               	movwf	___fleq@ff1+3
  4130  0024  1683               	bsf	3,5	;RP0=1, select bank1
  4131  0025  1303               	bcf	3,6	;RP1=0, select bank1
  4132  0026  0843               	movf	(pow@x+2)^(0+128),w
  4133  0027  1283               	bcf	3,5	;RP0=0, select bank0
  4134  0028  1303               	bcf	3,6	;RP1=0, select bank0
  4135  0029  00B0               	movwf	___fleq@ff1+2
  4136  002A  1683               	bsf	3,5	;RP0=1, select bank1
  4137  002B  1303               	bcf	3,6	;RP1=0, select bank1
  4138  002C  0842               	movf	(pow@x+1)^(0+128),w
  4139  002D  1283               	bcf	3,5	;RP0=0, select bank0
  4140  002E  1303               	bcf	3,6	;RP1=0, select bank0
  4141  002F  00AF               	movwf	___fleq@ff1+1
  4142  0030  1683               	bsf	3,5	;RP0=1, select bank1
  4143  0031  1303               	bcf	3,6	;RP1=0, select bank1
  4144  0032  0841               	movf	pow@x^(0+128),w
  4145  0033  1283               	bcf	3,5	;RP0=0, select bank0
  4146  0034  1303               	bcf	3,6	;RP1=0, select bank0
  4147  0035  00AE               	movwf	___fleq@ff1
  4148  0036  3000               	movlw	0
  4149  0037  00B5               	movwf	___fleq@ff2+3
  4150  0038  3000               	movlw	0
  4151  0039  00B4               	movwf	___fleq@ff2+2
  4152  003A  3000               	movlw	0
  4153  003B  00B3               	movwf	___fleq@ff2+1
  4154  003C  3000               	movlw	0
  4155  003D  00B2               	movwf	___fleq@ff2
  4156  003E  160A  158A  23F8  120A  118A  	fcall	___fleq
  4157  0043  1C03               	btfss	3,0
  4158  0044  2846               	goto	u6591
  4159  0045  2847               	goto	u6590
  4160  0046                     u6591:	
  4161  0046  2873               	goto	l4536
  4162  0047                     u6590:	
  4163  0047                     l4530:	
  4164  0047  3000               	movlw	0
  4165  0048  00F3               	movwf	___flge@ff1+3
  4166  0049  3000               	movlw	0
  4167  004A  00F2               	movwf	___flge@ff1+2
  4168  004B  3000               	movlw	0
  4169  004C  00F1               	movwf	___flge@ff1+1
  4170  004D  3000               	movlw	0
  4171  004E  00F0               	movwf	___flge@ff1
  4172  004F  1683               	bsf	3,5	;RP0=1, select bank1
  4173  0050  1303               	bcf	3,6	;RP1=0, select bank1
  4174  0051  0848               	movf	(pow@y+3)^(0+128),w
  4175  0052  00F7               	movwf	___flge@ff2+3
  4176  0053  0847               	movf	(pow@y+2)^(0+128),w
  4177  0054  00F6               	movwf	___flge@ff2+2
  4178  0055  0846               	movf	(pow@y+1)^(0+128),w
  4179  0056  00F5               	movwf	___flge@ff2+1
  4180  0057  0845               	movf	pow@y^(0+128),w
  4181  0058  00F4               	movwf	___flge@ff2
  4182  0059  160A  118A  2008  120A  118A  	fcall	___flge
  4183  005E  1C03               	btfss	3,0
  4184  005F  2861               	goto	u6601
  4185  0060  2862               	goto	u6600
  4186  0061                     u6601:	
  4187  0061  2868               	goto	l761
  4188  0062                     u6600:	
  4189  0062                     l4532:	
  4190  0062  3021               	movlw	33
  4191  0063  1683               	bsf	3,5	;RP0=1, select bank3
  4192  0064  1703               	bsf	3,6	;RP1=1, select bank3
  4193  0065  0098               	movwf	_errno^(0+384)
  4194  0066  3000               	movlw	0
  4195  0067  0099               	movwf	(_errno^(0+384)+1)
  4196  0068                     l761:	
  4197  0068  3000               	movlw	0
  4198  0069  1683               	bsf	3,5	;RP0=1, select bank1
  4199  006A  1303               	bcf	3,6	;RP1=0, select bank1
  4200  006B  00C4               	movwf	(?_pow+3)^(0+128)
  4201  006C  3000               	movlw	0
  4202  006D  00C3               	movwf	(?_pow+2)^(0+128)
  4203  006E  3000               	movlw	0
  4204  006F  00C2               	movwf	(?_pow+1)^(0+128)
  4205  0070  3000               	movlw	0
  4206  0071  00C1               	movwf	?_pow^(0+128)
  4207  0072  29E9               	goto	l762
  4208  0073                     l4536:	
  4209  0073  1683               	bsf	3,5	;RP0=1, select bank1
  4210  0074  1303               	bcf	3,6	;RP1=0, select bank1
  4211  0075  0848               	movf	(pow@y+3)^(0+128),w
  4212  0076  1283               	bcf	3,5	;RP0=0, select bank0
  4213  0077  1303               	bcf	3,6	;RP1=0, select bank0
  4214  0078  00B1               	movwf	___fleq@ff1+3
  4215  0079  1683               	bsf	3,5	;RP0=1, select bank1
  4216  007A  1303               	bcf	3,6	;RP1=0, select bank1
  4217  007B  0847               	movf	(pow@y+2)^(0+128),w
  4218  007C  1283               	bcf	3,5	;RP0=0, select bank0
  4219  007D  1303               	bcf	3,6	;RP1=0, select bank0
  4220  007E  00B0               	movwf	___fleq@ff1+2
  4221  007F  1683               	bsf	3,5	;RP0=1, select bank1
  4222  0080  1303               	bcf	3,6	;RP1=0, select bank1
  4223  0081  0846               	movf	(pow@y+1)^(0+128),w
  4224  0082  1283               	bcf	3,5	;RP0=0, select bank0
  4225  0083  1303               	bcf	3,6	;RP1=0, select bank0
  4226  0084  00AF               	movwf	___fleq@ff1+1
  4227  0085  1683               	bsf	3,5	;RP0=1, select bank1
  4228  0086  1303               	bcf	3,6	;RP1=0, select bank1
  4229  0087  0845               	movf	pow@y^(0+128),w
  4230  0088  1283               	bcf	3,5	;RP0=0, select bank0
  4231  0089  1303               	bcf	3,6	;RP1=0, select bank0
  4232  008A  00AE               	movwf	___fleq@ff1
  4233  008B  3000               	movlw	0
  4234  008C  00B5               	movwf	___fleq@ff2+3
  4235  008D  3000               	movlw	0
  4236  008E  00B4               	movwf	___fleq@ff2+2
  4237  008F  3000               	movlw	0
  4238  0090  00B3               	movwf	___fleq@ff2+1
  4239  0091  3000               	movlw	0
  4240  0092  00B2               	movwf	___fleq@ff2
  4241  0093  160A  158A  23F8  120A  118A  	fcall	___fleq
  4242  0098  1C03               	btfss	3,0
  4243  0099  289B               	goto	u6611
  4244  009A  289C               	goto	u6610
  4245  009B                     u6611:	
  4246  009B  28A7               	goto	l4542
  4247  009C                     u6610:	
  4248  009C                     l4538:	
  4249  009C  303F               	movlw	63
  4250  009D  1683               	bsf	3,5	;RP0=1, select bank1
  4251  009E  1303               	bcf	3,6	;RP1=0, select bank1
  4252  009F  00C4               	movwf	(?_pow+3)^(0+128)
  4253  00A0  3080               	movlw	128
  4254  00A1  00C3               	movwf	(?_pow+2)^(0+128)
  4255  00A2  3000               	movlw	0
  4256  00A3  00C2               	movwf	(?_pow+1)^(0+128)
  4257  00A4  3000               	movlw	0
  4258  00A5  00C1               	movwf	?_pow^(0+128)
  4259  00A6  29E9               	goto	l762
  4260  00A7                     l4542:	
  4261  00A7  1683               	bsf	3,5	;RP0=1, select bank1
  4262  00A8  1303               	bcf	3,6	;RP1=0, select bank1
  4263  00A9  0844               	movf	(pow@x+3)^(0+128),w
  4264  00AA  00F3               	movwf	___flge@ff1+3
  4265  00AB  0843               	movf	(pow@x+2)^(0+128),w
  4266  00AC  00F2               	movwf	___flge@ff1+2
  4267  00AD  0842               	movf	(pow@x+1)^(0+128),w
  4268  00AE  00F1               	movwf	___flge@ff1+1
  4269  00AF  0841               	movf	pow@x^(0+128),w
  4270  00B0  00F0               	movwf	___flge@ff1
  4271  00B1  3000               	movlw	0
  4272  00B2  00F7               	movwf	___flge@ff2+3
  4273  00B3  3000               	movlw	0
  4274  00B4  00F6               	movwf	___flge@ff2+2
  4275  00B5  3000               	movlw	0
  4276  00B6  00F5               	movwf	___flge@ff2+1
  4277  00B7  3000               	movlw	0
  4278  00B8  00F4               	movwf	___flge@ff2
  4279  00B9  160A  118A  2008  120A  118A  	fcall	___flge
  4280  00BE  1803               	btfsc	3,0
  4281  00BF  28C1               	goto	u6621
  4282  00C0  28C2               	goto	u6620
  4283  00C1                     u6621:	
  4284  00C1  2951               	goto	l4554
  4285  00C2                     u6620:	
  4286  00C2                     l4544:	
  4287  00C2  1683               	bsf	3,5	;RP0=1, select bank1
  4288  00C3  1303               	bcf	3,6	;RP1=0, select bank1
  4289  00C4  0848               	movf	(pow@y+3)^(0+128),w
  4290  00C5  00F3               	movwf	___fltol@f1+3
  4291  00C6  0847               	movf	(pow@y+2)^(0+128),w
  4292  00C7  00F2               	movwf	___fltol@f1+2
  4293  00C8  0846               	movf	(pow@y+1)^(0+128),w
  4294  00C9  00F1               	movwf	___fltol@f1+1
  4295  00CA  0845               	movf	pow@y^(0+128),w
  4296  00CB  00F0               	movwf	___fltol@f1
  4297  00CC  160A  158A  25DC  120A  118A  	fcall	___fltol
  4298  00D1  0873               	movf	?___fltol+3,w
  4299  00D2  1683               	bsf	3,5	;RP0=1, select bank1
  4300  00D3  1303               	bcf	3,6	;RP1=0, select bank1
  4301  00D4  00D6               	movwf	(pow@yi+3)^(0+128)
  4302  00D5  0872               	movf	?___fltol+2,w
  4303  00D6  00D5               	movwf	(pow@yi+2)^(0+128)
  4304  00D7  0871               	movf	?___fltol+1,w
  4305  00D8  00D4               	movwf	(pow@yi+1)^(0+128)
  4306  00D9  0870               	movf	?___fltol,w
  4307  00DA  00D3               	movwf	pow@yi^(0+128)
  4308  00DB  0856               	movf	(pow@yi+3)^(0+128),w
  4309  00DC  1283               	bcf	3,5	;RP0=0, select bank0
  4310  00DD  1303               	bcf	3,6	;RP1=0, select bank0
  4311  00DE  00A3               	movwf	___xxtofl@val+3
  4312  00DF  1683               	bsf	3,5	;RP0=1, select bank1
  4313  00E0  1303               	bcf	3,6	;RP1=0, select bank1
  4314  00E1  0855               	movf	(pow@yi+2)^(0+128),w
  4315  00E2  1283               	bcf	3,5	;RP0=0, select bank0
  4316  00E3  1303               	bcf	3,6	;RP1=0, select bank0
  4317  00E4  00A2               	movwf	___xxtofl@val+2
  4318  00E5  1683               	bsf	3,5	;RP0=1, select bank1
  4319  00E6  1303               	bcf	3,6	;RP1=0, select bank1
  4320  00E7  0854               	movf	(pow@yi+1)^(0+128),w
  4321  00E8  1283               	bcf	3,5	;RP0=0, select bank0
  4322  00E9  1303               	bcf	3,6	;RP1=0, select bank0
  4323  00EA  00A1               	movwf	___xxtofl@val+1
  4324  00EB  1683               	bsf	3,5	;RP0=1, select bank1
  4325  00EC  1303               	bcf	3,6	;RP1=0, select bank1
  4326  00ED  0853               	movf	pow@yi^(0+128),w
  4327  00EE  1283               	bcf	3,5	;RP0=0, select bank0
  4328  00EF  1303               	bcf	3,6	;RP1=0, select bank0
  4329  00F0  00A0               	movwf	___xxtofl@val
  4330  00F1  3000               	movlw	0
  4331  00F2  160A  118A  235E  120A  118A  	fcall	___xxtofl
  4332  00F7  1283               	bcf	3,5	;RP0=0, select bank0
  4333  00F8  1303               	bcf	3,6	;RP1=0, select bank0
  4334  00F9  0823               	movf	?___xxtofl+3,w
  4335  00FA  00B1               	movwf	___fleq@ff1+3
  4336  00FB  0822               	movf	?___xxtofl+2,w
  4337  00FC  00B0               	movwf	___fleq@ff1+2
  4338  00FD  0821               	movf	?___xxtofl+1,w
  4339  00FE  00AF               	movwf	___fleq@ff1+1
  4340  00FF  0820               	movf	?___xxtofl,w
  4341  0100  00AE               	movwf	___fleq@ff1
  4342  0101  1683               	bsf	3,5	;RP0=1, select bank1
  4343  0102  1303               	bcf	3,6	;RP1=0, select bank1
  4344  0103  0848               	movf	(pow@y+3)^(0+128),w
  4345  0104  1283               	bcf	3,5	;RP0=0, select bank0
  4346  0105  1303               	bcf	3,6	;RP1=0, select bank0
  4347  0106  00B5               	movwf	___fleq@ff2+3
  4348  0107  1683               	bsf	3,5	;RP0=1, select bank1
  4349  0108  1303               	bcf	3,6	;RP1=0, select bank1
  4350  0109  0847               	movf	(pow@y+2)^(0+128),w
  4351  010A  1283               	bcf	3,5	;RP0=0, select bank0
  4352  010B  1303               	bcf	3,6	;RP1=0, select bank0
  4353  010C  00B4               	movwf	___fleq@ff2+2
  4354  010D  1683               	bsf	3,5	;RP0=1, select bank1
  4355  010E  1303               	bcf	3,6	;RP1=0, select bank1
  4356  010F  0846               	movf	(pow@y+1)^(0+128),w
  4357  0110  1283               	bcf	3,5	;RP0=0, select bank0
  4358  0111  1303               	bcf	3,6	;RP1=0, select bank0
  4359  0112  00B3               	movwf	___fleq@ff2+1
  4360  0113  1683               	bsf	3,5	;RP0=1, select bank1
  4361  0114  1303               	bcf	3,6	;RP1=0, select bank1
  4362  0115  0845               	movf	pow@y^(0+128),w
  4363  0116  1283               	bcf	3,5	;RP0=0, select bank0
  4364  0117  1303               	bcf	3,6	;RP1=0, select bank0
  4365  0118  00B2               	movwf	___fleq@ff2
  4366  0119  160A  158A  23F8  120A  118A  	fcall	___fleq
  4367  011E  1803               	btfsc	3,0
  4368  011F  2921               	goto	u6631
  4369  0120  2922               	goto	u6630
  4370  0121                     u6631:	
  4371  0121  2933               	goto	l4550
  4372  0122                     u6630:	
  4373  0122                     l4546:	
  4374  0122  3021               	movlw	33
  4375  0123  1683               	bsf	3,5	;RP0=1, select bank3
  4376  0124  1703               	bsf	3,6	;RP1=1, select bank3
  4377  0125  0098               	movwf	_errno^(0+384)
  4378  0126  3000               	movlw	0
  4379  0127  0099               	movwf	(_errno^(0+384)+1)
  4380  0128  3000               	movlw	0
  4381  0129  1683               	bsf	3,5	;RP0=1, select bank1
  4382  012A  1303               	bcf	3,6	;RP1=0, select bank1
  4383  012B  00C4               	movwf	(?_pow+3)^(0+128)
  4384  012C  3000               	movlw	0
  4385  012D  00C3               	movwf	(?_pow+2)^(0+128)
  4386  012E  3000               	movlw	0
  4387  012F  00C2               	movwf	(?_pow+1)^(0+128)
  4388  0130  3000               	movlw	0
  4389  0131  00C1               	movwf	?_pow^(0+128)
  4390  0132  29E9               	goto	l762
  4391  0133                     l4550:	
  4392  0133  1683               	bsf	3,5	;RP0=1, select bank1
  4393  0134  1303               	bcf	3,6	;RP1=0, select bank1
  4394  0135  0853               	movf	pow@yi^(0+128),w
  4395  0136  3901               	andlw	1
  4396  0137  00C9               	movwf	??_pow^(0+128)
  4397  0138  0849               	movf	??_pow^(0+128),w
  4398  0139  00D2               	movwf	pow@sign^(0+128)
  4399  013A                     l4552:	
  4400  013A  0844               	movf	(pow@x+3)^(0+128),w
  4401  013B  00F3               	movwf	___flneg@f1+3
  4402  013C  0843               	movf	(pow@x+2)^(0+128),w
  4403  013D  00F2               	movwf	___flneg@f1+2
  4404  013E  0842               	movf	(pow@x+1)^(0+128),w
  4405  013F  00F1               	movwf	___flneg@f1+1
  4406  0140  0841               	movf	pow@x^(0+128),w
  4407  0141  00F0               	movwf	___flneg@f1
  4408  0142  160A  158A  217F  120A  118A  	fcall	___flneg
  4409  0147  0873               	movf	?___flneg+3,w
  4410  0148  1683               	bsf	3,5	;RP0=1, select bank1
  4411  0149  1303               	bcf	3,6	;RP1=0, select bank1
  4412  014A  00C4               	movwf	(pow@x+3)^(0+128)
  4413  014B  0872               	movf	?___flneg+2,w
  4414  014C  00C3               	movwf	(pow@x+2)^(0+128)
  4415  014D  0871               	movf	?___flneg+1,w
  4416  014E  00C2               	movwf	(pow@x+1)^(0+128)
  4417  014F  0870               	movf	?___flneg,w
  4418  0150  00C1               	movwf	pow@x^(0+128)
  4419  0151                     l4554:	
  4420  0151  1683               	bsf	3,5	;RP0=1, select bank1
  4421  0152  1303               	bcf	3,6	;RP1=0, select bank1
  4422  0153  0844               	movf	(pow@x+3)^(0+128),w
  4423  0154  00B3               	movwf	(log@x+3)^(0+128)
  4424  0155  0843               	movf	(pow@x+2)^(0+128),w
  4425  0156  00B2               	movwf	(log@x+2)^(0+128)
  4426  0157  0842               	movf	(pow@x+1)^(0+128),w
  4427  0158  00B1               	movwf	(log@x+1)^(0+128)
  4428  0159  0841               	movf	pow@x^(0+128),w
  4429  015A  00B0               	movwf	log@x^(0+128)
  4430  015B  120A  158A  2073  120A  118A  	fcall	_log
  4431  0160  1683               	bsf	3,5	;RP0=1, select bank1
  4432  0161  1303               	bcf	3,6	;RP1=0, select bank1
  4433  0162  0833               	movf	(?_log+3)^(0+128),w
  4434  0163  00CD               	movwf	(_pow$1422+3)^(0+128)
  4435  0164  0832               	movf	(?_log+2)^(0+128),w
  4436  0165  00CC               	movwf	(_pow$1422+2)^(0+128)
  4437  0166  0831               	movf	(?_log+1)^(0+128),w
  4438  0167  00CB               	movwf	(_pow$1422+1)^(0+128)
  4439  0168  0830               	movf	?_log^(0+128),w
  4440  0169  00CA               	movwf	_pow$1422^(0+128)
  4441  016A                     l4556:	
  4442  016A  0848               	movf	(pow@y+3)^(0+128),w
  4443  016B  1283               	bcf	3,5	;RP0=0, select bank0
  4444  016C  1303               	bcf	3,6	;RP1=0, select bank0
  4445  016D  00C2               	movwf	___flmul@b+3
  4446  016E  1683               	bsf	3,5	;RP0=1, select bank1
  4447  016F  1303               	bcf	3,6	;RP1=0, select bank1
  4448  0170  0847               	movf	(pow@y+2)^(0+128),w
  4449  0171  1283               	bcf	3,5	;RP0=0, select bank0
  4450  0172  1303               	bcf	3,6	;RP1=0, select bank0
  4451  0173  00C1               	movwf	___flmul@b+2
  4452  0174  1683               	bsf	3,5	;RP0=1, select bank1
  4453  0175  1303               	bcf	3,6	;RP1=0, select bank1
  4454  0176  0846               	movf	(pow@y+1)^(0+128),w
  4455  0177  1283               	bcf	3,5	;RP0=0, select bank0
  4456  0178  1303               	bcf	3,6	;RP1=0, select bank0
  4457  0179  00C0               	movwf	___flmul@b+1
  4458  017A  1683               	bsf	3,5	;RP0=1, select bank1
  4459  017B  1303               	bcf	3,6	;RP1=0, select bank1
  4460  017C  0845               	movf	pow@y^(0+128),w
  4461  017D  1283               	bcf	3,5	;RP0=0, select bank0
  4462  017E  1303               	bcf	3,6	;RP1=0, select bank0
  4463  017F  00BF               	movwf	___flmul@b
  4464  0180  1683               	bsf	3,5	;RP0=1, select bank1
  4465  0181  1303               	bcf	3,6	;RP1=0, select bank1
  4466  0182  084D               	movf	(_pow$1422+3)^(0+128),w
  4467  0183  1283               	bcf	3,5	;RP0=0, select bank0
  4468  0184  1303               	bcf	3,6	;RP1=0, select bank0
  4469  0185  00C6               	movwf	___flmul@a+3
  4470  0186  1683               	bsf	3,5	;RP0=1, select bank1
  4471  0187  1303               	bcf	3,6	;RP1=0, select bank1
  4472  0188  084C               	movf	(_pow$1422+2)^(0+128),w
  4473  0189  1283               	bcf	3,5	;RP0=0, select bank0
  4474  018A  1303               	bcf	3,6	;RP1=0, select bank0
  4475  018B  00C5               	movwf	___flmul@a+2
  4476  018C  1683               	bsf	3,5	;RP0=1, select bank1
  4477  018D  1303               	bcf	3,6	;RP1=0, select bank1
  4478  018E  084B               	movf	(_pow$1422+1)^(0+128),w
  4479  018F  1283               	bcf	3,5	;RP0=0, select bank0
  4480  0190  1303               	bcf	3,6	;RP1=0, select bank0
  4481  0191  00C4               	movwf	___flmul@a+1
  4482  0192  1683               	bsf	3,5	;RP0=1, select bank1
  4483  0193  1303               	bcf	3,6	;RP1=0, select bank1
  4484  0194  084A               	movf	_pow$1422^(0+128),w
  4485  0195  1283               	bcf	3,5	;RP0=0, select bank0
  4486  0196  1303               	bcf	3,6	;RP1=0, select bank0
  4487  0197  00C3               	movwf	___flmul@a
  4488  0198  120A  118A  248A  120A  118A  	fcall	___flmul
  4489  019D  1283               	bcf	3,5	;RP0=0, select bank0
  4490  019E  1303               	bcf	3,6	;RP1=0, select bank0
  4491  019F  0842               	movf	?___flmul+3,w
  4492  01A0  1683               	bsf	3,5	;RP0=1, select bank1
  4493  01A1  1303               	bcf	3,6	;RP1=0, select bank1
  4494  01A2  00D1               	movwf	(_pow$1423+3)^(0+128)
  4495  01A3  1283               	bcf	3,5	;RP0=0, select bank0
  4496  01A4  1303               	bcf	3,6	;RP1=0, select bank0
  4497  01A5  0841               	movf	?___flmul+2,w
  4498  01A6  1683               	bsf	3,5	;RP0=1, select bank1
  4499  01A7  1303               	bcf	3,6	;RP1=0, select bank1
  4500  01A8  00D0               	movwf	(_pow$1423+2)^(0+128)
  4501  01A9  1283               	bcf	3,5	;RP0=0, select bank0
  4502  01AA  1303               	bcf	3,6	;RP1=0, select bank0
  4503  01AB  0840               	movf	?___flmul+1,w
  4504  01AC  1683               	bsf	3,5	;RP0=1, select bank1
  4505  01AD  1303               	bcf	3,6	;RP1=0, select bank1
  4506  01AE  00CF               	movwf	(_pow$1423+1)^(0+128)
  4507  01AF  1283               	bcf	3,5	;RP0=0, select bank0
  4508  01B0  1303               	bcf	3,6	;RP1=0, select bank0
  4509  01B1  083F               	movf	?___flmul,w
  4510  01B2  1683               	bsf	3,5	;RP0=1, select bank1
  4511  01B3  1303               	bcf	3,6	;RP1=0, select bank1
  4512  01B4  00CE               	movwf	_pow$1423^(0+128)
  4513  01B5                     l4558:	
  4514  01B5  0851               	movf	(_pow$1423+3)^(0+128),w
  4515  01B6  00B9               	movwf	(exp@x+3)^(0+128)
  4516  01B7  0850               	movf	(_pow$1423+2)^(0+128),w
  4517  01B8  00B8               	movwf	(exp@x+2)^(0+128)
  4518  01B9  084F               	movf	(_pow$1423+1)^(0+128),w
  4519  01BA  00B7               	movwf	(exp@x+1)^(0+128)
  4520  01BB  084E               	movf	_pow$1423^(0+128),w
  4521  01BC  00B6               	movwf	exp@x^(0+128)
  4522  01BD  120A  158A  2353  120A  118A  	fcall	_exp
  4523  01C2  1683               	bsf	3,5	;RP0=1, select bank1
  4524  01C3  1303               	bcf	3,6	;RP1=0, select bank1
  4525  01C4  0839               	movf	(?_exp+3)^(0+128),w
  4526  01C5  00C4               	movwf	(pow@x+3)^(0+128)
  4527  01C6  0838               	movf	(?_exp+2)^(0+128),w
  4528  01C7  00C3               	movwf	(pow@x+2)^(0+128)
  4529  01C8  0837               	movf	(?_exp+1)^(0+128),w
  4530  01C9  00C2               	movwf	(pow@x+1)^(0+128)
  4531  01CA  0836               	movf	?_exp^(0+128),w
  4532  01CB  00C1               	movwf	pow@x^(0+128)
  4533  01CC                     l4560:	
  4534  01CC  0852               	movf	pow@sign^(0+128),w
  4535  01CD  1903               	btfsc	3,2
  4536  01CE  29D0               	goto	u6641
  4537  01CF  29D1               	goto	u6640
  4538  01D0                     u6641:	
  4539  01D0  29E9               	goto	l766
  4540  01D1                     u6640:	
  4541  01D1                     l4562:	
  4542  01D1  0844               	movf	(pow@x+3)^(0+128),w
  4543  01D2  00F3               	movwf	___flneg@f1+3
  4544  01D3  0843               	movf	(pow@x+2)^(0+128),w
  4545  01D4  00F2               	movwf	___flneg@f1+2
  4546  01D5  0842               	movf	(pow@x+1)^(0+128),w
  4547  01D6  00F1               	movwf	___flneg@f1+1
  4548  01D7  0841               	movf	pow@x^(0+128),w
  4549  01D8  00F0               	movwf	___flneg@f1
  4550  01D9  160A  158A  217F  120A  118A  	fcall	___flneg
  4551  01DE  0873               	movf	?___flneg+3,w
  4552  01DF  1683               	bsf	3,5	;RP0=1, select bank1
  4553  01E0  1303               	bcf	3,6	;RP1=0, select bank1
  4554  01E1  00C4               	movwf	(?_pow+3)^(0+128)
  4555  01E2  0872               	movf	?___flneg+2,w
  4556  01E3  00C3               	movwf	(?_pow+2)^(0+128)
  4557  01E4  0871               	movf	?___flneg+1,w
  4558  01E5  00C2               	movwf	(?_pow+1)^(0+128)
  4559  01E6  0870               	movf	?___flneg,w
  4560  01E7  00C1               	movwf	?_pow^(0+128)
  4561  01E8  29E9               	goto	l762
  4562  01E9                     l766:	
  4563  01E9                     l762:	
  4564  01E9  0008               	return
  4565  01EA                     __end_of_pow:	
  4566                           
  4567                           	psect	text18
  4568  0873                     __ptext18:	
  4569 ;; *************** function _log *****************
  4570 ;; Defined at:
  4571 ;;		line 5 in file "C:\Program Files (x86)\Microchip\xc8\v2.10\pic\sources\c90\common\log.c"
  4572 ;; Parameters:    Size  Location     Type
  4573 ;;  x               4   16[BANK1 ] unsigned char 
  4574 ;; Auto vars:     Size  Location     Type
  4575 ;;  exponent        2   77[BANK0 ] int 
  4576 ;; Return value:  Size  Location     Type
  4577 ;;                  4   16[BANK1 ] int 
  4578 ;; Registers used:
  4579 ;;		wreg, fsr0l, fsr0h, status,2, status,0, btemp+1, pclath, cstack
  4580 ;; Tracked objects:
  4581 ;;		On entry : 0/0
  4582 ;;		On exit  : 0/0
  4583 ;;		Unchanged: 0/0
  4584 ;; Data sizes:     COMMON   BANK0   BANK1   BANK3   BANK2
  4585 ;;      Params:         0       0       4       0       0
  4586 ;;      Locals:         0       2       0       0       0
  4587 ;;      Temps:          1       0       0       0       0
  4588 ;;      Totals:         1       2       4       0       0
  4589 ;;Total ram usage:        7 bytes
  4590 ;; Hardware stack levels used:    1
  4591 ;; Hardware stack levels required when called:    3
  4592 ;; This function calls:
  4593 ;;		___fladd
  4594 ;;		___fleq
  4595 ;;		___flge
  4596 ;;		___flmul
  4597 ;;		___xxtofl
  4598 ;;		_eval_poly
  4599 ;;		_frexp
  4600 ;; This function is called by:
  4601 ;;		_pow
  4602 ;; This function uses a non-reentrant model
  4603 ;;
  4604                           
  4605                           
  4606                           ;psect for function _log
  4607  0873                     _log:	
  4608  0873                     l4424:	
  4609                           ;incstack = 0
  4610                           ; Regs used in _log: [wreg-fsr0h+status,2+status,0+btemp+1+pclath+cstack]
  4611                           
  4612  0873  1683               	bsf	3,5	;RP0=1, select bank1
  4613  0874  1303               	bcf	3,6	;RP1=0, select bank1
  4614  0875  0833               	movf	(log@x+3)^(0+128),w
  4615  0876  00F3               	movwf	___flge@ff1+3
  4616  0877  0832               	movf	(log@x+2)^(0+128),w
  4617  0878  00F2               	movwf	___flge@ff1+2
  4618  0879  0831               	movf	(log@x+1)^(0+128),w
  4619  087A  00F1               	movwf	___flge@ff1+1
  4620  087B  0830               	movf	log@x^(0+128),w
  4621  087C  00F0               	movwf	___flge@ff1
  4622  087D  3000               	movlw	0
  4623  087E  00F7               	movwf	___flge@ff2+3
  4624  087F  3000               	movlw	0
  4625  0880  00F6               	movwf	___flge@ff2+2
  4626  0881  3000               	movlw	0
  4627  0882  00F5               	movwf	___flge@ff2+1
  4628  0883  3000               	movlw	0
  4629  0884  00F4               	movwf	___flge@ff2
  4630  0885  160A  118A  2008  120A  158A  	fcall	___flge
  4631  088A  1803               	btfsc	3,0
  4632  088B  288D               	goto	u6471
  4633  088C  288E               	goto	u6470
  4634  088D                     u6471:	
  4635  088D  289F               	goto	l4430
  4636  088E                     u6470:	
  4637  088E                     l4426:	
  4638  088E  3021               	movlw	33
  4639  088F  1683               	bsf	3,5	;RP0=1, select bank3
  4640  0890  1703               	bsf	3,6	;RP1=1, select bank3
  4641  0891  0098               	movwf	_errno^(0+384)
  4642  0892  3000               	movlw	0
  4643  0893  0099               	movwf	(_errno^(0+384)+1)
  4644  0894  3000               	movlw	0
  4645  0895  1683               	bsf	3,5	;RP0=1, select bank1
  4646  0896  1303               	bcf	3,6	;RP1=0, select bank1
  4647  0897  00B3               	movwf	(?_log+3)^(0+128)
  4648  0898  3000               	movlw	0
  4649  0899  00B2               	movwf	(?_log+2)^(0+128)
  4650  089A  3000               	movlw	0
  4651  089B  00B1               	movwf	(?_log+1)^(0+128)
  4652  089C  3000               	movlw	0
  4653  089D  00B0               	movwf	?_log^(0+128)
  4654  089E  29CE               	goto	l830
  4655  089F                     l4430:	
  4656  089F  1683               	bsf	3,5	;RP0=1, select bank1
  4657  08A0  1303               	bcf	3,6	;RP1=0, select bank1
  4658  08A1  0833               	movf	(log@x+3)^(0+128),w
  4659  08A2  1283               	bcf	3,5	;RP0=0, select bank0
  4660  08A3  1303               	bcf	3,6	;RP1=0, select bank0
  4661  08A4  00B1               	movwf	___fleq@ff1+3
  4662  08A5  1683               	bsf	3,5	;RP0=1, select bank1
  4663  08A6  1303               	bcf	3,6	;RP1=0, select bank1
  4664  08A7  0832               	movf	(log@x+2)^(0+128),w
  4665  08A8  1283               	bcf	3,5	;RP0=0, select bank0
  4666  08A9  1303               	bcf	3,6	;RP1=0, select bank0
  4667  08AA  00B0               	movwf	___fleq@ff1+2
  4668  08AB  1683               	bsf	3,5	;RP0=1, select bank1
  4669  08AC  1303               	bcf	3,6	;RP1=0, select bank1
  4670  08AD  0831               	movf	(log@x+1)^(0+128),w
  4671  08AE  1283               	bcf	3,5	;RP0=0, select bank0
  4672  08AF  1303               	bcf	3,6	;RP1=0, select bank0
  4673  08B0  00AF               	movwf	___fleq@ff1+1
  4674  08B1  1683               	bsf	3,5	;RP0=1, select bank1
  4675  08B2  1303               	bcf	3,6	;RP1=0, select bank1
  4676  08B3  0830               	movf	log@x^(0+128),w
  4677  08B4  1283               	bcf	3,5	;RP0=0, select bank0
  4678  08B5  1303               	bcf	3,6	;RP1=0, select bank0
  4679  08B6  00AE               	movwf	___fleq@ff1
  4680  08B7  3000               	movlw	0
  4681  08B8  00B5               	movwf	___fleq@ff2+3
  4682  08B9  3000               	movlw	0
  4683  08BA  00B4               	movwf	___fleq@ff2+2
  4684  08BB  3000               	movlw	0
  4685  08BC  00B3               	movwf	___fleq@ff2+1
  4686  08BD  3000               	movlw	0
  4687  08BE  00B2               	movwf	___fleq@ff2
  4688  08BF  160A  158A  23F8  120A  158A  	fcall	___fleq
  4689  08C4  1C03               	btfss	3,0
  4690  08C5  28C7               	goto	u6481
  4691  08C6  28C8               	goto	u6480
  4692  08C7                     u6481:	
  4693  08C7  28D9               	goto	l4436
  4694  08C8                     u6480:	
  4695  08C8                     l4432:	
  4696  08C8  3022               	movlw	34
  4697  08C9  1683               	bsf	3,5	;RP0=1, select bank3
  4698  08CA  1703               	bsf	3,6	;RP1=1, select bank3
  4699  08CB  0098               	movwf	_errno^(0+384)
  4700  08CC  3000               	movlw	0
  4701  08CD  0099               	movwf	(_errno^(0+384)+1)
  4702  08CE  3000               	movlw	0
  4703  08CF  1683               	bsf	3,5	;RP0=1, select bank1
  4704  08D0  1303               	bcf	3,6	;RP1=0, select bank1
  4705  08D1  00B3               	movwf	(?_log+3)^(0+128)
  4706  08D2  3000               	movlw	0
  4707  08D3  00B2               	movwf	(?_log+2)^(0+128)
  4708  08D4  3000               	movlw	0
  4709  08D5  00B1               	movwf	(?_log+1)^(0+128)
  4710  08D6  3000               	movlw	0
  4711  08D7  00B0               	movwf	?_log^(0+128)
  4712  08D8  29CE               	goto	l830
  4713  08D9                     l4436:	
  4714  08D9  30BF               	movlw	191
  4715  08DA  1283               	bcf	3,5	;RP0=0, select bank0
  4716  08DB  1303               	bcf	3,6	;RP1=0, select bank0
  4717  08DC  00DC               	movwf	___fladd@b+3
  4718  08DD  3080               	movlw	128
  4719  08DE  00DB               	movwf	___fladd@b+2
  4720  08DF  3000               	movlw	0
  4721  08E0  00DA               	movwf	___fladd@b+1
  4722  08E1  3000               	movlw	0
  4723  08E2  00D9               	movwf	___fladd@b
  4724  08E3  3040               	movlw	64
  4725  08E4  00C2               	movwf	___flmul@b+3
  4726  08E5  3000               	movlw	0
  4727  08E6  00C1               	movwf	___flmul@b+2
  4728  08E7  3000               	movlw	0
  4729  08E8  00C0               	movwf	___flmul@b+1
  4730  08E9  3000               	movlw	0
  4731  08EA  00BF               	movwf	___flmul@b
  4732  08EB  306D               	movlw	(low (log@exponent| 0))& (0+255)
  4733  08EC  00FD               	movwf	??_log
  4734  08ED  087D               	movf	??_log,w
  4735  08EE  00BE               	movwf	frexp@eptr
  4736  08EF  1683               	bsf	3,5	;RP0=1, select bank1
  4737  08F0  1303               	bcf	3,6	;RP1=0, select bank1
  4738  08F1  0833               	movf	(log@x+3)^(0+128),w
  4739  08F2  1283               	bcf	3,5	;RP0=0, select bank0
  4740  08F3  1303               	bcf	3,6	;RP1=0, select bank0
  4741  08F4  00BD               	movwf	frexp@value+3
  4742  08F5  1683               	bsf	3,5	;RP0=1, select bank1
  4743  08F6  1303               	bcf	3,6	;RP1=0, select bank1
  4744  08F7  0832               	movf	(log@x+2)^(0+128),w
  4745  08F8  1283               	bcf	3,5	;RP0=0, select bank0
  4746  08F9  1303               	bcf	3,6	;RP1=0, select bank0
  4747  08FA  00BC               	movwf	frexp@value+2
  4748  08FB  1683               	bsf	3,5	;RP0=1, select bank1
  4749  08FC  1303               	bcf	3,6	;RP1=0, select bank1
  4750  08FD  0831               	movf	(log@x+1)^(0+128),w
  4751  08FE  1283               	bcf	3,5	;RP0=0, select bank0
  4752  08FF  1303               	bcf	3,6	;RP1=0, select bank0
  4753  0900  00BB               	movwf	frexp@value+1
  4754  0901  1683               	bsf	3,5	;RP0=1, select bank1
  4755  0902  1303               	bcf	3,6	;RP1=0, select bank1
  4756  0903  0830               	movf	log@x^(0+128),w
  4757  0904  1283               	bcf	3,5	;RP0=0, select bank0
  4758  0905  1303               	bcf	3,6	;RP1=0, select bank0
  4759  0906  00BA               	movwf	frexp@value
  4760  0907  160A  158A  24A1  120A  158A  	fcall	_frexp
  4761  090C  1283               	bcf	3,5	;RP0=0, select bank0
  4762  090D  1303               	bcf	3,6	;RP1=0, select bank0
  4763  090E  083D               	movf	?_frexp+3,w
  4764  090F  00C6               	movwf	___flmul@a+3
  4765  0910  083C               	movf	?_frexp+2,w
  4766  0911  00C5               	movwf	___flmul@a+2
  4767  0912  083B               	movf	?_frexp+1,w
  4768  0913  00C4               	movwf	___flmul@a+1
  4769  0914  083A               	movf	?_frexp,w
  4770  0915  00C3               	movwf	___flmul@a
  4771  0916  120A  118A  248A  120A  158A  	fcall	___flmul
  4772  091B  1283               	bcf	3,5	;RP0=0, select bank0
  4773  091C  1303               	bcf	3,6	;RP1=0, select bank0
  4774  091D  0842               	movf	?___flmul+3,w
  4775  091E  00E0               	movwf	___fladd@a+3
  4776  091F  0841               	movf	?___flmul+2,w
  4777  0920  00DF               	movwf	___fladd@a+2
  4778  0921  0840               	movf	?___flmul+1,w
  4779  0922  00DE               	movwf	___fladd@a+1
  4780  0923  083F               	movf	?___flmul,w
  4781  0924  00DD               	movwf	___fladd@a
  4782  0925  120A  158A  2578  120A  158A  	fcall	___fladd
  4783  092A  1283               	bcf	3,5	;RP0=0, select bank0
  4784  092B  1303               	bcf	3,6	;RP1=0, select bank0
  4785  092C  085C               	movf	?___fladd+3,w
  4786  092D  1683               	bsf	3,5	;RP0=1, select bank1
  4787  092E  1303               	bcf	3,6	;RP1=0, select bank1
  4788  092F  00B3               	movwf	(log@x+3)^(0+128)
  4789  0930  1283               	bcf	3,5	;RP0=0, select bank0
  4790  0931  1303               	bcf	3,6	;RP1=0, select bank0
  4791  0932  085B               	movf	?___fladd+2,w
  4792  0933  1683               	bsf	3,5	;RP0=1, select bank1
  4793  0934  1303               	bcf	3,6	;RP1=0, select bank1
  4794  0935  00B2               	movwf	(log@x+2)^(0+128)
  4795  0936  1283               	bcf	3,5	;RP0=0, select bank0
  4796  0937  1303               	bcf	3,6	;RP1=0, select bank0
  4797  0938  085A               	movf	?___fladd+1,w
  4798  0939  1683               	bsf	3,5	;RP0=1, select bank1
  4799  093A  1303               	bcf	3,6	;RP1=0, select bank1
  4800  093B  00B1               	movwf	(log@x+1)^(0+128)
  4801  093C  1283               	bcf	3,5	;RP0=0, select bank0
  4802  093D  1303               	bcf	3,6	;RP1=0, select bank0
  4803  093E  0859               	movf	?___fladd,w
  4804  093F  1683               	bsf	3,5	;RP0=1, select bank1
  4805  0940  1303               	bcf	3,6	;RP1=0, select bank1
  4806  0941  00B0               	movwf	log@x^(0+128)
  4807  0942                     l4438:	
  4808  0942  30FF               	movlw	255
  4809  0943  1283               	bcf	3,5	;RP0=0, select bank0
  4810  0944  1303               	bcf	3,6	;RP1=0, select bank0
  4811  0945  07ED               	addwf	log@exponent,f
  4812  0946  1803               	skipnc
  4813  0947  0AEE               	incf	log@exponent+1,f
  4814  0948  30FF               	movlw	255
  4815  0949  07EE               	addwf	log@exponent+1,f
  4816  094A                     l4440:	
  4817  094A  1683               	bsf	3,5	;RP0=1, select bank1
  4818  094B  1303               	bcf	3,6	;RP1=0, select bank1
  4819  094C  0833               	movf	(log@x+3)^(0+128),w
  4820  094D  00A3               	movwf	(eval_poly@x+3)^(0+128)
  4821  094E  0832               	movf	(log@x+2)^(0+128),w
  4822  094F  00A2               	movwf	(eval_poly@x+2)^(0+128)
  4823  0950  0831               	movf	(log@x+1)^(0+128),w
  4824  0951  00A1               	movwf	(eval_poly@x+1)^(0+128)
  4825  0952  0830               	movf	log@x^(0+128),w
  4826  0953  00A0               	movwf	eval_poly@x^(0+128)
  4827  0954  3029               	movlw	(low ((log@coeff-__stringbase)| (0+32768)))& (0+255)
  4828  0955  00FD               	movwf	??_log
  4829  0956  087D               	movf	??_log,w
  4830  0957  00A4               	movwf	eval_poly@d^(0+128)
  4831  0958  3008               	movlw	8
  4832  0959  00A5               	movwf	eval_poly@n^(0+128)
  4833  095A  3000               	movlw	0
  4834  095B  00A6               	movwf	(eval_poly@n^(0+128)+1)
  4835  095C  160A  118A  241A  120A  158A  	fcall	_eval_poly
  4836  0961  1683               	bsf	3,5	;RP0=1, select bank1
  4837  0962  1303               	bcf	3,6	;RP1=0, select bank1
  4838  0963  0823               	movf	(?_eval_poly+3)^(0+128),w
  4839  0964  00B3               	movwf	(log@x+3)^(0+128)
  4840  0965  0822               	movf	(?_eval_poly+2)^(0+128),w
  4841  0966  00B2               	movwf	(log@x+2)^(0+128)
  4842  0967  0821               	movf	(?_eval_poly+1)^(0+128),w
  4843  0968  00B1               	movwf	(log@x+1)^(0+128)
  4844  0969  0820               	movf	?_eval_poly^(0+128),w
  4845  096A  00B0               	movwf	log@x^(0+128)
  4846  096B                     l4442:	
  4847  096B  0833               	movf	(log@x+3)^(0+128),w
  4848  096C  1283               	bcf	3,5	;RP0=0, select bank0
  4849  096D  1303               	bcf	3,6	;RP1=0, select bank0
  4850  096E  00DC               	movwf	___fladd@b+3
  4851  096F  1683               	bsf	3,5	;RP0=1, select bank1
  4852  0970  1303               	bcf	3,6	;RP1=0, select bank1
  4853  0971  0832               	movf	(log@x+2)^(0+128),w
  4854  0972  1283               	bcf	3,5	;RP0=0, select bank0
  4855  0973  1303               	bcf	3,6	;RP1=0, select bank0
  4856  0974  00DB               	movwf	___fladd@b+2
  4857  0975  1683               	bsf	3,5	;RP0=1, select bank1
  4858  0976  1303               	bcf	3,6	;RP1=0, select bank1
  4859  0977  0831               	movf	(log@x+1)^(0+128),w
  4860  0978  1283               	bcf	3,5	;RP0=0, select bank0
  4861  0979  1303               	bcf	3,6	;RP1=0, select bank0
  4862  097A  00DA               	movwf	___fladd@b+1
  4863  097B  1683               	bsf	3,5	;RP0=1, select bank1
  4864  097C  1303               	bcf	3,6	;RP1=0, select bank1
  4865  097D  0830               	movf	log@x^(0+128),w
  4866  097E  1283               	bcf	3,5	;RP0=0, select bank0
  4867  097F  1303               	bcf	3,6	;RP1=0, select bank0
  4868  0980  00D9               	movwf	___fladd@b
  4869  0981  303F               	movlw	63
  4870  0982  00C2               	movwf	___flmul@b+3
  4871  0983  3031               	movlw	49
  4872  0984  00C1               	movwf	___flmul@b+2
  4873  0985  3072               	movlw	114
  4874  0986  00C0               	movwf	___flmul@b+1
  4875  0987  3018               	movlw	24
  4876  0988  00BF               	movwf	___flmul@b
  4877  0989  086D               	movf	log@exponent,w
  4878  098A  00A0               	movwf	___xxtofl@val
  4879  098B  086E               	movf	log@exponent+1,w
  4880  098C  00A1               	movwf	___xxtofl@val+1
  4881  098D  3000               	movlw	0
  4882  098E  1BA1               	btfsc	___xxtofl@val+1,7
  4883  098F  30FF               	movlw	255
  4884  0990  00A2               	movwf	___xxtofl@val+2
  4885  0991  00A3               	movwf	___xxtofl@val+3
  4886  0992  3001               	movlw	1
  4887  0993  160A  118A  235E  120A  158A  	fcall	___xxtofl
  4888  0998  1283               	bcf	3,5	;RP0=0, select bank0
  4889  0999  1303               	bcf	3,6	;RP1=0, select bank0
  4890  099A  0823               	movf	?___xxtofl+3,w
  4891  099B  00C6               	movwf	___flmul@a+3
  4892  099C  0822               	movf	?___xxtofl+2,w
  4893  099D  00C5               	movwf	___flmul@a+2
  4894  099E  0821               	movf	?___xxtofl+1,w
  4895  099F  00C4               	movwf	___flmul@a+1
  4896  09A0  0820               	movf	?___xxtofl,w
  4897  09A1  00C3               	movwf	___flmul@a
  4898  09A2  120A  118A  248A  120A  158A  	fcall	___flmul
  4899  09A7  1283               	bcf	3,5	;RP0=0, select bank0
  4900  09A8  1303               	bcf	3,6	;RP1=0, select bank0
  4901  09A9  0842               	movf	?___flmul+3,w
  4902  09AA  00E0               	movwf	___fladd@a+3
  4903  09AB  0841               	movf	?___flmul+2,w
  4904  09AC  00DF               	movwf	___fladd@a+2
  4905  09AD  0840               	movf	?___flmul+1,w
  4906  09AE  00DE               	movwf	___fladd@a+1
  4907  09AF  083F               	movf	?___flmul,w
  4908  09B0  00DD               	movwf	___fladd@a
  4909  09B1  120A  158A  2578  120A  158A  	fcall	___fladd
  4910  09B6  1283               	bcf	3,5	;RP0=0, select bank0
  4911  09B7  1303               	bcf	3,6	;RP1=0, select bank0
  4912  09B8  085C               	movf	?___fladd+3,w
  4913  09B9  1683               	bsf	3,5	;RP0=1, select bank1
  4914  09BA  1303               	bcf	3,6	;RP1=0, select bank1
  4915  09BB  00B3               	movwf	(?_log+3)^(0+128)
  4916  09BC  1283               	bcf	3,5	;RP0=0, select bank0
  4917  09BD  1303               	bcf	3,6	;RP1=0, select bank0
  4918  09BE  085B               	movf	?___fladd+2,w
  4919  09BF  1683               	bsf	3,5	;RP0=1, select bank1
  4920  09C0  1303               	bcf	3,6	;RP1=0, select bank1
  4921  09C1  00B2               	movwf	(?_log+2)^(0+128)
  4922  09C2  1283               	bcf	3,5	;RP0=0, select bank0
  4923  09C3  1303               	bcf	3,6	;RP1=0, select bank0
  4924  09C4  085A               	movf	?___fladd+1,w
  4925  09C5  1683               	bsf	3,5	;RP0=1, select bank1
  4926  09C6  1303               	bcf	3,6	;RP1=0, select bank1
  4927  09C7  00B1               	movwf	(?_log+1)^(0+128)
  4928  09C8  1283               	bcf	3,5	;RP0=0, select bank0
  4929  09C9  1303               	bcf	3,6	;RP1=0, select bank0
  4930  09CA  0859               	movf	?___fladd,w
  4931  09CB  1683               	bsf	3,5	;RP0=1, select bank1
  4932  09CC  1303               	bcf	3,6	;RP1=0, select bank1
  4933  09CD  00B0               	movwf	?_log^(0+128)
  4934  09CE                     l830:	
  4935  09CE  0008               	return
  4936  09CF                     __end_of_log:	
  4937                           
  4938                           	psect	text19
  4939  0B53                     __ptext19:	
  4940 ;; *************** function _exp *****************
  4941 ;; Defined at:
  4942 ;;		line 12 in file "C:\Program Files (x86)\Microchip\xc8\v2.10\pic\sources\c90\common\exp.c"
  4943 ;; Parameters:    Size  Location     Type
  4944 ;;  x               4   22[BANK1 ] int 
  4945 ;; Auto vars:     Size  Location     Type
  4946 ;;  exponent        2   30[BANK1 ] int 
  4947 ;;  sign            1   32[BANK1 ] unsigned char 
  4948 ;; Return value:  Size  Location     Type
  4949 ;;                  4   22[BANK1 ] unsigned char 
  4950 ;; Registers used:
  4951 ;;		wreg, fsr0l, fsr0h, status,2, status,0, btemp+1, pclath, cstack
  4952 ;; Tracked objects:
  4953 ;;		On entry : 0/0
  4954 ;;		On exit  : 0/0
  4955 ;;		Unchanged: 0/0
  4956 ;; Data sizes:     COMMON   BANK0   BANK1   BANK3   BANK2
  4957 ;;      Params:         0       0       4       0       0
  4958 ;;      Locals:         0       0       7       0       0
  4959 ;;      Temps:          0       1       0       0       0
  4960 ;;      Totals:         0       1      11       0       0
  4961 ;;Total ram usage:       12 bytes
  4962 ;; Hardware stack levels used:    1
  4963 ;; Hardware stack levels required when called:    3
  4964 ;; This function calls:
  4965 ;;		___fldiv
  4966 ;;		___fleq
  4967 ;;		___flge
  4968 ;;		___flmul
  4969 ;;		___flneg
  4970 ;;		___flsub
  4971 ;;		___fltol
  4972 ;;		___xxtofl
  4973 ;;		_eval_poly
  4974 ;;		_floor
  4975 ;;		_ldexp
  4976 ;; This function is called by:
  4977 ;;		_pow
  4978 ;; This function uses a non-reentrant model
  4979 ;;
  4980                           
  4981                           
  4982                           ;psect for function _exp
  4983  0B53                     _exp:	
  4984  0B53                     l4446:	
  4985                           ;incstack = 0
  4986                           ; Regs used in _exp: [wreg-fsr0h+status,2+status,0+btemp+1+pclath+cstack]
  4987                           
  4988  0B53  1683               	bsf	3,5	;RP0=1, select bank1
  4989  0B54  1303               	bcf	3,6	;RP1=0, select bank1
  4990  0B55  0839               	movf	(exp@x+3)^(0+128),w
  4991  0B56  1283               	bcf	3,5	;RP0=0, select bank0
  4992  0B57  1303               	bcf	3,6	;RP1=0, select bank0
  4993  0B58  00B1               	movwf	___fleq@ff1+3
  4994  0B59  1683               	bsf	3,5	;RP0=1, select bank1
  4995  0B5A  1303               	bcf	3,6	;RP1=0, select bank1
  4996  0B5B  0838               	movf	(exp@x+2)^(0+128),w
  4997  0B5C  1283               	bcf	3,5	;RP0=0, select bank0
  4998  0B5D  1303               	bcf	3,6	;RP1=0, select bank0
  4999  0B5E  00B0               	movwf	___fleq@ff1+2
  5000  0B5F  1683               	bsf	3,5	;RP0=1, select bank1
  5001  0B60  1303               	bcf	3,6	;RP1=0, select bank1
  5002  0B61  0837               	movf	(exp@x+1)^(0+128),w
  5003  0B62  1283               	bcf	3,5	;RP0=0, select bank0
  5004  0B63  1303               	bcf	3,6	;RP1=0, select bank0
  5005  0B64  00AF               	movwf	___fleq@ff1+1
  5006  0B65  1683               	bsf	3,5	;RP0=1, select bank1
  5007  0B66  1303               	bcf	3,6	;RP1=0, select bank1
  5008  0B67  0836               	movf	exp@x^(0+128),w
  5009  0B68  1283               	bcf	3,5	;RP0=0, select bank0
  5010  0B69  1303               	bcf	3,6	;RP1=0, select bank0
  5011  0B6A  00AE               	movwf	___fleq@ff1
  5012  0B6B  3000               	movlw	0
  5013  0B6C  00B5               	movwf	___fleq@ff2+3
  5014  0B6D  3000               	movlw	0
  5015  0B6E  00B4               	movwf	___fleq@ff2+2
  5016  0B6F  3000               	movlw	0
  5017  0B70  00B3               	movwf	___fleq@ff2+1
  5018  0B71  3000               	movlw	0
  5019  0B72  00B2               	movwf	___fleq@ff2
  5020  0B73  160A  158A  23F8  120A  158A  	fcall	___fleq
  5021  0B78  1C03               	btfss	3,0
  5022  0B79  2B7B               	goto	u6491
  5023  0B7A  2B7C               	goto	u6490
  5024  0B7B                     u6491:	
  5025  0B7B  2B87               	goto	l4452
  5026  0B7C                     u6490:	
  5027  0B7C                     l4448:	
  5028  0B7C  303F               	movlw	63
  5029  0B7D  1683               	bsf	3,5	;RP0=1, select bank1
  5030  0B7E  1303               	bcf	3,6	;RP1=0, select bank1
  5031  0B7F  00B9               	movwf	(?_exp+3)^(0+128)
  5032  0B80  3080               	movlw	128
  5033  0B81  00B8               	movwf	(?_exp+2)^(0+128)
  5034  0B82  3000               	movlw	0
  5035  0B83  00B7               	movwf	(?_exp+1)^(0+128)
  5036  0B84  3000               	movlw	0
  5037  0B85  00B6               	movwf	?_exp^(0+128)
  5038  0B86  2D77               	goto	l788
  5039  0B87                     l4452:	
  5040  0B87  3044               	movlw	68
  5041  0B88  00F3               	movwf	___flge@ff1+3
  5042  0B89  3031               	movlw	49
  5043  0B8A  00F2               	movwf	___flge@ff1+2
  5044  0B8B  3072               	movlw	114
  5045  0B8C  00F1               	movwf	___flge@ff1+1
  5046  0B8D  3018               	movlw	24
  5047  0B8E  00F0               	movwf	___flge@ff1
  5048  0B8F  1683               	bsf	3,5	;RP0=1, select bank1
  5049  0B90  1303               	bcf	3,6	;RP1=0, select bank1
  5050  0B91  0839               	movf	(exp@x+3)^(0+128),w
  5051  0B92  00F7               	movwf	___flge@ff2+3
  5052  0B93  0838               	movf	(exp@x+2)^(0+128),w
  5053  0B94  00F6               	movwf	___flge@ff2+2
  5054  0B95  0837               	movf	(exp@x+1)^(0+128),w
  5055  0B96  00F5               	movwf	___flge@ff2+1
  5056  0B97  0836               	movf	exp@x^(0+128),w
  5057  0B98  00F4               	movwf	___flge@ff2
  5058  0B99  160A  118A  2008  120A  158A  	fcall	___flge
  5059  0B9E  1803               	btfsc	3,0
  5060  0B9F  2BA1               	goto	u6501
  5061  0BA0  2BA2               	goto	u6500
  5062  0BA1                     u6501:	
  5063  0BA1  2BB3               	goto	l4458
  5064  0BA2                     u6500:	
  5065  0BA2                     l4454:	
  5066  0BA2  3022               	movlw	34
  5067  0BA3  1683               	bsf	3,5	;RP0=1, select bank3
  5068  0BA4  1703               	bsf	3,6	;RP1=1, select bank3
  5069  0BA5  0098               	movwf	_errno^(0+384)
  5070  0BA6  3000               	movlw	0
  5071  0BA7  0099               	movwf	(_errno^(0+384)+1)
  5072  0BA8  307F               	movlw	127
  5073  0BA9  1683               	bsf	3,5	;RP0=1, select bank1
  5074  0BAA  1303               	bcf	3,6	;RP1=0, select bank1
  5075  0BAB  00B9               	movwf	(?_exp+3)^(0+128)
  5076  0BAC  307F               	movlw	127
  5077  0BAD  00B8               	movwf	(?_exp+2)^(0+128)
  5078  0BAE  30FF               	movlw	255
  5079  0BAF  00B7               	movwf	(?_exp+1)^(0+128)
  5080  0BB0  30FF               	movlw	255
  5081  0BB1  00B6               	movwf	?_exp^(0+128)
  5082  0BB2  2D77               	goto	l788
  5083  0BB3                     l4458:	
  5084  0BB3  1683               	bsf	3,5	;RP0=1, select bank1
  5085  0BB4  1303               	bcf	3,6	;RP1=0, select bank1
  5086  0BB5  0839               	movf	(exp@x+3)^(0+128),w
  5087  0BB6  00F3               	movwf	___flge@ff1+3
  5088  0BB7  0838               	movf	(exp@x+2)^(0+128),w
  5089  0BB8  00F2               	movwf	___flge@ff1+2
  5090  0BB9  0837               	movf	(exp@x+1)^(0+128),w
  5091  0BBA  00F1               	movwf	___flge@ff1+1
  5092  0BBB  0836               	movf	exp@x^(0+128),w
  5093  0BBC  00F0               	movwf	___flge@ff1
  5094  0BBD  30C4               	movlw	196
  5095  0BBE  00F7               	movwf	___flge@ff2+3
  5096  0BBF  303A               	movlw	58
  5097  0BC0  00F6               	movwf	___flge@ff2+2
  5098  0BC1  3048               	movlw	72
  5099  0BC2  00F5               	movwf	___flge@ff2+1
  5100  0BC3  3087               	movlw	135
  5101  0BC4  00F4               	movwf	___flge@ff2
  5102  0BC5  160A  118A  2008  120A  158A  	fcall	___flge
  5103  0BCA  1803               	btfsc	3,0
  5104  0BCB  2BCD               	goto	u6511
  5105  0BCC  2BCE               	goto	u6510
  5106  0BCD                     u6511:	
  5107  0BCD  2BDF               	goto	l4464
  5108  0BCE                     u6510:	
  5109  0BCE                     l4460:	
  5110  0BCE  3022               	movlw	34
  5111  0BCF  1683               	bsf	3,5	;RP0=1, select bank3
  5112  0BD0  1703               	bsf	3,6	;RP1=1, select bank3
  5113  0BD1  0098               	movwf	_errno^(0+384)
  5114  0BD2  3000               	movlw	0
  5115  0BD3  0099               	movwf	(_errno^(0+384)+1)
  5116  0BD4  3000               	movlw	0
  5117  0BD5  1683               	bsf	3,5	;RP0=1, select bank1
  5118  0BD6  1303               	bcf	3,6	;RP1=0, select bank1
  5119  0BD7  00B9               	movwf	(?_exp+3)^(0+128)
  5120  0BD8  3000               	movlw	0
  5121  0BD9  00B8               	movwf	(?_exp+2)^(0+128)
  5122  0BDA  3000               	movlw	0
  5123  0BDB  00B7               	movwf	(?_exp+1)^(0+128)
  5124  0BDC  3000               	movlw	0
  5125  0BDD  00B6               	movwf	?_exp^(0+128)
  5126  0BDE  2D77               	goto	l788
  5127  0BDF                     l4464:	
  5128  0BDF  1683               	bsf	3,5	;RP0=1, select bank1
  5129  0BE0  1303               	bcf	3,6	;RP1=0, select bank1
  5130  0BE1  0839               	movf	(exp@x+3)^(0+128),w
  5131  0BE2  00F3               	movwf	___flge@ff1+3
  5132  0BE3  0838               	movf	(exp@x+2)^(0+128),w
  5133  0BE4  00F2               	movwf	___flge@ff1+2
  5134  0BE5  0837               	movf	(exp@x+1)^(0+128),w
  5135  0BE6  00F1               	movwf	___flge@ff1+1
  5136  0BE7  0836               	movf	exp@x^(0+128),w
  5137  0BE8  00F0               	movwf	___flge@ff1
  5138  0BE9  3000               	movlw	0
  5139  0BEA  00F7               	movwf	___flge@ff2+3
  5140  0BEB  3000               	movlw	0
  5141  0BEC  00F6               	movwf	___flge@ff2+2
  5142  0BED  3000               	movlw	0
  5143  0BEE  00F5               	movwf	___flge@ff2+1
  5144  0BEF  3000               	movlw	0
  5145  0BF0  00F4               	movwf	___flge@ff2
  5146  0BF1  160A  118A  2008  120A  158A  	fcall	___flge
  5147  0BF6  1C03               	btfss	3,0
  5148  0BF7  2BF9               	goto	u6521
  5149  0BF8  2BFB               	goto	u6520
  5150  0BF9                     u6521:	
  5151  0BF9  3001               	movlw	1
  5152  0BFA  2BFC               	goto	u6530
  5153  0BFB                     u6520:	
  5154  0BFB  3000               	movlw	0
  5155  0BFC                     u6530:	
  5156  0BFC  1283               	bcf	3,5	;RP0=0, select bank0
  5157  0BFD  1303               	bcf	3,6	;RP1=0, select bank0
  5158  0BFE  00EF               	movwf	??_exp
  5159  0BFF  086F               	movf	??_exp,w
  5160  0C00  1683               	bsf	3,5	;RP0=1, select bank1
  5161  0C01  1303               	bcf	3,6	;RP1=0, select bank1
  5162  0C02  00C0               	movwf	exp@sign^(0+128)
  5163  0C03                     l4466:	
  5164  0C03  0840               	movf	exp@sign^(0+128),w
  5165  0C04  1903               	btfsc	3,2
  5166  0C05  2C07               	goto	u6541
  5167  0C06  2C08               	goto	u6540
  5168  0C07                     u6541:	
  5169  0C07  2C1F               	goto	l4470
  5170  0C08                     u6540:	
  5171  0C08                     l4468:	
  5172  0C08  0839               	movf	(exp@x+3)^(0+128),w
  5173  0C09  00F3               	movwf	___flneg@f1+3
  5174  0C0A  0838               	movf	(exp@x+2)^(0+128),w
  5175  0C0B  00F2               	movwf	___flneg@f1+2
  5176  0C0C  0837               	movf	(exp@x+1)^(0+128),w
  5177  0C0D  00F1               	movwf	___flneg@f1+1
  5178  0C0E  0836               	movf	exp@x^(0+128),w
  5179  0C0F  00F0               	movwf	___flneg@f1
  5180  0C10  160A  158A  217F  120A  158A  	fcall	___flneg
  5181  0C15  0873               	movf	?___flneg+3,w
  5182  0C16  1683               	bsf	3,5	;RP0=1, select bank1
  5183  0C17  1303               	bcf	3,6	;RP1=0, select bank1
  5184  0C18  00B9               	movwf	(exp@x+3)^(0+128)
  5185  0C19  0872               	movf	?___flneg+2,w
  5186  0C1A  00B8               	movwf	(exp@x+2)^(0+128)
  5187  0C1B  0871               	movf	?___flneg+1,w
  5188  0C1C  00B7               	movwf	(exp@x+1)^(0+128)
  5189  0C1D  0870               	movf	?___flneg,w
  5190  0C1E  00B6               	movwf	exp@x^(0+128)
  5191  0C1F                     l4470:	
  5192  0C1F  303F               	movlw	63
  5193  0C20  1283               	bcf	3,5	;RP0=0, select bank0
  5194  0C21  1303               	bcf	3,6	;RP1=0, select bank0
  5195  0C22  00C2               	movwf	___flmul@b+3
  5196  0C23  30B8               	movlw	184
  5197  0C24  00C1               	movwf	___flmul@b+2
  5198  0C25  30AA               	movlw	170
  5199  0C26  00C0               	movwf	___flmul@b+1
  5200  0C27  303B               	movlw	59
  5201  0C28  00BF               	movwf	___flmul@b
  5202  0C29  1683               	bsf	3,5	;RP0=1, select bank1
  5203  0C2A  1303               	bcf	3,6	;RP1=0, select bank1
  5204  0C2B  0839               	movf	(exp@x+3)^(0+128),w
  5205  0C2C  1283               	bcf	3,5	;RP0=0, select bank0
  5206  0C2D  1303               	bcf	3,6	;RP1=0, select bank0
  5207  0C2E  00C6               	movwf	___flmul@a+3
  5208  0C2F  1683               	bsf	3,5	;RP0=1, select bank1
  5209  0C30  1303               	bcf	3,6	;RP1=0, select bank1
  5210  0C31  0838               	movf	(exp@x+2)^(0+128),w
  5211  0C32  1283               	bcf	3,5	;RP0=0, select bank0
  5212  0C33  1303               	bcf	3,6	;RP1=0, select bank0
  5213  0C34  00C5               	movwf	___flmul@a+2
  5214  0C35  1683               	bsf	3,5	;RP0=1, select bank1
  5215  0C36  1303               	bcf	3,6	;RP1=0, select bank1
  5216  0C37  0837               	movf	(exp@x+1)^(0+128),w
  5217  0C38  1283               	bcf	3,5	;RP0=0, select bank0
  5218  0C39  1303               	bcf	3,6	;RP1=0, select bank0
  5219  0C3A  00C4               	movwf	___flmul@a+1
  5220  0C3B  1683               	bsf	3,5	;RP0=1, select bank1
  5221  0C3C  1303               	bcf	3,6	;RP1=0, select bank1
  5222  0C3D  0836               	movf	exp@x^(0+128),w
  5223  0C3E  1283               	bcf	3,5	;RP0=0, select bank0
  5224  0C3F  1303               	bcf	3,6	;RP1=0, select bank0
  5225  0C40  00C3               	movwf	___flmul@a
  5226  0C41  120A  118A  248A  120A  158A  	fcall	___flmul
  5227  0C46  1283               	bcf	3,5	;RP0=0, select bank0
  5228  0C47  1303               	bcf	3,6	;RP1=0, select bank0
  5229  0C48  0842               	movf	?___flmul+3,w
  5230  0C49  1683               	bsf	3,5	;RP0=1, select bank1
  5231  0C4A  1303               	bcf	3,6	;RP1=0, select bank1
  5232  0C4B  00B9               	movwf	(exp@x+3)^(0+128)
  5233  0C4C  1283               	bcf	3,5	;RP0=0, select bank0
  5234  0C4D  1303               	bcf	3,6	;RP1=0, select bank0
  5235  0C4E  0841               	movf	?___flmul+2,w
  5236  0C4F  1683               	bsf	3,5	;RP0=1, select bank1
  5237  0C50  1303               	bcf	3,6	;RP1=0, select bank1
  5238  0C51  00B8               	movwf	(exp@x+2)^(0+128)
  5239  0C52  1283               	bcf	3,5	;RP0=0, select bank0
  5240  0C53  1303               	bcf	3,6	;RP1=0, select bank0
  5241  0C54  0840               	movf	?___flmul+1,w
  5242  0C55  1683               	bsf	3,5	;RP0=1, select bank1
  5243  0C56  1303               	bcf	3,6	;RP1=0, select bank1
  5244  0C57  00B7               	movwf	(exp@x+1)^(0+128)
  5245  0C58  1283               	bcf	3,5	;RP0=0, select bank0
  5246  0C59  1303               	bcf	3,6	;RP1=0, select bank0
  5247  0C5A  083F               	movf	?___flmul,w
  5248  0C5B  1683               	bsf	3,5	;RP0=1, select bank1
  5249  0C5C  1303               	bcf	3,6	;RP1=0, select bank1
  5250  0C5D  00B6               	movwf	exp@x^(0+128)
  5251  0C5E                     l4472:	
  5252  0C5E  0839               	movf	(exp@x+3)^(0+128),w
  5253  0C5F  00A3               	movwf	(floor@x+3)^(0+128)
  5254  0C60  0838               	movf	(exp@x+2)^(0+128),w
  5255  0C61  00A2               	movwf	(floor@x+2)^(0+128)
  5256  0C62  0837               	movf	(exp@x+1)^(0+128),w
  5257  0C63  00A1               	movwf	(floor@x+1)^(0+128)
  5258  0C64  0836               	movf	exp@x^(0+128),w
  5259  0C65  00A0               	movwf	floor@x^(0+128)
  5260  0C66  160A  118A  25D8  120A  158A  	fcall	_floor
  5261  0C6B  1683               	bsf	3,5	;RP0=1, select bank1
  5262  0C6C  1303               	bcf	3,6	;RP1=0, select bank1
  5263  0C6D  0823               	movf	(?_floor+3)^(0+128),w
  5264  0C6E  00BD               	movwf	(_exp$1424+3)^(0+128)
  5265  0C6F  0822               	movf	(?_floor+2)^(0+128),w
  5266  0C70  00BC               	movwf	(_exp$1424+2)^(0+128)
  5267  0C71  0821               	movf	(?_floor+1)^(0+128),w
  5268  0C72  00BB               	movwf	(_exp$1424+1)^(0+128)
  5269  0C73  0820               	movf	?_floor^(0+128),w
  5270  0C74  00BA               	movwf	_exp$1424^(0+128)
  5271  0C75                     l4474:	
  5272  0C75  083D               	movf	(_exp$1424+3)^(0+128),w
  5273  0C76  00F3               	movwf	___fltol@f1+3
  5274  0C77  083C               	movf	(_exp$1424+2)^(0+128),w
  5275  0C78  00F2               	movwf	___fltol@f1+2
  5276  0C79  083B               	movf	(_exp$1424+1)^(0+128),w
  5277  0C7A  00F1               	movwf	___fltol@f1+1
  5278  0C7B  083A               	movf	_exp$1424^(0+128),w
  5279  0C7C  00F0               	movwf	___fltol@f1
  5280  0C7D  160A  158A  25DC  120A  158A  	fcall	___fltol
  5281  0C82  0871               	movf	?___fltol+1,w
  5282  0C83  1683               	bsf	3,5	;RP0=1, select bank1
  5283  0C84  1303               	bcf	3,6	;RP1=0, select bank1
  5284  0C85  00BF               	movwf	(exp@exponent+1)^(0+128)
  5285  0C86  0870               	movf	?___fltol,w
  5286  0C87  00BE               	movwf	exp@exponent^(0+128)
  5287  0C88                     l4476:	
  5288  0C88  083E               	movf	exp@exponent^(0+128),w
  5289  0C89  1283               	bcf	3,5	;RP0=0, select bank0
  5290  0C8A  1303               	bcf	3,6	;RP1=0, select bank0
  5291  0C8B  00A0               	movwf	___xxtofl@val
  5292  0C8C  1683               	bsf	3,5	;RP0=1, select bank1
  5293  0C8D  1303               	bcf	3,6	;RP1=0, select bank1
  5294  0C8E  083F               	movf	(exp@exponent+1)^(0+128),w
  5295  0C8F  1283               	bcf	3,5	;RP0=0, select bank0
  5296  0C90  1303               	bcf	3,6	;RP1=0, select bank0
  5297  0C91  00A1               	movwf	___xxtofl@val+1
  5298  0C92  3000               	movlw	0
  5299  0C93  1BA1               	btfsc	___xxtofl@val+1,7
  5300  0C94  30FF               	movlw	255
  5301  0C95  00A2               	movwf	___xxtofl@val+2
  5302  0C96  00A3               	movwf	___xxtofl@val+3
  5303  0C97  3001               	movlw	1
  5304  0C98  160A  118A  235E  120A  158A  	fcall	___xxtofl
  5305  0C9D  1283               	bcf	3,5	;RP0=0, select bank0
  5306  0C9E  1303               	bcf	3,6	;RP1=0, select bank0
  5307  0C9F  0823               	movf	?___xxtofl+3,w
  5308  0CA0  1683               	bsf	3,5	;RP0=1, select bank1
  5309  0CA1  1303               	bcf	3,6	;RP1=0, select bank1
  5310  0CA2  00A3               	movwf	(___flsub@a+3)^(0+128)
  5311  0CA3  1283               	bcf	3,5	;RP0=0, select bank0
  5312  0CA4  1303               	bcf	3,6	;RP1=0, select bank0
  5313  0CA5  0822               	movf	?___xxtofl+2,w
  5314  0CA6  1683               	bsf	3,5	;RP0=1, select bank1
  5315  0CA7  1303               	bcf	3,6	;RP1=0, select bank1
  5316  0CA8  00A2               	movwf	(___flsub@a+2)^(0+128)
  5317  0CA9  1283               	bcf	3,5	;RP0=0, select bank0
  5318  0CAA  1303               	bcf	3,6	;RP1=0, select bank0
  5319  0CAB  0821               	movf	?___xxtofl+1,w
  5320  0CAC  1683               	bsf	3,5	;RP0=1, select bank1
  5321  0CAD  1303               	bcf	3,6	;RP1=0, select bank1
  5322  0CAE  00A1               	movwf	(___flsub@a+1)^(0+128)
  5323  0CAF  1283               	bcf	3,5	;RP0=0, select bank0
  5324  0CB0  1303               	bcf	3,6	;RP1=0, select bank0
  5325  0CB1  0820               	movf	?___xxtofl,w
  5326  0CB2  1683               	bsf	3,5	;RP0=1, select bank1
  5327  0CB3  1303               	bcf	3,6	;RP1=0, select bank1
  5328  0CB4  00A0               	movwf	___flsub@a^(0+128)
  5329  0CB5  0839               	movf	(exp@x+3)^(0+128),w
  5330  0CB6  00A7               	movwf	(___flsub@b+3)^(0+128)
  5331  0CB7  0838               	movf	(exp@x+2)^(0+128),w
  5332  0CB8  00A6               	movwf	(___flsub@b+2)^(0+128)
  5333  0CB9  0837               	movf	(exp@x+1)^(0+128),w
  5334  0CBA  00A5               	movwf	(___flsub@b+1)^(0+128)
  5335  0CBB  0836               	movf	exp@x^(0+128),w
  5336  0CBC  00A4               	movwf	___flsub@b^(0+128)
  5337  0CBD  160A  158A  23A8  120A  158A  	fcall	___flsub
  5338  0CC2  1683               	bsf	3,5	;RP0=1, select bank1
  5339  0CC3  1303               	bcf	3,6	;RP1=0, select bank1
  5340  0CC4  0823               	movf	(?___flsub+3)^(0+128),w
  5341  0CC5  00B9               	movwf	(exp@x+3)^(0+128)
  5342  0CC6  0822               	movf	(?___flsub+2)^(0+128),w
  5343  0CC7  00B8               	movwf	(exp@x+2)^(0+128)
  5344  0CC8  0821               	movf	(?___flsub+1)^(0+128),w
  5345  0CC9  00B7               	movwf	(exp@x+1)^(0+128)
  5346  0CCA  0820               	movf	?___flsub^(0+128),w
  5347  0CCB  00B6               	movwf	exp@x^(0+128)
  5348  0CCC                     l4478:	
  5349  0CCC  0839               	movf	(exp@x+3)^(0+128),w
  5350  0CCD  00A3               	movwf	(eval_poly@x+3)^(0+128)
  5351  0CCE  0838               	movf	(exp@x+2)^(0+128),w
  5352  0CCF  00A2               	movwf	(eval_poly@x+2)^(0+128)
  5353  0CD0  0837               	movf	(exp@x+1)^(0+128),w
  5354  0CD1  00A1               	movwf	(eval_poly@x+1)^(0+128)
  5355  0CD2  0836               	movf	exp@x^(0+128),w
  5356  0CD3  00A0               	movwf	eval_poly@x^(0+128)
  5357  0CD4  3001               	movlw	(low ((exp@coeff-__stringbase)| (0+32768)))& (0+255)
  5358  0CD5  1283               	bcf	3,5	;RP0=0, select bank0
  5359  0CD6  1303               	bcf	3,6	;RP1=0, select bank0
  5360  0CD7  00EF               	movwf	??_exp
  5361  0CD8  086F               	movf	??_exp,w
  5362  0CD9  1683               	bsf	3,5	;RP0=1, select bank1
  5363  0CDA  1303               	bcf	3,6	;RP1=0, select bank1
  5364  0CDB  00A4               	movwf	eval_poly@d^(0+128)
  5365  0CDC  3009               	movlw	9
  5366  0CDD  00A5               	movwf	eval_poly@n^(0+128)
  5367  0CDE  3000               	movlw	0
  5368  0CDF  00A6               	movwf	(eval_poly@n^(0+128)+1)
  5369  0CE0  160A  118A  241A  120A  158A  	fcall	_eval_poly
  5370  0CE5  1683               	bsf	3,5	;RP0=1, select bank1
  5371  0CE6  1303               	bcf	3,6	;RP1=0, select bank1
  5372  0CE7  0823               	movf	(?_eval_poly+3)^(0+128),w
  5373  0CE8  00B3               	movwf	(ldexp@value+3)^(0+128)
  5374  0CE9  0822               	movf	(?_eval_poly+2)^(0+128),w
  5375  0CEA  00B2               	movwf	(ldexp@value+2)^(0+128)
  5376  0CEB  0821               	movf	(?_eval_poly+1)^(0+128),w
  5377  0CEC  00B1               	movwf	(ldexp@value+1)^(0+128)
  5378  0CED  0820               	movf	?_eval_poly^(0+128),w
  5379  0CEE  00B0               	movwf	ldexp@value^(0+128)
  5380  0CEF  083F               	movf	(exp@exponent+1)^(0+128),w
  5381  0CF0  00B5               	movwf	(ldexp@newexp+1)^(0+128)
  5382  0CF1  083E               	movf	exp@exponent^(0+128),w
  5383  0CF2  00B4               	movwf	ldexp@newexp^(0+128)
  5384  0CF3  160A  118A  24F4  120A  158A  	fcall	_ldexp
  5385  0CF8  1683               	bsf	3,5	;RP0=1, select bank1
  5386  0CF9  1303               	bcf	3,6	;RP1=0, select bank1
  5387  0CFA  0833               	movf	(?_ldexp+3)^(0+128),w
  5388  0CFB  00B9               	movwf	(exp@x+3)^(0+128)
  5389  0CFC  0832               	movf	(?_ldexp+2)^(0+128),w
  5390  0CFD  00B8               	movwf	(exp@x+2)^(0+128)
  5391  0CFE  0831               	movf	(?_ldexp+1)^(0+128),w
  5392  0CFF  00B7               	movwf	(exp@x+1)^(0+128)
  5393  0D00  0830               	movf	?_ldexp^(0+128),w
  5394  0D01  00B6               	movwf	exp@x^(0+128)
  5395  0D02                     l4480:	
  5396  0D02  0840               	movf	exp@sign^(0+128),w
  5397  0D03  1903               	btfsc	3,2
  5398  0D04  2D06               	goto	u6551
  5399  0D05  2D07               	goto	u6550
  5400  0D06                     u6551:	
  5401  0D06  2D77               	goto	l792
  5402  0D07                     u6550:	
  5403  0D07                     l4482:	
  5404  0D07  0839               	movf	(exp@x+3)^(0+128),w
  5405  0D08  1283               	bcf	3,5	;RP0=0, select bank0
  5406  0D09  1303               	bcf	3,6	;RP1=0, select bank0
  5407  0D0A  00B1               	movwf	___fleq@ff1+3
  5408  0D0B  1683               	bsf	3,5	;RP0=1, select bank1
  5409  0D0C  1303               	bcf	3,6	;RP1=0, select bank1
  5410  0D0D  0838               	movf	(exp@x+2)^(0+128),w
  5411  0D0E  1283               	bcf	3,5	;RP0=0, select bank0
  5412  0D0F  1303               	bcf	3,6	;RP1=0, select bank0
  5413  0D10  00B0               	movwf	___fleq@ff1+2
  5414  0D11  1683               	bsf	3,5	;RP0=1, select bank1
  5415  0D12  1303               	bcf	3,6	;RP1=0, select bank1
  5416  0D13  0837               	movf	(exp@x+1)^(0+128),w
  5417  0D14  1283               	bcf	3,5	;RP0=0, select bank0
  5418  0D15  1303               	bcf	3,6	;RP1=0, select bank0
  5419  0D16  00AF               	movwf	___fleq@ff1+1
  5420  0D17  1683               	bsf	3,5	;RP0=1, select bank1
  5421  0D18  1303               	bcf	3,6	;RP1=0, select bank1
  5422  0D19  0836               	movf	exp@x^(0+128),w
  5423  0D1A  1283               	bcf	3,5	;RP0=0, select bank0
  5424  0D1B  1303               	bcf	3,6	;RP1=0, select bank0
  5425  0D1C  00AE               	movwf	___fleq@ff1
  5426  0D1D  307F               	movlw	127
  5427  0D1E  00B5               	movwf	___fleq@ff2+3
  5428  0D1F  307F               	movlw	127
  5429  0D20  00B4               	movwf	___fleq@ff2+2
  5430  0D21  30FF               	movlw	255
  5431  0D22  00B3               	movwf	___fleq@ff2+1
  5432  0D23  30FF               	movlw	255
  5433  0D24  00B2               	movwf	___fleq@ff2
  5434  0D25  160A  158A  23F8  120A  158A  	fcall	___fleq
  5435  0D2A  1C03               	btfss	3,0
  5436  0D2B  2D2D               	goto	u6561
  5437  0D2C  2D2E               	goto	u6560
  5438  0D2D                     u6561:	
  5439  0D2D  2D39               	goto	l4488
  5440  0D2E                     u6560:	
  5441  0D2E                     l4484:	
  5442  0D2E  3000               	movlw	0
  5443  0D2F  1683               	bsf	3,5	;RP0=1, select bank1
  5444  0D30  1303               	bcf	3,6	;RP1=0, select bank1
  5445  0D31  00B9               	movwf	(?_exp+3)^(0+128)
  5446  0D32  3000               	movlw	0
  5447  0D33  00B8               	movwf	(?_exp+2)^(0+128)
  5448  0D34  3000               	movlw	0
  5449  0D35  00B7               	movwf	(?_exp+1)^(0+128)
  5450  0D36  3000               	movlw	0
  5451  0D37  00B6               	movwf	?_exp^(0+128)
  5452  0D38  2D77               	goto	l788
  5453  0D39                     l4488:	
  5454  0D39  1683               	bsf	3,5	;RP0=1, select bank1
  5455  0D3A  1303               	bcf	3,6	;RP1=0, select bank1
  5456  0D3B  0839               	movf	(exp@x+3)^(0+128),w
  5457  0D3C  1283               	bcf	3,5	;RP0=0, select bank0
  5458  0D3D  1303               	bcf	3,6	;RP1=0, select bank0
  5459  0D3E  00DC               	movwf	___fldiv@a+3
  5460  0D3F  1683               	bsf	3,5	;RP0=1, select bank1
  5461  0D40  1303               	bcf	3,6	;RP1=0, select bank1
  5462  0D41  0838               	movf	(exp@x+2)^(0+128),w
  5463  0D42  1283               	bcf	3,5	;RP0=0, select bank0
  5464  0D43  1303               	bcf	3,6	;RP1=0, select bank0
  5465  0D44  00DB               	movwf	___fldiv@a+2
  5466  0D45  1683               	bsf	3,5	;RP0=1, select bank1
  5467  0D46  1303               	bcf	3,6	;RP1=0, select bank1
  5468  0D47  0837               	movf	(exp@x+1)^(0+128),w
  5469  0D48  1283               	bcf	3,5	;RP0=0, select bank0
  5470  0D49  1303               	bcf	3,6	;RP1=0, select bank0
  5471  0D4A  00DA               	movwf	___fldiv@a+1
  5472  0D4B  1683               	bsf	3,5	;RP0=1, select bank1
  5473  0D4C  1303               	bcf	3,6	;RP1=0, select bank1
  5474  0D4D  0836               	movf	exp@x^(0+128),w
  5475  0D4E  1283               	bcf	3,5	;RP0=0, select bank0
  5476  0D4F  1303               	bcf	3,6	;RP1=0, select bank0
  5477  0D50  00D9               	movwf	___fldiv@a
  5478  0D51  303F               	movlw	63
  5479  0D52  00E0               	movwf	___fldiv@b+3
  5480  0D53  3080               	movlw	128
  5481  0D54  00DF               	movwf	___fldiv@b+2
  5482  0D55  3000               	movlw	0
  5483  0D56  00DE               	movwf	___fldiv@b+1
  5484  0D57  3000               	movlw	0
  5485  0D58  00DD               	movwf	___fldiv@b
  5486  0D59  120A  118A  21EA  120A  158A  	fcall	___fldiv
  5487  0D5E  1283               	bcf	3,5	;RP0=0, select bank0
  5488  0D5F  1303               	bcf	3,6	;RP1=0, select bank0
  5489  0D60  085C               	movf	?___fldiv+3,w
  5490  0D61  1683               	bsf	3,5	;RP0=1, select bank1
  5491  0D62  1303               	bcf	3,6	;RP1=0, select bank1
  5492  0D63  00B9               	movwf	(?_exp+3)^(0+128)
  5493  0D64  1283               	bcf	3,5	;RP0=0, select bank0
  5494  0D65  1303               	bcf	3,6	;RP1=0, select bank0
  5495  0D66  085B               	movf	?___fldiv+2,w
  5496  0D67  1683               	bsf	3,5	;RP0=1, select bank1
  5497  0D68  1303               	bcf	3,6	;RP1=0, select bank1
  5498  0D69  00B8               	movwf	(?_exp+2)^(0+128)
  5499  0D6A  1283               	bcf	3,5	;RP0=0, select bank0
  5500  0D6B  1303               	bcf	3,6	;RP1=0, select bank0
  5501  0D6C  085A               	movf	?___fldiv+1,w
  5502  0D6D  1683               	bsf	3,5	;RP0=1, select bank1
  5503  0D6E  1303               	bcf	3,6	;RP1=0, select bank1
  5504  0D6F  00B7               	movwf	(?_exp+1)^(0+128)
  5505  0D70  1283               	bcf	3,5	;RP0=0, select bank0
  5506  0D71  1303               	bcf	3,6	;RP1=0, select bank0
  5507  0D72  0859               	movf	?___fldiv,w
  5508  0D73  1683               	bsf	3,5	;RP0=1, select bank1
  5509  0D74  1303               	bcf	3,6	;RP1=0, select bank1
  5510  0D75  00B6               	movwf	?_exp^(0+128)
  5511  0D76  2D77               	goto	l788
  5512  0D77                     l792:	
  5513  0D77                     l788:	
  5514  0D77  0008               	return
  5515  0D78                     __end_of_exp:	
  5516                           
  5517                           	psect	text20
  5518  14F4                     __ptext20:	
  5519 ;; *************** function _ldexp *****************
  5520 ;; Defined at:
  5521 ;;		line 277 in file "C:\Program Files (x86)\Microchip\xc8\v2.10\pic\sources\c90\common\frexp.c"
  5522 ;; Parameters:    Size  Location     Type
  5523 ;;  value           4   16[BANK1 ] unsigned char 
  5524 ;;  newexp          2   20[BANK1 ] int 
  5525 ;; Auto vars:     Size  Location     Type
  5526 ;;		None
  5527 ;; Return value:  Size  Location     Type
  5528 ;;                  4   16[BANK1 ] int 
  5529 ;; Registers used:
  5530 ;;		wreg, status,2, status,0, btemp+1, pclath, cstack
  5531 ;; Tracked objects:
  5532 ;;		On entry : 0/0
  5533 ;;		On exit  : 0/0
  5534 ;;		Unchanged: 0/0
  5535 ;; Data sizes:     COMMON   BANK0   BANK1   BANK3   BANK2
  5536 ;;      Params:         0       0       6       0       0
  5537 ;;      Locals:         0       0       0       0       0
  5538 ;;      Temps:          0       2       0       0       0
  5539 ;;      Totals:         0       2       6       0       0
  5540 ;;Total ram usage:        8 bytes
  5541 ;; Hardware stack levels used:    1
  5542 ;; Hardware stack levels required when called:    1
  5543 ;; This function calls:
  5544 ;;		___fleq
  5545 ;;		___flge
  5546 ;; This function is called by:
  5547 ;;		_exp
  5548 ;; This function uses a non-reentrant model
  5549 ;;
  5550                           
  5551                           
  5552                           ;psect for function _ldexp
  5553  14F4                     _ldexp:	
  5554  14F4                     l4290:	
  5555                           ;incstack = 0
  5556                           ; Regs used in _ldexp: [wreg+status,2+status,0+btemp+1+pclath+cstack]
  5557                           
  5558  14F4  1683               	bsf	3,5	;RP0=1, select bank1
  5559  14F5  1303               	bcf	3,6	;RP1=0, select bank1
  5560  14F6  0833               	movf	(ldexp@value+3)^(0+128),w
  5561  14F7  1283               	bcf	3,5	;RP0=0, select bank0
  5562  14F8  1303               	bcf	3,6	;RP1=0, select bank0
  5563  14F9  00B1               	movwf	___fleq@ff1+3
  5564  14FA  1683               	bsf	3,5	;RP0=1, select bank1
  5565  14FB  1303               	bcf	3,6	;RP1=0, select bank1
  5566  14FC  0832               	movf	(ldexp@value+2)^(0+128),w
  5567  14FD  1283               	bcf	3,5	;RP0=0, select bank0
  5568  14FE  1303               	bcf	3,6	;RP1=0, select bank0
  5569  14FF  00B0               	movwf	___fleq@ff1+2
  5570  1500  1683               	bsf	3,5	;RP0=1, select bank1
  5571  1501  1303               	bcf	3,6	;RP1=0, select bank1
  5572  1502  0831               	movf	(ldexp@value+1)^(0+128),w
  5573  1503  1283               	bcf	3,5	;RP0=0, select bank0
  5574  1504  1303               	bcf	3,6	;RP1=0, select bank0
  5575  1505  00AF               	movwf	___fleq@ff1+1
  5576  1506  1683               	bsf	3,5	;RP0=1, select bank1
  5577  1507  1303               	bcf	3,6	;RP1=0, select bank1
  5578  1508  0830               	movf	ldexp@value^(0+128),w
  5579  1509  1283               	bcf	3,5	;RP0=0, select bank0
  5580  150A  1303               	bcf	3,6	;RP1=0, select bank0
  5581  150B  00AE               	movwf	___fleq@ff1
  5582  150C  3000               	movlw	0
  5583  150D  00B5               	movwf	___fleq@ff2+3
  5584  150E  3000               	movlw	0
  5585  150F  00B4               	movwf	___fleq@ff2+2
  5586  1510  3000               	movlw	0
  5587  1511  00B3               	movwf	___fleq@ff2+1
  5588  1512  3000               	movlw	0
  5589  1513  00B2               	movwf	___fleq@ff2
  5590  1514  160A  158A  23F8  160A  118A  	fcall	___fleq
  5591  1519  1C03               	btfss	3,0
  5592  151A  2D1C               	goto	u6231
  5593  151B  2D1D               	goto	u6230
  5594  151C                     u6231:	
  5595  151C  2D28               	goto	l4296
  5596  151D                     u6230:	
  5597  151D                     l4292:	
  5598  151D  3000               	movlw	0
  5599  151E  1683               	bsf	3,5	;RP0=1, select bank1
  5600  151F  1303               	bcf	3,6	;RP1=0, select bank1
  5601  1520  00B3               	movwf	(?_ldexp+3)^(0+128)
  5602  1521  3000               	movlw	0
  5603  1522  00B2               	movwf	(?_ldexp+2)^(0+128)
  5604  1523  3000               	movlw	0
  5605  1524  00B1               	movwf	(?_ldexp+1)^(0+128)
  5606  1525  3000               	movlw	0
  5607  1526  00B0               	movwf	?_ldexp^(0+128)
  5608  1527  2DD7               	goto	l812
  5609  1528                     l4296:	
  5610  1528  1683               	bsf	3,5	;RP0=1, select bank1
  5611  1529  1303               	bcf	3,6	;RP1=0, select bank1
  5612  152A  0833               	movf	(ldexp@value^(0+128)+3),w
  5613  152B  397F               	andlw	127
  5614  152C  1283               	bcf	3,5	;RP0=0, select bank0
  5615  152D  1303               	bcf	3,6	;RP1=0, select bank0
  5616  152E  00ED               	movwf	??_ldexp
  5617  152F  01EE               	clrf	??_ldexp+1
  5618  1530  1003               	clrc
  5619  1531  0DED               	rlf	??_ldexp,f
  5620  1532  0DEE               	rlf	??_ldexp+1,f
  5621  1533  086D               	movf	??_ldexp,w
  5622  1534  1683               	bsf	3,5	;RP0=1, select bank1
  5623  1535  1303               	bcf	3,6	;RP1=0, select bank1
  5624  1536  07B4               	addwf	ldexp@newexp^(0+128),f
  5625  1537  1803               	skipnc
  5626  1538  0AB5               	incf	(ldexp@newexp+1)^(0+128),f
  5627  1539  1283               	bcf	3,5	;RP0=0, select bank0
  5628  153A  1303               	bcf	3,6	;RP1=0, select bank0
  5629  153B  086E               	movf	??_ldexp+1,w
  5630  153C  1683               	bsf	3,5	;RP0=1, select bank1
  5631  153D  1303               	bcf	3,6	;RP1=0, select bank1
  5632  153E  07B5               	addwf	(ldexp@newexp+1)^(0+128),f
  5633  153F  0D32               	rlf	(ldexp@value^(0+128)+2),w
  5634  1540  0D32               	rlf	(ldexp@value^(0+128)+2),w
  5635  1541  3901               	andlw	1
  5636  1542  1283               	bcf	3,5	;RP0=0, select bank0
  5637  1543  1303               	bcf	3,6	;RP1=0, select bank0
  5638  1544  00ED               	movwf	??_ldexp
  5639  1545  01EE               	clrf	??_ldexp+1
  5640  1546  086D               	movf	??_ldexp,w
  5641  1547  1683               	bsf	3,5	;RP0=1, select bank1
  5642  1548  1303               	bcf	3,6	;RP1=0, select bank1
  5643  1549  07B4               	addwf	ldexp@newexp^(0+128),f
  5644  154A  1803               	skipnc
  5645  154B  0AB5               	incf	(ldexp@newexp+1)^(0+128),f
  5646  154C  1283               	bcf	3,5	;RP0=0, select bank0
  5647  154D  1303               	bcf	3,6	;RP1=0, select bank0
  5648  154E  086E               	movf	??_ldexp+1,w
  5649  154F  1683               	bsf	3,5	;RP0=1, select bank1
  5650  1550  1303               	bcf	3,6	;RP1=0, select bank1
  5651  1551  07B5               	addwf	(ldexp@newexp+1)^(0+128),f
  5652  1552                     l4298:	
  5653  1552  1FB5               	btfss	(ldexp@newexp+1)^(0+128),7
  5654  1553  2D55               	goto	u6241
  5655  1554  2D56               	goto	u6240
  5656  1555                     u6241:	
  5657  1555  2D67               	goto	l4306
  5658  1556                     u6240:	
  5659  1556                     l4300:	
  5660  1556  3022               	movlw	34
  5661  1557  1683               	bsf	3,5	;RP0=1, select bank3
  5662  1558  1703               	bsf	3,6	;RP1=1, select bank3
  5663  1559  0098               	movwf	_errno^(0+384)
  5664  155A  3000               	movlw	0
  5665  155B  0099               	movwf	(_errno^(0+384)+1)
  5666  155C  3000               	movlw	0
  5667  155D  1683               	bsf	3,5	;RP0=1, select bank1
  5668  155E  1303               	bcf	3,6	;RP1=0, select bank1
  5669  155F  00B3               	movwf	(?_ldexp+3)^(0+128)
  5670  1560  3000               	movlw	0
  5671  1561  00B2               	movwf	(?_ldexp+2)^(0+128)
  5672  1562  3000               	movlw	0
  5673  1563  00B1               	movwf	(?_ldexp+1)^(0+128)
  5674  1564  3000               	movlw	0
  5675  1565  00B0               	movwf	?_ldexp^(0+128)
  5676  1566  2DD7               	goto	l812
  5677  1567                     l4306:	
  5678  1567  0835               	movf	(ldexp@newexp+1)^(0+128),w
  5679  1568  3A80               	xorlw	128
  5680  1569  00FF               	movwf	btemp+1
  5681  156A  3081               	movlw	129
  5682  156B  027F               	subwf	btemp+1,w
  5683  156C  1D03               	skipz
  5684  156D  2D70               	goto	u6255
  5685  156E  3000               	movlw	0
  5686  156F  0234               	subwf	ldexp@newexp^(0+128),w
  5687  1570                     u6255:	
  5688  1570  1C03               	skipc
  5689  1571  2D73               	goto	u6251
  5690  1572  2D74               	goto	u6250
  5691  1573                     u6251:	
  5692  1573  2DAB               	goto	l4322
  5693  1574                     u6250:	
  5694  1574                     l4308:	
  5695  1574  3022               	movlw	34
  5696  1575  1683               	bsf	3,5	;RP0=1, select bank3
  5697  1576  1703               	bsf	3,6	;RP1=1, select bank3
  5698  1577  0098               	movwf	_errno^(0+384)
  5699  1578  3000               	movlw	0
  5700  1579  0099               	movwf	(_errno^(0+384)+1)
  5701  157A                     l4310:	
  5702  157A  1683               	bsf	3,5	;RP0=1, select bank1
  5703  157B  1303               	bcf	3,6	;RP1=0, select bank1
  5704  157C  0833               	movf	(ldexp@value+3)^(0+128),w
  5705  157D  00F3               	movwf	___flge@ff1+3
  5706  157E  0832               	movf	(ldexp@value+2)^(0+128),w
  5707  157F  00F2               	movwf	___flge@ff1+2
  5708  1580  0831               	movf	(ldexp@value+1)^(0+128),w
  5709  1581  00F1               	movwf	___flge@ff1+1
  5710  1582  0830               	movf	ldexp@value^(0+128),w
  5711  1583  00F0               	movwf	___flge@ff1
  5712  1584  3000               	movlw	0
  5713  1585  00F7               	movwf	___flge@ff2+3
  5714  1586  3000               	movlw	0
  5715  1587  00F6               	movwf	___flge@ff2+2
  5716  1588  3000               	movlw	0
  5717  1589  00F5               	movwf	___flge@ff2+1
  5718  158A  3000               	movlw	0
  5719  158B  00F4               	movwf	___flge@ff2
  5720  158C  160A  118A  2008  160A  118A  	fcall	___flge
  5721  1591  1803               	btfsc	3,0
  5722  1592  2D94               	goto	u6261
  5723  1593  2D95               	goto	u6260
  5724  1594                     u6261:	
  5725  1594  2DA0               	goto	l4318
  5726  1595                     u6260:	
  5727  1595                     l4312:	
  5728  1595  30FF               	movlw	255
  5729  1596  1683               	bsf	3,5	;RP0=1, select bank1
  5730  1597  1303               	bcf	3,6	;RP1=0, select bank1
  5731  1598  00B3               	movwf	(?_ldexp+3)^(0+128)
  5732  1599  307F               	movlw	127
  5733  159A  00B2               	movwf	(?_ldexp+2)^(0+128)
  5734  159B  30FF               	movlw	255
  5735  159C  00B1               	movwf	(?_ldexp+1)^(0+128)
  5736  159D  30FF               	movlw	255
  5737  159E  00B0               	movwf	?_ldexp^(0+128)
  5738  159F  2DD7               	goto	l812
  5739  15A0                     l4318:	
  5740  15A0  307F               	movlw	127
  5741  15A1  1683               	bsf	3,5	;RP0=1, select bank1
  5742  15A2  1303               	bcf	3,6	;RP1=0, select bank1
  5743  15A3  00B3               	movwf	(?_ldexp+3)^(0+128)
  5744  15A4  307F               	movlw	127
  5745  15A5  00B2               	movwf	(?_ldexp+2)^(0+128)
  5746  15A6  30FF               	movlw	255
  5747  15A7  00B1               	movwf	(?_ldexp+1)^(0+128)
  5748  15A8  30FF               	movlw	255
  5749  15A9  00B0               	movwf	?_ldexp^(0+128)
  5750  15AA  2DD7               	goto	l812
  5751  15AB                     l4322:	
  5752  15AB  1683               	bsf	3,5	;RP0=1, select bank1
  5753  15AC  1303               	bcf	3,6	;RP1=0, select bank1
  5754  15AD  0835               	movf	(ldexp@newexp+1)^(0+128),w
  5755  15AE  1283               	bcf	3,5	;RP0=0, select bank0
  5756  15AF  1303               	bcf	3,6	;RP1=0, select bank0
  5757  15B0  00EE               	movwf	??_ldexp+1
  5758  15B1  1683               	bsf	3,5	;RP0=1, select bank1
  5759  15B2  1303               	bcf	3,6	;RP1=0, select bank1
  5760  15B3  0834               	movf	ldexp@newexp^(0+128),w
  5761  15B4  1283               	bcf	3,5	;RP0=0, select bank0
  5762  15B5  1303               	bcf	3,6	;RP1=0, select bank0
  5763  15B6  00ED               	movwf	??_ldexp
  5764  15B7  0D6E               	rlf	??_ldexp+1,w
  5765  15B8  0CEE               	rrf	??_ldexp+1,f
  5766  15B9  0CED               	rrf	??_ldexp,f
  5767  15BA  1683               	bsf	3,5	;RP0=1, select bank1
  5768  15BB  1303               	bcf	3,6	;RP1=0, select bank1
  5769  15BC  0833               	movf	(ldexp@value^(0+128)+3),w
  5770  15BD  1283               	bcf	3,5	;RP0=0, select bank0
  5771  15BE  1303               	bcf	3,6	;RP1=0, select bank0
  5772  15BF  066D               	xorwf	??_ldexp,w
  5773  15C0  3980               	andlw	-128
  5774  15C1  066D               	xorwf	??_ldexp,w
  5775  15C2  1683               	bsf	3,5	;RP0=1, select bank1
  5776  15C3  1303               	bcf	3,6	;RP1=0, select bank1
  5777  15C4  00B3               	movwf	(ldexp@value^(0+128)+3)
  5778  15C5  0834               	movf	ldexp@newexp^(0+128),w
  5779  15C6  3901               	andlw	1
  5780  15C7  1283               	bcf	3,5	;RP0=0, select bank0
  5781  15C8  1303               	bcf	3,6	;RP1=0, select bank0
  5782  15C9  00ED               	movwf	??_ldexp
  5783  15CA  0CED               	rrf	??_ldexp,f
  5784  15CB  0CED               	rrf	??_ldexp,f
  5785  15CC  1683               	bsf	3,5	;RP0=1, select bank1
  5786  15CD  1303               	bcf	3,6	;RP1=0, select bank1
  5787  15CE  0832               	movf	(ldexp@value^(0+128)+2),w
  5788  15CF  1283               	bcf	3,5	;RP0=0, select bank0
  5789  15D0  1303               	bcf	3,6	;RP1=0, select bank0
  5790  15D1  066D               	xorwf	??_ldexp,w
  5791  15D2  397F               	andlw	-129
  5792  15D3  066D               	xorwf	??_ldexp,w
  5793  15D4  1683               	bsf	3,5	;RP0=1, select bank1
  5794  15D5  1303               	bcf	3,6	;RP1=0, select bank1
  5795  15D6  00B2               	movwf	(ldexp@value^(0+128)+2)
  5796  15D7                     l4324:	
  5797  15D7                     l812:	
  5798  15D7  0008               	return
  5799  15D8                     __end_of_ldexp:	
  5800                           
  5801                           	psect	text21
  5802  15D8                     __ptext21:	
  5803 ;; *************** function _floor *****************
  5804 ;; Defined at:
  5805 ;;		line 13 in file "C:\Program Files (x86)\Microchip\xc8\v2.10\pic\sources\c90\common\floor.c"
  5806 ;; Parameters:    Size  Location     Type
  5807 ;;  x               4    0[BANK1 ] int 
  5808 ;; Auto vars:     Size  Location     Type
  5809 ;;  i               4    4[BANK1 ] int 
  5810 ;;  expon           2    8[BANK1 ] int 
  5811 ;; Return value:  Size  Location     Type
  5812 ;;                  4    0[BANK1 ] int 
  5813 ;; Registers used:
  5814 ;;		wreg, fsr0l, fsr0h, status,2, status,0, btemp+1, pclath, cstack
  5815 ;; Tracked objects:
  5816 ;;		On entry : 0/0
  5817 ;;		On exit  : 0/0
  5818 ;;		Unchanged: 0/0
  5819 ;; Data sizes:     COMMON   BANK0   BANK1   BANK3   BANK2
  5820 ;;      Params:         0       0       4       0       0
  5821 ;;      Locals:         0       0       6       0       0
  5822 ;;      Temps:          1       0       0       0       0
  5823 ;;      Totals:         1       0      10       0       0
  5824 ;;Total ram usage:       11 bytes
  5825 ;; Hardware stack levels used:    1
  5826 ;; Hardware stack levels required when called:    2
  5827 ;; This function calls:
  5828 ;;		___fladd
  5829 ;;		___flge
  5830 ;;		___fltol
  5831 ;;		___xxtofl
  5832 ;;		_frexp
  5833 ;; This function is called by:
  5834 ;;		_exp
  5835 ;; This function uses a non-reentrant model
  5836 ;;
  5837                           
  5838                           
  5839                           ;psect for function _floor
  5840  15D8                     _floor:	
  5841  15D8                     l4252:	
  5842                           ;incstack = 0
  5843                           ; Regs used in _floor: [wreg-fsr0h+status,2+status,0+btemp+1+pclath+cstack]
  5844                           
  5845  15D8  1683               	bsf	3,5	;RP0=1, select bank1
  5846  15D9  1303               	bcf	3,6	;RP1=0, select bank1
  5847  15DA  0823               	movf	(floor@x+3)^(0+128),w
  5848  15DB  1283               	bcf	3,5	;RP0=0, select bank0
  5849  15DC  1303               	bcf	3,6	;RP1=0, select bank0
  5850  15DD  00BD               	movwf	frexp@value+3
  5851  15DE  1683               	bsf	3,5	;RP0=1, select bank1
  5852  15DF  1303               	bcf	3,6	;RP1=0, select bank1
  5853  15E0  0822               	movf	(floor@x+2)^(0+128),w
  5854  15E1  1283               	bcf	3,5	;RP0=0, select bank0
  5855  15E2  1303               	bcf	3,6	;RP1=0, select bank0
  5856  15E3  00BC               	movwf	frexp@value+2
  5857  15E4  1683               	bsf	3,5	;RP0=1, select bank1
  5858  15E5  1303               	bcf	3,6	;RP1=0, select bank1
  5859  15E6  0821               	movf	(floor@x+1)^(0+128),w
  5860  15E7  1283               	bcf	3,5	;RP0=0, select bank0
  5861  15E8  1303               	bcf	3,6	;RP1=0, select bank0
  5862  15E9  00BB               	movwf	frexp@value+1
  5863  15EA  1683               	bsf	3,5	;RP0=1, select bank1
  5864  15EB  1303               	bcf	3,6	;RP1=0, select bank1
  5865  15EC  0820               	movf	floor@x^(0+128),w
  5866  15ED  1283               	bcf	3,5	;RP0=0, select bank0
  5867  15EE  1303               	bcf	3,6	;RP1=0, select bank0
  5868  15EF  00BA               	movwf	frexp@value
  5869  15F0  30A8               	movlw	(low (floor@expon| 0))& (0+255)
  5870  15F1  00FD               	movwf	??_floor
  5871  15F2  087D               	movf	??_floor,w
  5872  15F3  00BE               	movwf	frexp@eptr
  5873  15F4  160A  158A  24A1  160A  118A  	fcall	_frexp
  5874  15F9                     l4254:	
  5875  15F9  1683               	bsf	3,5	;RP0=1, select bank1
  5876  15FA  1303               	bcf	3,6	;RP1=0, select bank1
  5877  15FB  1FA9               	btfss	(floor@expon+1)^(0+128),7
  5878  15FC  2DFE               	goto	u6161
  5879  15FD  2DFF               	goto	u6160
  5880  15FE                     u6161:	
  5881  15FE  2E2E               	goto	l4266
  5882  15FF                     u6160:	
  5883  15FF                     l4256:	
  5884  15FF  0823               	movf	(floor@x+3)^(0+128),w
  5885  1600  00F3               	movwf	___flge@ff1+3
  5886  1601  0822               	movf	(floor@x+2)^(0+128),w
  5887  1602  00F2               	movwf	___flge@ff1+2
  5888  1603  0821               	movf	(floor@x+1)^(0+128),w
  5889  1604  00F1               	movwf	___flge@ff1+1
  5890  1605  0820               	movf	floor@x^(0+128),w
  5891  1606  00F0               	movwf	___flge@ff1
  5892  1607  3000               	movlw	0
  5893  1608  00F7               	movwf	___flge@ff2+3
  5894  1609  3000               	movlw	0
  5895  160A  00F6               	movwf	___flge@ff2+2
  5896  160B  3000               	movlw	0
  5897  160C  00F5               	movwf	___flge@ff2+1
  5898  160D  3000               	movlw	0
  5899  160E  00F4               	movwf	___flge@ff2
  5900  160F  160A  118A  2008  160A  118A  	fcall	___flge
  5901  1614  1803               	btfsc	3,0
  5902  1615  2E17               	goto	u6171
  5903  1616  2E18               	goto	u6170
  5904  1617                     u6171:	
  5905  1617  2E23               	goto	l4262
  5906  1618                     u6170:	
  5907  1618                     l4258:	
  5908  1618  30BF               	movlw	191
  5909  1619  1683               	bsf	3,5	;RP0=1, select bank1
  5910  161A  1303               	bcf	3,6	;RP1=0, select bank1
  5911  161B  00A3               	movwf	(?_floor+3)^(0+128)
  5912  161C  3080               	movlw	128
  5913  161D  00A2               	movwf	(?_floor+2)^(0+128)
  5914  161E  3000               	movlw	0
  5915  161F  00A1               	movwf	(?_floor+1)^(0+128)
  5916  1620  3000               	movlw	0
  5917  1621  00A0               	movwf	?_floor^(0+128)
  5918  1622  2ED0               	goto	l800
  5919  1623                     l4262:	
  5920  1623  3000               	movlw	0
  5921  1624  1683               	bsf	3,5	;RP0=1, select bank1
  5922  1625  1303               	bcf	3,6	;RP1=0, select bank1
  5923  1626  00A3               	movwf	(?_floor+3)^(0+128)
  5924  1627  3000               	movlw	0
  5925  1628  00A2               	movwf	(?_floor+2)^(0+128)
  5926  1629  3000               	movlw	0
  5927  162A  00A1               	movwf	(?_floor+1)^(0+128)
  5928  162B  3000               	movlw	0
  5929  162C  00A0               	movwf	?_floor^(0+128)
  5930  162D  2ED0               	goto	l800
  5931  162E                     l4266:	
  5932  162E  3000               	movlw	0
  5933  162F  0229               	subwf	(floor@expon+1)^(0+128),w
  5934  1630  301D               	movlw	29
  5935  1631  1903               	skipnz
  5936  1632  0228               	subwf	floor@expon^(0+128),w
  5937  1633  1C03               	skipc
  5938  1634  2E36               	goto	u6181
  5939  1635  2E37               	goto	u6180
  5940  1636                     u6181:	
  5941  1636  2E38               	goto	l4270
  5942  1637                     u6180:	
  5943  1637                     l4268:	
  5944  1637  2ED0               	goto	l800
  5945  1638                     l4270:	
  5946  1638  0823               	movf	(floor@x+3)^(0+128),w
  5947  1639  00F3               	movwf	___fltol@f1+3
  5948  163A  0822               	movf	(floor@x+2)^(0+128),w
  5949  163B  00F2               	movwf	___fltol@f1+2
  5950  163C  0821               	movf	(floor@x+1)^(0+128),w
  5951  163D  00F1               	movwf	___fltol@f1+1
  5952  163E  0820               	movf	floor@x^(0+128),w
  5953  163F  00F0               	movwf	___fltol@f1
  5954  1640  160A  158A  25DC  160A  118A  	fcall	___fltol
  5955  1645  0873               	movf	?___fltol+3,w
  5956  1646  1283               	bcf	3,5	;RP0=0, select bank0
  5957  1647  1303               	bcf	3,6	;RP1=0, select bank0
  5958  1648  00A3               	movwf	___xxtofl@val+3
  5959  1649  0872               	movf	?___fltol+2,w
  5960  164A  00A2               	movwf	___xxtofl@val+2
  5961  164B  0871               	movf	?___fltol+1,w
  5962  164C  00A1               	movwf	___xxtofl@val+1
  5963  164D  0870               	movf	?___fltol,w
  5964  164E  00A0               	movwf	___xxtofl@val
  5965  164F  3001               	movlw	1
  5966  1650  160A  118A  235E  160A  118A  	fcall	___xxtofl
  5967  1655  1283               	bcf	3,5	;RP0=0, select bank0
  5968  1656  1303               	bcf	3,6	;RP1=0, select bank0
  5969  1657  0823               	movf	?___xxtofl+3,w
  5970  1658  1683               	bsf	3,5	;RP0=1, select bank1
  5971  1659  1303               	bcf	3,6	;RP1=0, select bank1
  5972  165A  00A7               	movwf	(floor@i+3)^(0+128)
  5973  165B  1283               	bcf	3,5	;RP0=0, select bank0
  5974  165C  1303               	bcf	3,6	;RP1=0, select bank0
  5975  165D  0822               	movf	?___xxtofl+2,w
  5976  165E  1683               	bsf	3,5	;RP0=1, select bank1
  5977  165F  1303               	bcf	3,6	;RP1=0, select bank1
  5978  1660  00A6               	movwf	(floor@i+2)^(0+128)
  5979  1661  1283               	bcf	3,5	;RP0=0, select bank0
  5980  1662  1303               	bcf	3,6	;RP1=0, select bank0
  5981  1663  0821               	movf	?___xxtofl+1,w
  5982  1664  1683               	bsf	3,5	;RP0=1, select bank1
  5983  1665  1303               	bcf	3,6	;RP1=0, select bank1
  5984  1666  00A5               	movwf	(floor@i+1)^(0+128)
  5985  1667  1283               	bcf	3,5	;RP0=0, select bank0
  5986  1668  1303               	bcf	3,6	;RP1=0, select bank0
  5987  1669  0820               	movf	?___xxtofl,w
  5988  166A  1683               	bsf	3,5	;RP0=1, select bank1
  5989  166B  1303               	bcf	3,6	;RP1=0, select bank1
  5990  166C  00A4               	movwf	floor@i^(0+128)
  5991  166D  0823               	movf	(floor@x+3)^(0+128),w
  5992  166E  00F3               	movwf	___flge@ff1+3
  5993  166F  0822               	movf	(floor@x+2)^(0+128),w
  5994  1670  00F2               	movwf	___flge@ff1+2
  5995  1671  0821               	movf	(floor@x+1)^(0+128),w
  5996  1672  00F1               	movwf	___flge@ff1+1
  5997  1673  0820               	movf	floor@x^(0+128),w
  5998  1674  00F0               	movwf	___flge@ff1
  5999  1675  0827               	movf	(floor@i+3)^(0+128),w
  6000  1676  00F7               	movwf	___flge@ff2+3
  6001  1677  0826               	movf	(floor@i+2)^(0+128),w
  6002  1678  00F6               	movwf	___flge@ff2+2
  6003  1679  0825               	movf	(floor@i+1)^(0+128),w
  6004  167A  00F5               	movwf	___flge@ff2+1
  6005  167B  0824               	movf	floor@i^(0+128),w
  6006  167C  00F4               	movwf	___flge@ff2
  6007  167D  160A  118A  2008  160A  118A  	fcall	___flge
  6008  1682  1803               	btfsc	3,0
  6009  1683  2E85               	goto	u6191
  6010  1684  2E86               	goto	u6190
  6011  1685                     u6191:	
  6012  1685  2EC6               	goto	l4276
  6013  1686                     u6190:	
  6014  1686                     l4272:	
  6015  1686  30BF               	movlw	191
  6016  1687  1283               	bcf	3,5	;RP0=0, select bank0
  6017  1688  1303               	bcf	3,6	;RP1=0, select bank0
  6018  1689  00DC               	movwf	___fladd@b+3
  6019  168A  3080               	movlw	128
  6020  168B  00DB               	movwf	___fladd@b+2
  6021  168C  3000               	movlw	0
  6022  168D  00DA               	movwf	___fladd@b+1
  6023  168E  3000               	movlw	0
  6024  168F  00D9               	movwf	___fladd@b
  6025  1690  1683               	bsf	3,5	;RP0=1, select bank1
  6026  1691  1303               	bcf	3,6	;RP1=0, select bank1
  6027  1692  0827               	movf	(floor@i+3)^(0+128),w
  6028  1693  1283               	bcf	3,5	;RP0=0, select bank0
  6029  1694  1303               	bcf	3,6	;RP1=0, select bank0
  6030  1695  00E0               	movwf	___fladd@a+3
  6031  1696  1683               	bsf	3,5	;RP0=1, select bank1
  6032  1697  1303               	bcf	3,6	;RP1=0, select bank1
  6033  1698  0826               	movf	(floor@i+2)^(0+128),w
  6034  1699  1283               	bcf	3,5	;RP0=0, select bank0
  6035  169A  1303               	bcf	3,6	;RP1=0, select bank0
  6036  169B  00DF               	movwf	___fladd@a+2
  6037  169C  1683               	bsf	3,5	;RP0=1, select bank1
  6038  169D  1303               	bcf	3,6	;RP1=0, select bank1
  6039  169E  0825               	movf	(floor@i+1)^(0+128),w
  6040  169F  1283               	bcf	3,5	;RP0=0, select bank0
  6041  16A0  1303               	bcf	3,6	;RP1=0, select bank0
  6042  16A1  00DE               	movwf	___fladd@a+1
  6043  16A2  1683               	bsf	3,5	;RP0=1, select bank1
  6044  16A3  1303               	bcf	3,6	;RP1=0, select bank1
  6045  16A4  0824               	movf	floor@i^(0+128),w
  6046  16A5  1283               	bcf	3,5	;RP0=0, select bank0
  6047  16A6  1303               	bcf	3,6	;RP1=0, select bank0
  6048  16A7  00DD               	movwf	___fladd@a
  6049  16A8  120A  158A  2578  160A  118A  	fcall	___fladd
  6050  16AD  1283               	bcf	3,5	;RP0=0, select bank0
  6051  16AE  1303               	bcf	3,6	;RP1=0, select bank0
  6052  16AF  085C               	movf	?___fladd+3,w
  6053  16B0  1683               	bsf	3,5	;RP0=1, select bank1
  6054  16B1  1303               	bcf	3,6	;RP1=0, select bank1
  6055  16B2  00A3               	movwf	(?_floor+3)^(0+128)
  6056  16B3  1283               	bcf	3,5	;RP0=0, select bank0
  6057  16B4  1303               	bcf	3,6	;RP1=0, select bank0
  6058  16B5  085B               	movf	?___fladd+2,w
  6059  16B6  1683               	bsf	3,5	;RP0=1, select bank1
  6060  16B7  1303               	bcf	3,6	;RP1=0, select bank1
  6061  16B8  00A2               	movwf	(?_floor+2)^(0+128)
  6062  16B9  1283               	bcf	3,5	;RP0=0, select bank0
  6063  16BA  1303               	bcf	3,6	;RP1=0, select bank0
  6064  16BB  085A               	movf	?___fladd+1,w
  6065  16BC  1683               	bsf	3,5	;RP0=1, select bank1
  6066  16BD  1303               	bcf	3,6	;RP1=0, select bank1
  6067  16BE  00A1               	movwf	(?_floor+1)^(0+128)
  6068  16BF  1283               	bcf	3,5	;RP0=0, select bank0
  6069  16C0  1303               	bcf	3,6	;RP1=0, select bank0
  6070  16C1  0859               	movf	?___fladd,w
  6071  16C2  1683               	bsf	3,5	;RP0=1, select bank1
  6072  16C3  1303               	bcf	3,6	;RP1=0, select bank1
  6073  16C4  00A0               	movwf	?_floor^(0+128)
  6074  16C5  2ED0               	goto	l800
  6075  16C6                     l4276:	
  6076  16C6  1683               	bsf	3,5	;RP0=1, select bank1
  6077  16C7  1303               	bcf	3,6	;RP1=0, select bank1
  6078  16C8  0827               	movf	(floor@i+3)^(0+128),w
  6079  16C9  00A3               	movwf	(?_floor+3)^(0+128)
  6080  16CA  0826               	movf	(floor@i+2)^(0+128),w
  6081  16CB  00A2               	movwf	(?_floor+2)^(0+128)
  6082  16CC  0825               	movf	(floor@i+1)^(0+128),w
  6083  16CD  00A1               	movwf	(?_floor+1)^(0+128)
  6084  16CE  0824               	movf	floor@i^(0+128),w
  6085  16CF  00A0               	movwf	?_floor^(0+128)
  6086  16D0                     l800:	
  6087  16D0  0008               	return
  6088  16D1                     __end_of_floor:	
  6089                           
  6090                           	psect	text22
  6091  1CA1                     __ptext22:	
  6092 ;; *************** function _frexp *****************
  6093 ;; Defined at:
  6094 ;;		line 254 in file "C:\Program Files (x86)\Microchip\xc8\v2.10\pic\sources\c90\common\frexp.c"
  6095 ;; Parameters:    Size  Location     Type
  6096 ;;  value           4   26[BANK0 ] int 
  6097 ;;  eptr            1   30[BANK0 ] PTR int 
  6098 ;;		 -> log@exponent(2), floor@expon(2), 
  6099 ;; Auto vars:     Size  Location     Type
  6100 ;;		None
  6101 ;; Return value:  Size  Location     Type
  6102 ;;                  4   26[BANK0 ] PTR int 
  6103 ;; Registers used:
  6104 ;;		wreg, fsr0l, fsr0h, status,2, status,0, btemp+1, pclath, cstack
  6105 ;; Tracked objects:
  6106 ;;		On entry : 0/0
  6107 ;;		On exit  : 0/0
  6108 ;;		Unchanged: 0/0
  6109 ;; Data sizes:     COMMON   BANK0   BANK1   BANK3   BANK2
  6110 ;;      Params:         0       5       0       0       0
  6111 ;;      Locals:         0       0       0       0       0
  6112 ;;      Temps:          2       0       0       0       0
  6113 ;;      Totals:         2       5       0       0       0
  6114 ;;Total ram usage:        7 bytes
  6115 ;; Hardware stack levels used:    1
  6116 ;; Hardware stack levels required when called:    1
  6117 ;; This function calls:
  6118 ;;		___fleq
  6119 ;; This function is called by:
  6120 ;;		_floor
  6121 ;;		_log
  6122 ;; This function uses a non-reentrant model
  6123 ;;
  6124                           
  6125                           
  6126                           ;psect for function _frexp
  6127  1CA1                     _frexp:	
  6128  1CA1                     l4076:	
  6129                           ;incstack = 0
  6130                           ; Regs used in _frexp: [wreg-fsr0h+status,2+status,0+btemp+1+pclath+cstack]
  6131                           
  6132  1CA1  1283               	bcf	3,5	;RP0=0, select bank0
  6133  1CA2  1303               	bcf	3,6	;RP1=0, select bank0
  6134  1CA3  083D               	movf	frexp@value+3,w
  6135  1CA4  00B1               	movwf	___fleq@ff1+3
  6136  1CA5  083C               	movf	frexp@value+2,w
  6137  1CA6  00B0               	movwf	___fleq@ff1+2
  6138  1CA7  083B               	movf	frexp@value+1,w
  6139  1CA8  00AF               	movwf	___fleq@ff1+1
  6140  1CA9  083A               	movf	frexp@value,w
  6141  1CAA  00AE               	movwf	___fleq@ff1
  6142  1CAB  3000               	movlw	0
  6143  1CAC  00B5               	movwf	___fleq@ff2+3
  6144  1CAD  3000               	movlw	0
  6145  1CAE  00B4               	movwf	___fleq@ff2+2
  6146  1CAF  3000               	movlw	0
  6147  1CB0  00B3               	movwf	___fleq@ff2+1
  6148  1CB1  3000               	movlw	0
  6149  1CB2  00B2               	movwf	___fleq@ff2
  6150  1CB3  160A  158A  23F8  160A  158A  	fcall	___fleq
  6151  1CB8  1C03               	btfss	3,0
  6152  1CB9  2CBB               	goto	u5841
  6153  1CBA  2CBC               	goto	u5840
  6154  1CBB                     u5841:	
  6155  1CBB  2CCD               	goto	l4084
  6156  1CBC                     u5840:	
  6157  1CBC                     l4078:	
  6158  1CBC  1283               	bcf	3,5	;RP0=0, select bank0
  6159  1CBD  1303               	bcf	3,6	;RP1=0, select bank0
  6160  1CBE  083E               	movf	frexp@eptr,w
  6161  1CBF  0084               	movwf	4
  6162  1CC0  1383               	bcf	3,7	;select IRP bank0
  6163  1CC1  0180               	clrf	0
  6164  1CC2  0A84               	incf	4,f
  6165  1CC3  0180               	clrf	0
  6166  1CC4                     l4080:	
  6167  1CC4  3000               	movlw	0
  6168  1CC5  00BD               	movwf	?_frexp+3
  6169  1CC6  3000               	movlw	0
  6170  1CC7  00BC               	movwf	?_frexp+2
  6171  1CC8  3000               	movlw	0
  6172  1CC9  00BB               	movwf	?_frexp+1
  6173  1CCA  3000               	movlw	0
  6174  1CCB  00BA               	movwf	?_frexp
  6175  1CCC  2CFC               	goto	l808
  6176  1CCD                     l4084:	
  6177  1CCD  1283               	bcf	3,5	;RP0=0, select bank0
  6178  1CCE  1303               	bcf	3,6	;RP1=0, select bank0
  6179  1CCF  083D               	movf	frexp@value+3,w
  6180  1CD0  397F               	andlw	127
  6181  1CD1  00FB               	movwf	??_frexp
  6182  1CD2  01FC               	clrf	??_frexp+1
  6183  1CD3  1003               	clrc
  6184  1CD4  0DFB               	rlf	??_frexp,f
  6185  1CD5  0DFC               	rlf	??_frexp+1,f
  6186  1CD6  083E               	movf	frexp@eptr,w
  6187  1CD7  0084               	movwf	4
  6188  1CD8  087B               	movf	??_frexp,w
  6189  1CD9  1383               	bcf	3,7	;select IRP bank0
  6190  1CDA  0080               	movwf	0
  6191  1CDB  0A84               	incf	4,f
  6192  1CDC  087C               	movf	??_frexp+1,w
  6193  1CDD  0080               	movwf	0
  6194  1CDE  0D3C               	rlf	frexp@value+2,w
  6195  1CDF  0D3C               	rlf	frexp@value+2,w
  6196  1CE0  3901               	andlw	1
  6197  1CE1  00FB               	movwf	??_frexp
  6198  1CE2  01FC               	clrf	??_frexp+1
  6199  1CE3  083E               	movf	frexp@eptr,w
  6200  1CE4  0084               	movwf	4
  6201  1CE5  087B               	movf	??_frexp,w
  6202  1CE6  0480               	iorwf	0,f
  6203  1CE7  0A84               	incf	4,f
  6204  1CE8  087C               	movf	??_frexp+1,w
  6205  1CE9  0480               	iorwf	0,f
  6206  1CEA                     l4086:	
  6207  1CEA  083E               	movf	frexp@eptr,w
  6208  1CEB  0084               	movwf	4
  6209  1CEC  3082               	movlw	130
  6210  1CED  0780               	addwf	0,f
  6211  1CEE  0F84               	incfsz	4,f
  6212  1CEF  0800               	movf	0,w
  6213  1CF0  1803               	skipnc
  6214  1CF1  0A00               	incf	0,w
  6215  1CF2  00FF               	movwf	btemp+1
  6216  1CF3  30FF               	movlw	255
  6217  1CF4  077F               	addwf	btemp+1,w
  6218  1CF5  0080               	movwf	0
  6219  1CF6  0384               	decf	4,f
  6220  1CF7                     l4088:	
  6221  1CF7  083D               	movf	frexp@value+3,w
  6222  1CF8  3980               	andlw	-128
  6223  1CF9  383F               	iorlw	63
  6224  1CFA  00BD               	movwf	frexp@value+3
  6225  1CFB                     l4090:	
  6226  1CFB  13BC               	bcf	frexp@value+2,7
  6227  1CFC                     l4092:	
  6228  1CFC                     l808:	
  6229  1CFC  0008               	return
  6230  1CFD                     __end_of_frexp:	
  6231                           
  6232                           	psect	text23
  6233  1BF8                     __ptext23:	
  6234 ;; *************** function ___fleq *****************
  6235 ;; Defined at:
  6236 ;;		line 4 in file "C:\Program Files (x86)\Microchip\xc8\v2.10\pic\sources\c90\common\fleq.c"
  6237 ;; Parameters:    Size  Location     Type
  6238 ;;  ff1             4   14[BANK0 ] PTR int 
  6239 ;;  ff2             4   18[BANK0 ] PTR int 
  6240 ;; Auto vars:     Size  Location     Type
  6241 ;;		None
  6242 ;; Return value:  Size  Location     Type
  6243 ;;		None               void
  6244 ;; Registers used:
  6245 ;;		wreg, status,2, status,0
  6246 ;; Tracked objects:
  6247 ;;		On entry : 0/0
  6248 ;;		On exit  : 0/0
  6249 ;;		Unchanged: 0/0
  6250 ;; Data sizes:     COMMON   BANK0   BANK1   BANK3   BANK2
  6251 ;;      Params:         0       8       0       0       0
  6252 ;;      Locals:         0       0       0       0       0
  6253 ;;      Temps:          0       4       0       0       0
  6254 ;;      Totals:         0      12       0       0       0
  6255 ;;Total ram usage:       12 bytes
  6256 ;; Hardware stack levels used:    1
  6257 ;; This function calls:
  6258 ;;		Nothing
  6259 ;; This function is called by:
  6260 ;;		_pow
  6261 ;;		_exp
  6262 ;;		_frexp
  6263 ;;		_ldexp
  6264 ;;		_log
  6265 ;; This function uses a non-reentrant model
  6266 ;;
  6267                           
  6268                           
  6269                           ;psect for function ___fleq
  6270  1BF8                     ___fleq:	
  6271  1BF8                     l3616:	
  6272                           ;incstack = 0
  6273                           ; Regs used in ___fleq: [wreg+status,2+status,0]
  6274                           
  6275  1BF8  3000               	movlw	0
  6276  1BF9  1283               	bcf	3,5	;RP0=0, select bank0
  6277  1BFA  1303               	bcf	3,6	;RP1=0, select bank0
  6278  1BFB  052E               	andwf	___fleq@ff1,w
  6279  1BFC  00B6               	movwf	??___fleq
  6280  1BFD  3000               	movlw	0
  6281  1BFE  052F               	andwf	___fleq@ff1+1,w
  6282  1BFF  00B7               	movwf	??___fleq+1
  6283  1C00  3080               	movlw	128
  6284  1C01  0530               	andwf	___fleq@ff1+2,w
  6285  1C02  00B8               	movwf	??___fleq+2
  6286  1C03  307F               	movlw	127
  6287  1C04  0531               	andwf	___fleq@ff1+3,w
  6288  1C05  00B9               	movwf	??___fleq+3
  6289  1C06  0839               	movf	??___fleq+3,w
  6290  1C07  0438               	iorwf	??___fleq+2,w
  6291  1C08  0437               	iorwf	??___fleq+1,w
  6292  1C09  0436               	iorwf	??___fleq,w
  6293  1C0A  1D03               	skipz
  6294  1C0B  2C0D               	goto	u4641
  6295  1C0C  2C0E               	goto	u4640
  6296  1C0D                     u4641:	
  6297  1C0D  2C16               	goto	l464
  6298  1C0E                     u4640:	
  6299  1C0E                     l3618:	
  6300  1C0E  3000               	movlw	0
  6301  1C0F  00B1               	movwf	___fleq@ff1+3
  6302  1C10  3000               	movlw	0
  6303  1C11  00B0               	movwf	___fleq@ff1+2
  6304  1C12  3000               	movlw	0
  6305  1C13  00AF               	movwf	___fleq@ff1+1
  6306  1C14  3000               	movlw	0
  6307  1C15  00AE               	movwf	___fleq@ff1
  6308  1C16                     l464:	
  6309  1C16  3000               	movlw	0
  6310  1C17  0532               	andwf	___fleq@ff2,w
  6311  1C18  00B6               	movwf	??___fleq
  6312  1C19  3000               	movlw	0
  6313  1C1A  0533               	andwf	___fleq@ff2+1,w
  6314  1C1B  00B7               	movwf	??___fleq+1
  6315  1C1C  3080               	movlw	128
  6316  1C1D  0534               	andwf	___fleq@ff2+2,w
  6317  1C1E  00B8               	movwf	??___fleq+2
  6318  1C1F  307F               	movlw	127
  6319  1C20  0535               	andwf	___fleq@ff2+3,w
  6320  1C21  00B9               	movwf	??___fleq+3
  6321  1C22  0839               	movf	??___fleq+3,w
  6322  1C23  0438               	iorwf	??___fleq+2,w
  6323  1C24  0437               	iorwf	??___fleq+1,w
  6324  1C25  0436               	iorwf	??___fleq,w
  6325  1C26  1D03               	skipz
  6326  1C27  2C29               	goto	u4651
  6327  1C28  2C2A               	goto	u4650
  6328  1C29                     u4651:	
  6329  1C29  2C32               	goto	l465
  6330  1C2A                     u4650:	
  6331  1C2A                     l3620:	
  6332  1C2A  3000               	movlw	0
  6333  1C2B  00B5               	movwf	___fleq@ff2+3
  6334  1C2C  3000               	movlw	0
  6335  1C2D  00B4               	movwf	___fleq@ff2+2
  6336  1C2E  3000               	movlw	0
  6337  1C2F  00B3               	movwf	___fleq@ff2+1
  6338  1C30  3000               	movlw	0
  6339  1C31  00B2               	movwf	___fleq@ff2
  6340  1C32                     l465:	
  6341  1C32  0835               	movf	___fleq@ff2+3,w
  6342  1C33  0631               	xorwf	___fleq@ff1+3,w
  6343  1C34  1D03               	skipz
  6344  1C35  2C40               	goto	u4665
  6345  1C36  0834               	movf	___fleq@ff2+2,w
  6346  1C37  0630               	xorwf	___fleq@ff1+2,w
  6347  1C38  1D03               	skipz
  6348  1C39  2C40               	goto	u4665
  6349  1C3A  0833               	movf	___fleq@ff2+1,w
  6350  1C3B  062F               	xorwf	___fleq@ff1+1,w
  6351  1C3C  1D03               	skipz
  6352  1C3D  2C40               	goto	u4665
  6353  1C3E  0832               	movf	___fleq@ff2,w
  6354  1C3F  062E               	xorwf	___fleq@ff1,w
  6355  1C40                     u4665:	
  6356  1C40  1903               	skipnz
  6357  1C41  2C43               	goto	u4661
  6358  1C42  2C44               	goto	u4660
  6359  1C43                     u4661:	
  6360  1C43  2C46               	goto	l3624
  6361  1C44                     u4660:	
  6362  1C44                     l3622:	
  6363  1C44  1003               	clrc
  6364  1C45  2C47               	goto	l466
  6365  1C46                     l3624:	
  6366  1C46  1403               	setc
  6367  1C47                     l466:	
  6368  1C47  0008               	return
  6369  1C48                     __end_of___fleq:	
  6370                           
  6371                           	psect	text24
  6372  1008                     __ptext24:	
  6373 ;; *************** function ___flge *****************
  6374 ;; Defined at:
  6375 ;;		line 4 in file "C:\Program Files (x86)\Microchip\xc8\v2.10\pic\sources\c90\common\flge.c"
  6376 ;; Parameters:    Size  Location     Type
  6377 ;;  ff1             4    0[COMMON] PTR int 
  6378 ;;  ff2             4    4[COMMON] PTR int 
  6379 ;; Auto vars:     Size  Location     Type
  6380 ;;		None
  6381 ;; Return value:  Size  Location     Type
  6382 ;;		None               void
  6383 ;; Registers used:
  6384 ;;		wreg, status,2, status,0
  6385 ;; Tracked objects:
  6386 ;;		On entry : 0/0
  6387 ;;		On exit  : 0/0
  6388 ;;		Unchanged: 0/0
  6389 ;; Data sizes:     COMMON   BANK0   BANK1   BANK3   BANK2
  6390 ;;      Params:         8       0       0       0       0
  6391 ;;      Locals:         0       0       0       0       0
  6392 ;;      Temps:          4       0       0       0       0
  6393 ;;      Totals:        12       0       0       0       0
  6394 ;;Total ram usage:       12 bytes
  6395 ;; Hardware stack levels used:    1
  6396 ;; This function calls:
  6397 ;;		Nothing
  6398 ;; This function is called by:
  6399 ;;		_pow
  6400 ;;		_exp
  6401 ;;		_floor
  6402 ;;		_ldexp
  6403 ;;		_log
  6404 ;; This function uses a non-reentrant model
  6405 ;;
  6406                           
  6407                           
  6408                           ;psect for function ___flge
  6409  1008                     ___flge:	
  6410  1008                     l3642:	
  6411                           ;incstack = 0
  6412                           ; Regs used in ___flge: [wreg+status,2+status,0]
  6413                           
  6414  1008  3000               	movlw	0
  6415  1009  0570               	andwf	___flge@ff1,w
  6416  100A  00F8               	movwf	??___flge
  6417  100B  3000               	movlw	0
  6418  100C  0571               	andwf	___flge@ff1+1,w
  6419  100D  00F9               	movwf	??___flge+1
  6420  100E  3080               	movlw	128
  6421  100F  0572               	andwf	___flge@ff1+2,w
  6422  1010  00FA               	movwf	??___flge+2
  6423  1011  307F               	movlw	127
  6424  1012  0573               	andwf	___flge@ff1+3,w
  6425  1013  00FB               	movwf	??___flge+3
  6426  1014  087B               	movf	??___flge+3,w
  6427  1015  047A               	iorwf	??___flge+2,w
  6428  1016  0479               	iorwf	??___flge+1,w
  6429  1017  0478               	iorwf	??___flge,w
  6430  1018  1D03               	skipz
  6431  1019  281B               	goto	u4701
  6432  101A  281C               	goto	u4700
  6433  101B                     u4701:	
  6434  101B  2824               	goto	l469
  6435  101C                     u4700:	
  6436  101C                     l3644:	
  6437  101C  3000               	movlw	0
  6438  101D  00F3               	movwf	___flge@ff1+3
  6439  101E  3000               	movlw	0
  6440  101F  00F2               	movwf	___flge@ff1+2
  6441  1020  3000               	movlw	0
  6442  1021  00F1               	movwf	___flge@ff1+1
  6443  1022  3000               	movlw	0
  6444  1023  00F0               	movwf	___flge@ff1
  6445  1024                     l469:	
  6446  1024  3000               	movlw	0
  6447  1025  0574               	andwf	___flge@ff2,w
  6448  1026  00F8               	movwf	??___flge
  6449  1027  3000               	movlw	0
  6450  1028  0575               	andwf	___flge@ff2+1,w
  6451  1029  00F9               	movwf	??___flge+1
  6452  102A  3080               	movlw	128
  6453  102B  0576               	andwf	___flge@ff2+2,w
  6454  102C  00FA               	movwf	??___flge+2
  6455  102D  307F               	movlw	127
  6456  102E  0577               	andwf	___flge@ff2+3,w
  6457  102F  00FB               	movwf	??___flge+3
  6458  1030  087B               	movf	??___flge+3,w
  6459  1031  047A               	iorwf	??___flge+2,w
  6460  1032  0479               	iorwf	??___flge+1,w
  6461  1033  0478               	iorwf	??___flge,w
  6462  1034  1D03               	skipz
  6463  1035  2837               	goto	u4711
  6464  1036  2838               	goto	u4710
  6465  1037                     u4711:	
  6466  1037  2840               	goto	l3648
  6467  1038                     u4710:	
  6468  1038                     l3646:	
  6469  1038  3000               	movlw	0
  6470  1039  00F7               	movwf	___flge@ff2+3
  6471  103A  3000               	movlw	0
  6472  103B  00F6               	movwf	___flge@ff2+2
  6473  103C  3000               	movlw	0
  6474  103D  00F5               	movwf	___flge@ff2+1
  6475  103E  3000               	movlw	0
  6476  103F  00F4               	movwf	___flge@ff2
  6477  1040                     l3648:	
  6478  1040  1FF3               	btfss	___flge@ff1+3,7
  6479  1041  2843               	goto	u4721
  6480  1042  2844               	goto	u4720
  6481  1043                     u4721:	
  6482  1043  2868               	goto	l3652
  6483  1044                     u4720:	
  6484  1044                     l3650:	
  6485  1044  3000               	movlw	0
  6486  1045  00F8               	movwf	??___flge
  6487  1046  3000               	movlw	0
  6488  1047  00F9               	movwf	??___flge+1
  6489  1048  3000               	movlw	0
  6490  1049  00FA               	movwf	??___flge+2
  6491  104A  3080               	movlw	128
  6492  104B  00FB               	movwf	??___flge+3
  6493  104C  0870               	movf	___flge@ff1,w
  6494  104D  02F8               	subwf	??___flge,f
  6495  104E  0871               	movf	___flge@ff1+1,w
  6496  104F  1C03               	skipc
  6497  1050  0F71               	incfsz	___flge@ff1+1,w
  6498  1051  2853               	goto	u4731
  6499  1052  2854               	goto	u4732
  6500  1053                     u4731:	
  6501  1053  02F9               	subwf	??___flge+1,f
  6502  1054                     u4732:	
  6503  1054  0872               	movf	___flge@ff1+2,w
  6504  1055  1C03               	skipc
  6505  1056  0F72               	incfsz	___flge@ff1+2,w
  6506  1057  2859               	goto	u4733
  6507  1058  285A               	goto	u4734
  6508  1059                     u4733:	
  6509  1059  02FA               	subwf	??___flge+2,f
  6510  105A                     u4734:	
  6511  105A  0873               	movf	___flge@ff1+3,w
  6512  105B  1C03               	skipc
  6513  105C  0F73               	incfsz	___flge@ff1+3,w
  6514  105D  285F               	goto	u4735
  6515  105E  2860               	goto	u4736
  6516  105F                     u4735:	
  6517  105F  02FB               	subwf	??___flge+3,f
  6518  1060                     u4736:	
  6519  1060  087B               	movf	??___flge+3,w
  6520  1061  00F3               	movwf	___flge@ff1+3
  6521  1062  087A               	movf	??___flge+2,w
  6522  1063  00F2               	movwf	___flge@ff1+2
  6523  1064  0879               	movf	??___flge+1,w
  6524  1065  00F1               	movwf	___flge@ff1+1
  6525  1066  0878               	movf	??___flge,w
  6526  1067  00F0               	movwf	___flge@ff1
  6527  1068                     l3652:	
  6528  1068  1FF7               	btfss	___flge@ff2+3,7
  6529  1069  286B               	goto	u4741
  6530  106A  286C               	goto	u4740
  6531  106B                     u4741:	
  6532  106B  2890               	goto	l472
  6533  106C                     u4740:	
  6534  106C                     l3654:	
  6535  106C  3000               	movlw	0
  6536  106D  00F8               	movwf	??___flge
  6537  106E  3000               	movlw	0
  6538  106F  00F9               	movwf	??___flge+1
  6539  1070  3000               	movlw	0
  6540  1071  00FA               	movwf	??___flge+2
  6541  1072  3080               	movlw	128
  6542  1073  00FB               	movwf	??___flge+3
  6543  1074  0874               	movf	___flge@ff2,w
  6544  1075  02F8               	subwf	??___flge,f
  6545  1076  0875               	movf	___flge@ff2+1,w
  6546  1077  1C03               	skipc
  6547  1078  0F75               	incfsz	___flge@ff2+1,w
  6548  1079  287B               	goto	u4751
  6549  107A  287C               	goto	u4752
  6550  107B                     u4751:	
  6551  107B  02F9               	subwf	??___flge+1,f
  6552  107C                     u4752:	
  6553  107C  0876               	movf	___flge@ff2+2,w
  6554  107D  1C03               	skipc
  6555  107E  0F76               	incfsz	___flge@ff2+2,w
  6556  107F  2881               	goto	u4753
  6557  1080  2882               	goto	u4754
  6558  1081                     u4753:	
  6559  1081  02FA               	subwf	??___flge+2,f
  6560  1082                     u4754:	
  6561  1082  0877               	movf	___flge@ff2+3,w
  6562  1083  1C03               	skipc
  6563  1084  0F77               	incfsz	___flge@ff2+3,w
  6564  1085  2887               	goto	u4755
  6565  1086  2888               	goto	u4756
  6566  1087                     u4755:	
  6567  1087  02FB               	subwf	??___flge+3,f
  6568  1088                     u4756:	
  6569  1088  087B               	movf	??___flge+3,w
  6570  1089  00F7               	movwf	___flge@ff2+3
  6571  108A  087A               	movf	??___flge+2,w
  6572  108B  00F6               	movwf	___flge@ff2+2
  6573  108C  0879               	movf	??___flge+1,w
  6574  108D  00F5               	movwf	___flge@ff2+1
  6575  108E  0878               	movf	??___flge,w
  6576  108F  00F4               	movwf	___flge@ff2
  6577  1090                     l472:	
  6578  1090  3080               	movlw	128
  6579  1091  06F3               	xorwf	___flge@ff1+3,f
  6580  1092  3080               	movlw	128
  6581  1093  06F7               	xorwf	___flge@ff2+3,f
  6582  1094  0877               	movf	___flge@ff2+3,w
  6583  1095  0273               	subwf	___flge@ff1+3,w
  6584  1096  1D03               	skipz
  6585  1097  28A2               	goto	u4765
  6586  1098  0876               	movf	___flge@ff2+2,w
  6587  1099  0272               	subwf	___flge@ff1+2,w
  6588  109A  1D03               	skipz
  6589  109B  28A2               	goto	u4765
  6590  109C  0875               	movf	___flge@ff2+1,w
  6591  109D  0271               	subwf	___flge@ff1+1,w
  6592  109E  1D03               	skipz
  6593  109F  28A2               	goto	u4765
  6594  10A0  0874               	movf	___flge@ff2,w
  6595  10A1  0270               	subwf	___flge@ff1,w
  6596  10A2                     u4765:	
  6597  10A2  1803               	skipnc
  6598  10A3  28A5               	goto	u4761
  6599  10A4  28A6               	goto	u4760
  6600  10A5                     u4761:	
  6601  10A5  28A8               	goto	l3658
  6602  10A6                     u4760:	
  6603  10A6                     l3656:	
  6604  10A6  1003               	clrc
  6605  10A7  28A9               	goto	l473
  6606  10A8                     l3658:	
  6607  10A8  1403               	setc
  6608  10A9                     l473:	
  6609  10A9  0008               	return
  6610  10AA                     __end_of___flge:	
  6611                           
  6612                           	psect	text25
  6613  141A                     __ptext25:	
  6614 ;; *************** function _eval_poly *****************
  6615 ;; Defined at:
  6616 ;;		line 4 in file "C:\Program Files (x86)\Microchip\xc8\v2.10\pic\sources\c90\common\evalpoly.c"
  6617 ;; Parameters:    Size  Location     Type
  6618 ;;  x               4    0[BANK1 ] PTR int 
  6619 ;;  d               1    4[BANK1 ] PTR const 
  6620 ;;		 -> log@coeff(36), exp@coeff(40), 
  6621 ;;  n               2    5[BANK1 ] int 
  6622 ;; Auto vars:     Size  Location     Type
  6623 ;;  res             4   12[BANK1 ] int 
  6624 ;; Return value:  Size  Location     Type
  6625 ;;                  4    0[BANK1 ] int 
  6626 ;; Registers used:
  6627 ;;		wreg, fsr0l, fsr0h, status,2, status,0, btemp+1, pclath, cstack
  6628 ;; Tracked objects:
  6629 ;;		On entry : 0/0
  6630 ;;		On exit  : 0/0
  6631 ;;		Unchanged: 0/0
  6632 ;; Data sizes:     COMMON   BANK0   BANK1   BANK3   BANK2
  6633 ;;      Params:         0       0       7       0       0
  6634 ;;      Locals:         0       0       4       0       0
  6635 ;;      Temps:          0       0       5       0       0
  6636 ;;      Totals:         0       0      16       0       0
  6637 ;;Total ram usage:       16 bytes
  6638 ;; Hardware stack levels used:    1
  6639 ;; Hardware stack levels required when called:    2
  6640 ;; This function calls:
  6641 ;;		___fladd
  6642 ;;		___flmul
  6643 ;; This function is called by:
  6644 ;;		_exp
  6645 ;;		_log
  6646 ;; This function uses a non-reentrant model
  6647 ;;
  6648                           
  6649                           
  6650                           ;psect for function _eval_poly
  6651  141A                     _eval_poly:	
  6652  141A                     l4280:	
  6653                           ;incstack = 0
  6654                           ; Regs used in _eval_poly: [wreg-fsr0h+status,2+status,0+btemp+1+pclath+cstack]
  6655                           
  6656  141A  1683               	bsf	3,5	;RP0=1, select bank1
  6657  141B  1303               	bcf	3,6	;RP1=0, select bank1
  6658  141C  0825               	movf	eval_poly@n^(0+128),w
  6659  141D  00A7               	movwf	??_eval_poly^(0+128)
  6660  141E  3001               	movlw	1
  6661  141F                     u6205:	
  6662  141F  1003               	clrc
  6663  1420  0DA7               	rlf	??_eval_poly^(0+128),f
  6664  1421  3EFF               	addlw	-1
  6665  1422  1D03               	skipz
  6666  1423  2C1F               	goto	u6205
  6667  1424  1003               	clrc
  6668  1425  0D27               	rlf	??_eval_poly^(0+128),w
  6669  1426  0724               	addwf	eval_poly@d^(0+128),w
  6670  1427  0084               	movwf	4
  6671  1428  160A  158A  200A  160A  118A  	fcall	stringdir
  6672  142D  00A8               	movwf	(??_eval_poly+1)^(0+128)
  6673  142E  160A  158A  200A  160A  118A  	fcall	stringdir
  6674  1433  00A9               	movwf	((??_eval_poly+1)^(0+128)+1)
  6675  1434  160A  158A  200A  160A  118A  	fcall	stringdir
  6676  1439  00AA               	movwf	((??_eval_poly+1)^(0+128)+2)
  6677  143A  160A  158A  200A  160A  118A  	fcall	stringdir
  6678  143F  00AB               	movwf	((??_eval_poly+1)^(0+128)+3)
  6679  1440  082B               	movf	(??_eval_poly+4)^(0+128),w
  6680  1441  00AF               	movwf	(eval_poly@res+3)^(0+128)
  6681  1442  082A               	movf	(??_eval_poly+3)^(0+128),w
  6682  1443  00AE               	movwf	(eval_poly@res+2)^(0+128)
  6683  1444  0829               	movf	(??_eval_poly+2)^(0+128),w
  6684  1445  00AD               	movwf	(eval_poly@res+1)^(0+128)
  6685  1446  0828               	movf	(??_eval_poly+1)^(0+128),w
  6686  1447  00AC               	movwf	eval_poly@res^(0+128)
  6687  1448  2CE5               	goto	l4284
  6688  1449                     l4282:	
  6689  1449  30FF               	movlw	255
  6690  144A  07A5               	addwf	eval_poly@n^(0+128),f
  6691  144B  1803               	skipnc
  6692  144C  0AA6               	incf	(eval_poly@n+1)^(0+128),f
  6693  144D  30FF               	movlw	255
  6694  144E  07A6               	addwf	(eval_poly@n+1)^(0+128),f
  6695  144F  0825               	movf	eval_poly@n^(0+128),w
  6696  1450  00A7               	movwf	??_eval_poly^(0+128)
  6697  1451  3001               	movlw	1
  6698  1452                     u6215:	
  6699  1452  1003               	clrc
  6700  1453  0DA7               	rlf	??_eval_poly^(0+128),f
  6701  1454  3EFF               	addlw	-1
  6702  1455  1D03               	skipz
  6703  1456  2C52               	goto	u6215
  6704  1457  1003               	clrc
  6705  1458  0D27               	rlf	??_eval_poly^(0+128),w
  6706  1459  0724               	addwf	eval_poly@d^(0+128),w
  6707  145A  0084               	movwf	4
  6708  145B  160A  158A  200A  160A  118A  	fcall	stringdir
  6709  1460  00A8               	movwf	(??_eval_poly+1)^(0+128)
  6710  1461  160A  158A  200A  160A  118A  	fcall	stringdir
  6711  1466  00A9               	movwf	((??_eval_poly+1)^(0+128)+1)
  6712  1467  160A  158A  200A  160A  118A  	fcall	stringdir
  6713  146C  00AA               	movwf	((??_eval_poly+1)^(0+128)+2)
  6714  146D  160A  158A  200A  160A  118A  	fcall	stringdir
  6715  1472  00AB               	movwf	((??_eval_poly+1)^(0+128)+3)
  6716  1473  082B               	movf	(??_eval_poly+4)^(0+128),w
  6717  1474  1283               	bcf	3,5	;RP0=0, select bank0
  6718  1475  1303               	bcf	3,6	;RP1=0, select bank0
  6719  1476  00DC               	movwf	___fladd@b+3
  6720  1477  1683               	bsf	3,5	;RP0=1, select bank1
  6721  1478  1303               	bcf	3,6	;RP1=0, select bank1
  6722  1479  082A               	movf	(??_eval_poly+3)^(0+128),w
  6723  147A  1283               	bcf	3,5	;RP0=0, select bank0
  6724  147B  1303               	bcf	3,6	;RP1=0, select bank0
  6725  147C  00DB               	movwf	___fladd@b+2
  6726  147D  1683               	bsf	3,5	;RP0=1, select bank1
  6727  147E  1303               	bcf	3,6	;RP1=0, select bank1
  6728  147F  0829               	movf	(??_eval_poly+2)^(0+128),w
  6729  1480  1283               	bcf	3,5	;RP0=0, select bank0
  6730  1481  1303               	bcf	3,6	;RP1=0, select bank0
  6731  1482  00DA               	movwf	___fladd@b+1
  6732  1483  1683               	bsf	3,5	;RP0=1, select bank1
  6733  1484  1303               	bcf	3,6	;RP1=0, select bank1
  6734  1485  0828               	movf	(??_eval_poly+1)^(0+128),w
  6735  1486  1283               	bcf	3,5	;RP0=0, select bank0
  6736  1487  1303               	bcf	3,6	;RP1=0, select bank0
  6737  1488  00D9               	movwf	___fladd@b
  6738  1489  1683               	bsf	3,5	;RP0=1, select bank1
  6739  148A  1303               	bcf	3,6	;RP1=0, select bank1
  6740  148B  082F               	movf	(eval_poly@res+3)^(0+128),w
  6741  148C  1283               	bcf	3,5	;RP0=0, select bank0
  6742  148D  1303               	bcf	3,6	;RP1=0, select bank0
  6743  148E  00C2               	movwf	___flmul@b+3
  6744  148F  1683               	bsf	3,5	;RP0=1, select bank1
  6745  1490  1303               	bcf	3,6	;RP1=0, select bank1
  6746  1491  082E               	movf	(eval_poly@res+2)^(0+128),w
  6747  1492  1283               	bcf	3,5	;RP0=0, select bank0
  6748  1493  1303               	bcf	3,6	;RP1=0, select bank0
  6749  1494  00C1               	movwf	___flmul@b+2
  6750  1495  1683               	bsf	3,5	;RP0=1, select bank1
  6751  1496  1303               	bcf	3,6	;RP1=0, select bank1
  6752  1497  082D               	movf	(eval_poly@res+1)^(0+128),w
  6753  1498  1283               	bcf	3,5	;RP0=0, select bank0
  6754  1499  1303               	bcf	3,6	;RP1=0, select bank0
  6755  149A  00C0               	movwf	___flmul@b+1
  6756  149B  1683               	bsf	3,5	;RP0=1, select bank1
  6757  149C  1303               	bcf	3,6	;RP1=0, select bank1
  6758  149D  082C               	movf	eval_poly@res^(0+128),w
  6759  149E  1283               	bcf	3,5	;RP0=0, select bank0
  6760  149F  1303               	bcf	3,6	;RP1=0, select bank0
  6761  14A0  00BF               	movwf	___flmul@b
  6762  14A1  1683               	bsf	3,5	;RP0=1, select bank1
  6763  14A2  1303               	bcf	3,6	;RP1=0, select bank1
  6764  14A3  0823               	movf	(eval_poly@x+3)^(0+128),w
  6765  14A4  1283               	bcf	3,5	;RP0=0, select bank0
  6766  14A5  1303               	bcf	3,6	;RP1=0, select bank0
  6767  14A6  00C6               	movwf	___flmul@a+3
  6768  14A7  1683               	bsf	3,5	;RP0=1, select bank1
  6769  14A8  1303               	bcf	3,6	;RP1=0, select bank1
  6770  14A9  0822               	movf	(eval_poly@x+2)^(0+128),w
  6771  14AA  1283               	bcf	3,5	;RP0=0, select bank0
  6772  14AB  1303               	bcf	3,6	;RP1=0, select bank0
  6773  14AC  00C5               	movwf	___flmul@a+2
  6774  14AD  1683               	bsf	3,5	;RP0=1, select bank1
  6775  14AE  1303               	bcf	3,6	;RP1=0, select bank1
  6776  14AF  0821               	movf	(eval_poly@x+1)^(0+128),w
  6777  14B0  1283               	bcf	3,5	;RP0=0, select bank0
  6778  14B1  1303               	bcf	3,6	;RP1=0, select bank0
  6779  14B2  00C4               	movwf	___flmul@a+1
  6780  14B3  1683               	bsf	3,5	;RP0=1, select bank1
  6781  14B4  1303               	bcf	3,6	;RP1=0, select bank1
  6782  14B5  0820               	movf	eval_poly@x^(0+128),w
  6783  14B6  1283               	bcf	3,5	;RP0=0, select bank0
  6784  14B7  1303               	bcf	3,6	;RP1=0, select bank0
  6785  14B8  00C3               	movwf	___flmul@a
  6786  14B9  120A  118A  248A  160A  118A  	fcall	___flmul
  6787  14BE  1283               	bcf	3,5	;RP0=0, select bank0
  6788  14BF  1303               	bcf	3,6	;RP1=0, select bank0
  6789  14C0  0842               	movf	?___flmul+3,w
  6790  14C1  00E0               	movwf	___fladd@a+3
  6791  14C2  0841               	movf	?___flmul+2,w
  6792  14C3  00DF               	movwf	___fladd@a+2
  6793  14C4  0840               	movf	?___flmul+1,w
  6794  14C5  00DE               	movwf	___fladd@a+1
  6795  14C6  083F               	movf	?___flmul,w
  6796  14C7  00DD               	movwf	___fladd@a
  6797  14C8  120A  158A  2578  160A  118A  	fcall	___fladd
  6798  14CD  1283               	bcf	3,5	;RP0=0, select bank0
  6799  14CE  1303               	bcf	3,6	;RP1=0, select bank0
  6800  14CF  085C               	movf	?___fladd+3,w
  6801  14D0  1683               	bsf	3,5	;RP0=1, select bank1
  6802  14D1  1303               	bcf	3,6	;RP1=0, select bank1
  6803  14D2  00AF               	movwf	(eval_poly@res+3)^(0+128)
  6804  14D3  1283               	bcf	3,5	;RP0=0, select bank0
  6805  14D4  1303               	bcf	3,6	;RP1=0, select bank0
  6806  14D5  085B               	movf	?___fladd+2,w
  6807  14D6  1683               	bsf	3,5	;RP0=1, select bank1
  6808  14D7  1303               	bcf	3,6	;RP1=0, select bank1
  6809  14D8  00AE               	movwf	(eval_poly@res+2)^(0+128)
  6810  14D9  1283               	bcf	3,5	;RP0=0, select bank0
  6811  14DA  1303               	bcf	3,6	;RP1=0, select bank0
  6812  14DB  085A               	movf	?___fladd+1,w
  6813  14DC  1683               	bsf	3,5	;RP0=1, select bank1
  6814  14DD  1303               	bcf	3,6	;RP1=0, select bank1
  6815  14DE  00AD               	movwf	(eval_poly@res+1)^(0+128)
  6816  14DF  1283               	bcf	3,5	;RP0=0, select bank0
  6817  14E0  1303               	bcf	3,6	;RP1=0, select bank0
  6818  14E1  0859               	movf	?___fladd,w
  6819  14E2  1683               	bsf	3,5	;RP0=1, select bank1
  6820  14E3  1303               	bcf	3,6	;RP1=0, select bank1
  6821  14E4  00AC               	movwf	eval_poly@res^(0+128)
  6822  14E5                     l4284:	
  6823  14E5  0825               	movf	eval_poly@n^(0+128),w
  6824  14E6  0426               	iorwf	(eval_poly@n+1)^(0+128),w
  6825  14E7  1D03               	btfss	3,2
  6826  14E8  2CEA               	goto	u6221
  6827  14E9  2CEB               	goto	u6220
  6828  14EA                     u6221:	
  6829  14EA  2C49               	goto	l4282
  6830  14EB                     u6220:	
  6831  14EB                     l4286:	
  6832  14EB  082F               	movf	(eval_poly@res+3)^(0+128),w
  6833  14EC  00A3               	movwf	(?_eval_poly+3)^(0+128)
  6834  14ED  082E               	movf	(eval_poly@res+2)^(0+128),w
  6835  14EE  00A2               	movwf	(?_eval_poly+2)^(0+128)
  6836  14EF  082D               	movf	(eval_poly@res+1)^(0+128),w
  6837  14F0  00A1               	movwf	(?_eval_poly+1)^(0+128)
  6838  14F1  082C               	movf	eval_poly@res^(0+128),w
  6839  14F2  00A0               	movwf	?_eval_poly^(0+128)
  6840  14F3                     l840:	
  6841  14F3  0008               	return
  6842  14F4                     __end_of_eval_poly:	
  6843                           
  6844                           	psect	text26
  6845  1BA8                     __ptext26:	
  6846 ;; *************** function ___flsub *****************
  6847 ;; Defined at:
  6848 ;;		line 242 in file "C:\Program Files (x86)\Microchip\xc8\v2.10\pic\sources\c90\common\sprcadd.c"
  6849 ;; Parameters:    Size  Location     Type
  6850 ;;  a               4    0[BANK1 ] int 
  6851 ;;  b               4    4[BANK1 ] int 
  6852 ;; Auto vars:     Size  Location     Type
  6853 ;;		None
  6854 ;; Return value:  Size  Location     Type
  6855 ;;                  4    0[BANK1 ] int 
  6856 ;; Registers used:
  6857 ;;		wreg, status,2, status,0, btemp+1, pclath, cstack
  6858 ;; Tracked objects:
  6859 ;;		On entry : 0/0
  6860 ;;		On exit  : 0/0
  6861 ;;		Unchanged: 0/0
  6862 ;; Data sizes:     COMMON   BANK0   BANK1   BANK3   BANK2
  6863 ;;      Params:         0       0       8       0       0
  6864 ;;      Locals:         0       0       0       0       0
  6865 ;;      Temps:          0       0       0       0       0
  6866 ;;      Totals:         0       0       8       0       0
  6867 ;;Total ram usage:        8 bytes
  6868 ;; Hardware stack levels used:    1
  6869 ;; Hardware stack levels required when called:    1
  6870 ;; This function calls:
  6871 ;;		___fladd
  6872 ;; This function is called by:
  6873 ;;		_ftoa2
  6874 ;;		_exp
  6875 ;; This function uses a non-reentrant model
  6876 ;;
  6877                           
  6878                           
  6879                           ;psect for function ___flsub
  6880  1BA8                     ___flsub:	
  6881  1BA8                     l4104:	
  6882                           ;incstack = 0
  6883                           ; Regs used in ___flsub: [wreg+status,2+status,0+btemp+1+pclath+cstack]
  6884                           
  6885  1BA8  3080               	movlw	128
  6886  1BA9  1683               	bsf	3,5	;RP0=1, select bank1
  6887  1BAA  1303               	bcf	3,6	;RP1=0, select bank1
  6888  1BAB  06A3               	xorwf	(___flsub@a+3)^(0+128),f
  6889  1BAC                     l4106:	
  6890  1BAC  0827               	movf	(___flsub@b+3)^(0+128),w
  6891  1BAD  1283               	bcf	3,5	;RP0=0, select bank0
  6892  1BAE  1303               	bcf	3,6	;RP1=0, select bank0
  6893  1BAF  00DC               	movwf	___fladd@b+3
  6894  1BB0  1683               	bsf	3,5	;RP0=1, select bank1
  6895  1BB1  1303               	bcf	3,6	;RP1=0, select bank1
  6896  1BB2  0826               	movf	(___flsub@b+2)^(0+128),w
  6897  1BB3  1283               	bcf	3,5	;RP0=0, select bank0
  6898  1BB4  1303               	bcf	3,6	;RP1=0, select bank0
  6899  1BB5  00DB               	movwf	___fladd@b+2
  6900  1BB6  1683               	bsf	3,5	;RP0=1, select bank1
  6901  1BB7  1303               	bcf	3,6	;RP1=0, select bank1
  6902  1BB8  0825               	movf	(___flsub@b+1)^(0+128),w
  6903  1BB9  1283               	bcf	3,5	;RP0=0, select bank0
  6904  1BBA  1303               	bcf	3,6	;RP1=0, select bank0
  6905  1BBB  00DA               	movwf	___fladd@b+1
  6906  1BBC  1683               	bsf	3,5	;RP0=1, select bank1
  6907  1BBD  1303               	bcf	3,6	;RP1=0, select bank1
  6908  1BBE  0824               	movf	___flsub@b^(0+128),w
  6909  1BBF  1283               	bcf	3,5	;RP0=0, select bank0
  6910  1BC0  1303               	bcf	3,6	;RP1=0, select bank0
  6911  1BC1  00D9               	movwf	___fladd@b
  6912  1BC2  1683               	bsf	3,5	;RP0=1, select bank1
  6913  1BC3  1303               	bcf	3,6	;RP1=0, select bank1
  6914  1BC4  0823               	movf	(___flsub@a+3)^(0+128),w
  6915  1BC5  1283               	bcf	3,5	;RP0=0, select bank0
  6916  1BC6  1303               	bcf	3,6	;RP1=0, select bank0
  6917  1BC7  00E0               	movwf	___fladd@a+3
  6918  1BC8  1683               	bsf	3,5	;RP0=1, select bank1
  6919  1BC9  1303               	bcf	3,6	;RP1=0, select bank1
  6920  1BCA  0822               	movf	(___flsub@a+2)^(0+128),w
  6921  1BCB  1283               	bcf	3,5	;RP0=0, select bank0
  6922  1BCC  1303               	bcf	3,6	;RP1=0, select bank0
  6923  1BCD  00DF               	movwf	___fladd@a+2
  6924  1BCE  1683               	bsf	3,5	;RP0=1, select bank1
  6925  1BCF  1303               	bcf	3,6	;RP1=0, select bank1
  6926  1BD0  0821               	movf	(___flsub@a+1)^(0+128),w
  6927  1BD1  1283               	bcf	3,5	;RP0=0, select bank0
  6928  1BD2  1303               	bcf	3,6	;RP1=0, select bank0
  6929  1BD3  00DE               	movwf	___fladd@a+1
  6930  1BD4  1683               	bsf	3,5	;RP0=1, select bank1
  6931  1BD5  1303               	bcf	3,6	;RP1=0, select bank1
  6932  1BD6  0820               	movf	___flsub@a^(0+128),w
  6933  1BD7  1283               	bcf	3,5	;RP0=0, select bank0
  6934  1BD8  1303               	bcf	3,6	;RP1=0, select bank0
  6935  1BD9  00DD               	movwf	___fladd@a
  6936  1BDA  120A  158A  2578  160A  158A  	fcall	___fladd
  6937  1BDF  1283               	bcf	3,5	;RP0=0, select bank0
  6938  1BE0  1303               	bcf	3,6	;RP1=0, select bank0
  6939  1BE1  085C               	movf	?___fladd+3,w
  6940  1BE2  1683               	bsf	3,5	;RP0=1, select bank1
  6941  1BE3  1303               	bcf	3,6	;RP1=0, select bank1
  6942  1BE4  00A3               	movwf	(?___flsub+3)^(0+128)
  6943  1BE5  1283               	bcf	3,5	;RP0=0, select bank0
  6944  1BE6  1303               	bcf	3,6	;RP1=0, select bank0
  6945  1BE7  085B               	movf	?___fladd+2,w
  6946  1BE8  1683               	bsf	3,5	;RP0=1, select bank1
  6947  1BE9  1303               	bcf	3,6	;RP1=0, select bank1
  6948  1BEA  00A2               	movwf	(?___flsub+2)^(0+128)
  6949  1BEB  1283               	bcf	3,5	;RP0=0, select bank0
  6950  1BEC  1303               	bcf	3,6	;RP1=0, select bank0
  6951  1BED  085A               	movf	?___fladd+1,w
  6952  1BEE  1683               	bsf	3,5	;RP0=1, select bank1
  6953  1BEF  1303               	bcf	3,6	;RP1=0, select bank1
  6954  1BF0  00A1               	movwf	(?___flsub+1)^(0+128)
  6955  1BF1  1283               	bcf	3,5	;RP0=0, select bank0
  6956  1BF2  1303               	bcf	3,6	;RP1=0, select bank0
  6957  1BF3  0859               	movf	?___fladd,w
  6958  1BF4  1683               	bsf	3,5	;RP0=1, select bank1
  6959  1BF5  1303               	bcf	3,6	;RP1=0, select bank1
  6960  1BF6  00A0               	movwf	?___flsub^(0+128)
  6961  1BF7                     l634:	
  6962  1BF7  0008               	return
  6963  1BF8                     __end_of___flsub:	
  6964                           
  6965                           	psect	text27
  6966  0D78                     __ptext27:	
  6967 ;; *************** function ___fladd *****************
  6968 ;; Defined at:
  6969 ;;		line 10 in file "C:\Program Files (x86)\Microchip\xc8\v2.10\pic\sources\c90\common\sprcadd.c"
  6970 ;; Parameters:    Size  Location     Type
  6971 ;;  b               4   57[BANK0 ] int 
  6972 ;;  a               4   61[BANK0 ] int 
  6973 ;; Auto vars:     Size  Location     Type
  6974 ;;  grs             1   76[BANK0 ] unsigned char 
  6975 ;;  bexp            1   75[BANK0 ] unsigned char 
  6976 ;;  aexp            1   74[BANK0 ] unsigned char 
  6977 ;;  signs           1   73[BANK0 ] unsigned char 
  6978 ;; Return value:  Size  Location     Type
  6979 ;;                  4   57[BANK0 ] unsigned char 
  6980 ;; Registers used:
  6981 ;;		wreg, status,2, status,0, btemp+1
  6982 ;; Tracked objects:
  6983 ;;		On entry : 0/0
  6984 ;;		On exit  : 0/0
  6985 ;;		Unchanged: 0/0
  6986 ;; Data sizes:     COMMON   BANK0   BANK1   BANK3   BANK2
  6987 ;;      Params:         0       8       0       0       0
  6988 ;;      Locals:         0       4       0       0       0
  6989 ;;      Temps:          0       8       0       0       0
  6990 ;;      Totals:         0      20       0       0       0
  6991 ;;Total ram usage:       20 bytes
  6992 ;; Hardware stack levels used:    1
  6993 ;; This function calls:
  6994 ;;		Nothing
  6995 ;; This function is called by:
  6996 ;;		___flsub
  6997 ;;		_floor
  6998 ;;		_log
  6999 ;;		_eval_poly
  7000 ;; This function uses a non-reentrant model
  7001 ;;
  7002                           
  7003                           
  7004                           ;psect for function ___fladd
  7005  0D78                     ___fladd:	
  7006  0D78                     l3698:	
  7007                           ;incstack = 0
  7008                           ; Regs used in ___fladd: [wreg+status,2+status,0+btemp+1]
  7009                           
  7010  0D78  1283               	bcf	3,5	;RP0=0, select bank0
  7011  0D79  1303               	bcf	3,6	;RP1=0, select bank0
  7012  0D7A  085C               	movf	___fladd@b+3,w
  7013  0D7B  3980               	andlw	128
  7014  0D7C  00E1               	movwf	??___fladd
  7015  0D7D  0861               	movf	??___fladd,w
  7016  0D7E  00E9               	movwf	___fladd@signs
  7017  0D7F                     l3700:	
  7018  0D7F  085C               	movf	___fladd@b+3,w
  7019  0D80  00E1               	movwf	??___fladd
  7020  0D81  0761               	addwf	??___fladd,w
  7021  0D82  00E2               	movwf	??___fladd+1
  7022  0D83  0862               	movf	??___fladd+1,w
  7023  0D84  00EB               	movwf	___fladd@bexp
  7024  0D85                     l3702:	
  7025  0D85  1FDB               	btfss	___fladd@b+2,7
  7026  0D86  2D88               	goto	u4871
  7027  0D87  2D89               	goto	u4870
  7028  0D88                     u4871:	
  7029  0D88  2D8A               	goto	l3706
  7030  0D89                     u4870:	
  7031  0D89                     l3704:	
  7032  0D89  146B               	bsf	___fladd@bexp,0
  7033  0D8A                     l3706:	
  7034  0D8A  086B               	movf	___fladd@bexp,w
  7035  0D8B  1903               	btfsc	3,2
  7036  0D8C  2D8E               	goto	u4881
  7037  0D8D  2D8F               	goto	u4880
  7038  0D8E                     u4881:	
  7039  0D8E  2D9F               	goto	l3716
  7040  0D8F                     u4880:	
  7041  0D8F                     l3708:	
  7042  0D8F  0A6B               	incf	___fladd@bexp,w
  7043  0D90  1D03               	btfss	3,2
  7044  0D91  2D93               	goto	u4891
  7045  0D92  2D94               	goto	u4890
  7046  0D93                     u4891:	
  7047  0D93  2D9C               	goto	l3712
  7048  0D94                     u4890:	
  7049  0D94                     l3710:	
  7050  0D94  3000               	movlw	0
  7051  0D95  00DC               	movwf	___fladd@b+3
  7052  0D96  3000               	movlw	0
  7053  0D97  00DB               	movwf	___fladd@b+2
  7054  0D98  3000               	movlw	0
  7055  0D99  00DA               	movwf	___fladd@b+1
  7056  0D9A  3000               	movlw	0
  7057  0D9B  00D9               	movwf	___fladd@b
  7058  0D9C                     l3712:	
  7059  0D9C  17DB               	bsf	___fladd@b+2,7
  7060  0D9D                     l3714:	
  7061  0D9D  01DC               	clrf	___fladd@b+3
  7062  0D9E  2DA7               	goto	l3718
  7063  0D9F                     l3716:	
  7064  0D9F  3000               	movlw	0
  7065  0DA0  00DC               	movwf	___fladd@b+3
  7066  0DA1  3000               	movlw	0
  7067  0DA2  00DB               	movwf	___fladd@b+2
  7068  0DA3  3000               	movlw	0
  7069  0DA4  00DA               	movwf	___fladd@b+1
  7070  0DA5  3000               	movlw	0
  7071  0DA6  00D9               	movwf	___fladd@b
  7072  0DA7                     l3718:	
  7073  0DA7  0860               	movf	___fladd@a+3,w
  7074  0DA8  3980               	andlw	128
  7075  0DA9  00E1               	movwf	??___fladd
  7076  0DAA  0861               	movf	??___fladd,w
  7077  0DAB  00EA               	movwf	___fladd@aexp
  7078  0DAC                     l3720:	
  7079  0DAC  086A               	movf	___fladd@aexp,w
  7080  0DAD  0669               	xorwf	___fladd@signs,w
  7081  0DAE  1903               	skipnz
  7082  0DAF  2DB1               	goto	u4901
  7083  0DB0  2DB2               	goto	u4900
  7084  0DB1                     u4901:	
  7085  0DB1  2DB3               	goto	l3724
  7086  0DB2                     u4900:	
  7087  0DB2                     l3722:	
  7088  0DB2  1769               	bsf	___fladd@signs,6
  7089  0DB3                     l3724:	
  7090  0DB3  0860               	movf	___fladd@a+3,w
  7091  0DB4  00E1               	movwf	??___fladd
  7092  0DB5  0761               	addwf	??___fladd,w
  7093  0DB6  00E2               	movwf	??___fladd+1
  7094  0DB7  0862               	movf	??___fladd+1,w
  7095  0DB8  00EA               	movwf	___fladd@aexp
  7096  0DB9                     l3726:	
  7097  0DB9  1FDF               	btfss	___fladd@a+2,7
  7098  0DBA  2DBC               	goto	u4911
  7099  0DBB  2DBD               	goto	u4910
  7100  0DBC                     u4911:	
  7101  0DBC  2DBE               	goto	l3730
  7102  0DBD                     u4910:	
  7103  0DBD                     l3728:	
  7104  0DBD  146A               	bsf	___fladd@aexp,0
  7105  0DBE                     l3730:	
  7106  0DBE  086A               	movf	___fladd@aexp,w
  7107  0DBF  1903               	btfsc	3,2
  7108  0DC0  2DC2               	goto	u4921
  7109  0DC1  2DC3               	goto	u4920
  7110  0DC2                     u4921:	
  7111  0DC2  2DD3               	goto	l3740
  7112  0DC3                     u4920:	
  7113  0DC3                     l3732:	
  7114  0DC3  0A6A               	incf	___fladd@aexp,w
  7115  0DC4  1D03               	btfss	3,2
  7116  0DC5  2DC7               	goto	u4931
  7117  0DC6  2DC8               	goto	u4930
  7118  0DC7                     u4931:	
  7119  0DC7  2DD0               	goto	l3736
  7120  0DC8                     u4930:	
  7121  0DC8                     l3734:	
  7122  0DC8  3000               	movlw	0
  7123  0DC9  00E0               	movwf	___fladd@a+3
  7124  0DCA  3000               	movlw	0
  7125  0DCB  00DF               	movwf	___fladd@a+2
  7126  0DCC  3000               	movlw	0
  7127  0DCD  00DE               	movwf	___fladd@a+1
  7128  0DCE  3000               	movlw	0
  7129  0DCF  00DD               	movwf	___fladd@a
  7130  0DD0                     l3736:	
  7131  0DD0  17DF               	bsf	___fladd@a+2,7
  7132  0DD1                     l3738:	
  7133  0DD1  01E0               	clrf	___fladd@a+3
  7134  0DD2  2DDB               	goto	l588
  7135  0DD3                     l3740:	
  7136  0DD3  3000               	movlw	0
  7137  0DD4  00E0               	movwf	___fladd@a+3
  7138  0DD5  3000               	movlw	0
  7139  0DD6  00DF               	movwf	___fladd@a+2
  7140  0DD7  3000               	movlw	0
  7141  0DD8  00DE               	movwf	___fladd@a+1
  7142  0DD9  3000               	movlw	0
  7143  0DDA  00DD               	movwf	___fladd@a
  7144  0DDB                     l588:	
  7145  0DDB  086B               	movf	___fladd@bexp,w
  7146  0DDC  026A               	subwf	___fladd@aexp,w
  7147  0DDD  1803               	skipnc
  7148  0DDE  2DE0               	goto	u4941
  7149  0DDF  2DE1               	goto	u4940
  7150  0DE0                     u4941:	
  7151  0DE0  2E25               	goto	l3776
  7152  0DE1                     u4940:	
  7153  0DE1                     l3742:	
  7154  0DE1  1F69               	btfss	___fladd@signs,6
  7155  0DE2  2DE4               	goto	u4951
  7156  0DE3  2DE5               	goto	u4950
  7157  0DE4                     u4951:	
  7158  0DE4  2DE9               	goto	l3746
  7159  0DE5                     u4950:	
  7160  0DE5                     l3744:	
  7161  0DE5  3080               	movlw	128
  7162  0DE6  00E1               	movwf	??___fladd
  7163  0DE7  0861               	movf	??___fladd,w
  7164  0DE8  06E9               	xorwf	___fladd@signs,f
  7165  0DE9                     l3746:	
  7166  0DE9  086B               	movf	___fladd@bexp,w
  7167  0DEA  00E1               	movwf	??___fladd
  7168  0DEB  0861               	movf	??___fladd,w
  7169  0DEC  00EC               	movwf	___fladd@grs
  7170  0DED                     l3748:	
  7171  0DED  086A               	movf	___fladd@aexp,w
  7172  0DEE  00E1               	movwf	??___fladd
  7173  0DEF  0861               	movf	??___fladd,w
  7174  0DF0  00EB               	movwf	___fladd@bexp
  7175  0DF1                     l3750:	
  7176  0DF1  086C               	movf	___fladd@grs,w
  7177  0DF2  00E1               	movwf	??___fladd
  7178  0DF3  0861               	movf	??___fladd,w
  7179  0DF4  00EA               	movwf	___fladd@aexp
  7180  0DF5                     l3752:	
  7181  0DF5  0859               	movf	___fladd@b,w
  7182  0DF6  00E1               	movwf	??___fladd
  7183  0DF7  0861               	movf	??___fladd,w
  7184  0DF8  00EC               	movwf	___fladd@grs
  7185  0DF9                     l3754:	
  7186  0DF9  085D               	movf	___fladd@a,w
  7187  0DFA  00E1               	movwf	??___fladd
  7188  0DFB  0861               	movf	??___fladd,w
  7189  0DFC  00D9               	movwf	___fladd@b
  7190  0DFD                     l3756:	
  7191  0DFD  086C               	movf	___fladd@grs,w
  7192  0DFE  00E1               	movwf	??___fladd
  7193  0DFF  0861               	movf	??___fladd,w
  7194  0E00  00DD               	movwf	___fladd@a
  7195  0E01                     l3758:	
  7196  0E01  085A               	movf	___fladd@b+1,w
  7197  0E02  00E1               	movwf	??___fladd
  7198  0E03  0861               	movf	??___fladd,w
  7199  0E04  00EC               	movwf	___fladd@grs
  7200  0E05                     l3760:	
  7201  0E05  085E               	movf	___fladd@a+1,w
  7202  0E06  00E1               	movwf	??___fladd
  7203  0E07  0861               	movf	??___fladd,w
  7204  0E08  00DA               	movwf	___fladd@b+1
  7205  0E09                     l3762:	
  7206  0E09  086C               	movf	___fladd@grs,w
  7207  0E0A  00E1               	movwf	??___fladd
  7208  0E0B  0861               	movf	??___fladd,w
  7209  0E0C  00DE               	movwf	___fladd@a+1
  7210  0E0D                     l3764:	
  7211  0E0D  085B               	movf	___fladd@b+2,w
  7212  0E0E  00E1               	movwf	??___fladd
  7213  0E0F  0861               	movf	??___fladd,w
  7214  0E10  00EC               	movwf	___fladd@grs
  7215  0E11                     l3766:	
  7216  0E11  085F               	movf	___fladd@a+2,w
  7217  0E12  00E1               	movwf	??___fladd
  7218  0E13  0861               	movf	??___fladd,w
  7219  0E14  00DB               	movwf	___fladd@b+2
  7220  0E15                     l3768:	
  7221  0E15  086C               	movf	___fladd@grs,w
  7222  0E16  00E1               	movwf	??___fladd
  7223  0E17  0861               	movf	??___fladd,w
  7224  0E18  00DF               	movwf	___fladd@a+2
  7225  0E19                     l3770:	
  7226  0E19  085C               	movf	___fladd@b+3,w
  7227  0E1A  00E1               	movwf	??___fladd
  7228  0E1B  0861               	movf	??___fladd,w
  7229  0E1C  00EC               	movwf	___fladd@grs
  7230  0E1D                     l3772:	
  7231  0E1D  0860               	movf	___fladd@a+3,w
  7232  0E1E  00E1               	movwf	??___fladd
  7233  0E1F  0861               	movf	??___fladd,w
  7234  0E20  00DC               	movwf	___fladd@b+3
  7235  0E21                     l3774:	
  7236  0E21  086C               	movf	___fladd@grs,w
  7237  0E22  00E1               	movwf	??___fladd
  7238  0E23  0861               	movf	??___fladd,w
  7239  0E24  00E0               	movwf	___fladd@a+3
  7240  0E25                     l3776:	
  7241  0E25  01EC               	clrf	___fladd@grs
  7242  0E26                     l3778:	
  7243  0E26  086A               	movf	___fladd@aexp,w
  7244  0E27  00E1               	movwf	??___fladd
  7245  0E28  01E2               	clrf	??___fladd+1
  7246  0E29  0862               	movf	??___fladd+1,w
  7247  0E2A  00E4               	movwf	??___fladd+3
  7248  0E2B  086B               	movf	___fladd@bexp,w
  7249  0E2C  0261               	subwf	??___fladd,w
  7250  0E2D  00E3               	movwf	??___fladd+2
  7251  0E2E  1C03               	skipc
  7252  0E2F  03E4               	decf	??___fladd+3,f
  7253  0E30  0864               	movf	??___fladd+3,w
  7254  0E31  3A80               	xorlw	128
  7255  0E32  00FF               	movwf	btemp+1
  7256  0E33  3080               	movlw	128
  7257  0E34  027F               	subwf	btemp+1,w
  7258  0E35  1D03               	skipz
  7259  0E36  2E39               	goto	u4965
  7260  0E37  301A               	movlw	26
  7261  0E38  0263               	subwf	??___fladd+2,w
  7262  0E39                     u4965:	
  7263  0E39  1C03               	skipc
  7264  0E3A  2E3C               	goto	u4961
  7265  0E3B  2E3D               	goto	u4960
  7266  0E3C                     u4961:	
  7267  0E3C  2E7A               	goto	l3794
  7268  0E3D                     u4960:	
  7269  0E3D                     l3780:	
  7270  0E3D  1283               	bcf	3,5	;RP0=0, select bank0
  7271  0E3E  1303               	bcf	3,6	;RP1=0, select bank0
  7272  0E3F  085C               	movf	___fladd@b+3,w
  7273  0E40  045B               	iorwf	___fladd@b+2,w
  7274  0E41  045A               	iorwf	___fladd@b+1,w
  7275  0E42  0459               	iorwf	___fladd@b,w
  7276  0E43  1D03               	skipz
  7277  0E44  2E46               	goto	u4971
  7278  0E45  2E48               	goto	u4970
  7279  0E46                     u4971:	
  7280  0E46  3001               	movlw	1
  7281  0E47  2E49               	goto	u4980
  7282  0E48                     u4970:	
  7283  0E48  3000               	movlw	0
  7284  0E49                     u4980:	
  7285  0E49  00E1               	movwf	??___fladd
  7286  0E4A  0861               	movf	??___fladd,w
  7287  0E4B  00EC               	movwf	___fladd@grs
  7288  0E4C  3000               	movlw	0
  7289  0E4D  00DC               	movwf	___fladd@b+3
  7290  0E4E  3000               	movlw	0
  7291  0E4F  00DB               	movwf	___fladd@b+2
  7292  0E50  3000               	movlw	0
  7293  0E51  00DA               	movwf	___fladd@b+1
  7294  0E52  3000               	movlw	0
  7295  0E53  00D9               	movwf	___fladd@b
  7296  0E54  086A               	movf	___fladd@aexp,w
  7297  0E55  00E1               	movwf	??___fladd
  7298  0E56  0861               	movf	??___fladd,w
  7299  0E57  00EB               	movwf	___fladd@bexp
  7300  0E58  2E82               	goto	l592
  7301  0E59                     l594:	
  7302  0E59  1C6C               	btfss	___fladd@grs,0
  7303  0E5A  2E5C               	goto	u4991
  7304  0E5B  2E5D               	goto	u4990
  7305  0E5C                     u4991:	
  7306  0E5C  2E66               	goto	l3784
  7307  0E5D                     u4990:	
  7308  0E5D                     l3782:	
  7309  0E5D  086C               	movf	___fladd@grs,w
  7310  0E5E  00E1               	movwf	??___fladd
  7311  0E5F  1003               	clrc
  7312  0E60  0C61               	rrf	??___fladd,w
  7313  0E61  3801               	iorlw	1
  7314  0E62  00E2               	movwf	??___fladd+1
  7315  0E63  0862               	movf	??___fladd+1,w
  7316  0E64  00EC               	movwf	___fladd@grs
  7317  0E65  2E68               	goto	l3786
  7318  0E66                     l3784:	
  7319  0E66  1003               	clrc
  7320  0E67  0CEC               	rrf	___fladd@grs,f
  7321  0E68                     l3786:	
  7322  0E68  1C59               	btfss	___fladd@b,0
  7323  0E69  2E6B               	goto	u5001
  7324  0E6A  2E6C               	goto	u5000
  7325  0E6B                     u5001:	
  7326  0E6B  2E6D               	goto	l3790
  7327  0E6C                     u5000:	
  7328  0E6C                     l3788:	
  7329  0E6C  17EC               	bsf	___fladd@grs,7
  7330  0E6D                     l3790:	
  7331  0E6D  3001               	movlw	1
  7332  0E6E  00E1               	movwf	??___fladd
  7333  0E6F                     u5015:	
  7334  0E6F  0D5C               	rlf	___fladd@b+3,w
  7335  0E70  0CDC               	rrf	___fladd@b+3,f
  7336  0E71  0CDB               	rrf	___fladd@b+2,f
  7337  0E72  0CDA               	rrf	___fladd@b+1,f
  7338  0E73  0CD9               	rrf	___fladd@b,f
  7339  0E74  0BE1               	decfsz	??___fladd& (0+127),f
  7340  0E75  2E6F               	goto	u5015
  7341  0E76                     l3792:	
  7342  0E76  3001               	movlw	1
  7343  0E77  00E1               	movwf	??___fladd
  7344  0E78  0861               	movf	??___fladd,w
  7345  0E79  07EB               	addwf	___fladd@bexp,f
  7346  0E7A                     l3794:	
  7347  0E7A  1283               	bcf	3,5	;RP0=0, select bank0
  7348  0E7B  1303               	bcf	3,6	;RP1=0, select bank0
  7349  0E7C  086A               	movf	___fladd@aexp,w
  7350  0E7D  026B               	subwf	___fladd@bexp,w
  7351  0E7E  1C03               	skipc
  7352  0E7F  2E81               	goto	u5021
  7353  0E80  2E82               	goto	u5020
  7354  0E81                     u5021:	
  7355  0E81  2E59               	goto	l594
  7356  0E82                     u5020:	
  7357  0E82                     l592:	
  7358  0E82  1B69               	btfsc	___fladd@signs,6
  7359  0E83  2E85               	goto	u5031
  7360  0E84  2E86               	goto	u5030
  7361  0E85                     u5031:	
  7362  0E85  2ED1               	goto	l3820
  7363  0E86                     u5030:	
  7364  0E86                     l3796:	
  7365  0E86  086B               	movf	___fladd@bexp,w
  7366  0E87  1D03               	btfss	3,2
  7367  0E88  2E8A               	goto	u5041
  7368  0E89  2E8B               	goto	u5040
  7369  0E8A                     u5041:	
  7370  0E8A  2E94               	goto	l3802
  7371  0E8B                     u5040:	
  7372  0E8B                     l3798:	
  7373  0E8B  3000               	movlw	0
  7374  0E8C  00DC               	movwf	?___fladd+3
  7375  0E8D  3000               	movlw	0
  7376  0E8E  00DB               	movwf	?___fladd+2
  7377  0E8F  3000               	movlw	0
  7378  0E90  00DA               	movwf	?___fladd+1
  7379  0E91  3000               	movlw	0
  7380  0E92  00D9               	movwf	?___fladd
  7381  0E93  2FFF               	goto	l601
  7382  0E94                     l3802:	
  7383  0E94  085D               	movf	___fladd@a,w
  7384  0E95  07D9               	addwf	___fladd@b,f
  7385  0E96  085E               	movf	___fladd@a+1,w
  7386  0E97  1103               	clrz
  7387  0E98  1803               	skipnc
  7388  0E99  3E01               	addlw	1
  7389  0E9A  1903               	skipnz
  7390  0E9B  2E9D               	goto	u5051
  7391  0E9C  07DA               	addwf	___fladd@b+1,f
  7392  0E9D                     u5051:	
  7393  0E9D  085F               	movf	___fladd@a+2,w
  7394  0E9E  1103               	clrz
  7395  0E9F  1803               	skipnc
  7396  0EA0  3E01               	addlw	1
  7397  0EA1  1903               	skipnz
  7398  0EA2  2EA4               	goto	u5052
  7399  0EA3  07DB               	addwf	___fladd@b+2,f
  7400  0EA4                     u5052:	
  7401  0EA4  0860               	movf	___fladd@a+3,w
  7402  0EA5  1103               	clrz
  7403  0EA6  1803               	skipnc
  7404  0EA7  3E01               	addlw	1
  7405  0EA8  1903               	skipnz
  7406  0EA9  2EAB               	goto	u5053
  7407  0EAA  07DC               	addwf	___fladd@b+3,f
  7408  0EAB                     u5053:	
  7409  0EAB                     l3804:	
  7410  0EAB  1C5C               	btfss	___fladd@b+3,0
  7411  0EAC  2EAE               	goto	u5061
  7412  0EAD  2EAF               	goto	u5060
  7413  0EAE                     u5061:	
  7414  0EAE  2F85               	goto	l3854
  7415  0EAF                     u5060:	
  7416  0EAF                     l3806:	
  7417  0EAF  1C6C               	btfss	___fladd@grs,0
  7418  0EB0  2EB2               	goto	u5071
  7419  0EB1  2EB3               	goto	u5070
  7420  0EB2                     u5071:	
  7421  0EB2  2EBC               	goto	l3810
  7422  0EB3                     u5070:	
  7423  0EB3                     l3808:	
  7424  0EB3  086C               	movf	___fladd@grs,w
  7425  0EB4  00E1               	movwf	??___fladd
  7426  0EB5  1003               	clrc
  7427  0EB6  0C61               	rrf	??___fladd,w
  7428  0EB7  3801               	iorlw	1
  7429  0EB8  00E2               	movwf	??___fladd+1
  7430  0EB9  0862               	movf	??___fladd+1,w
  7431  0EBA  00EC               	movwf	___fladd@grs
  7432  0EBB  2EBE               	goto	l3812
  7433  0EBC                     l3810:	
  7434  0EBC  1003               	clrc
  7435  0EBD  0CEC               	rrf	___fladd@grs,f
  7436  0EBE                     l3812:	
  7437  0EBE  1C59               	btfss	___fladd@b,0
  7438  0EBF  2EC1               	goto	u5081
  7439  0EC0  2EC2               	goto	u5080
  7440  0EC1                     u5081:	
  7441  0EC1  2EC3               	goto	l3816
  7442  0EC2                     u5080:	
  7443  0EC2                     l3814:	
  7444  0EC2  17EC               	bsf	___fladd@grs,7
  7445  0EC3                     l3816:	
  7446  0EC3  3001               	movlw	1
  7447  0EC4  00E1               	movwf	??___fladd
  7448  0EC5                     u5095:	
  7449  0EC5  0D5C               	rlf	___fladd@b+3,w
  7450  0EC6  0CDC               	rrf	___fladd@b+3,f
  7451  0EC7  0CDB               	rrf	___fladd@b+2,f
  7452  0EC8  0CDA               	rrf	___fladd@b+1,f
  7453  0EC9  0CD9               	rrf	___fladd@b,f
  7454  0ECA  0BE1               	decfsz	??___fladd& (0+127),f
  7455  0ECB  2EC5               	goto	u5095
  7456  0ECC                     l3818:	
  7457  0ECC  3001               	movlw	1
  7458  0ECD  00E1               	movwf	??___fladd
  7459  0ECE  0861               	movf	??___fladd,w
  7460  0ECF  07EB               	addwf	___fladd@bexp,f
  7461  0ED0  2F85               	goto	l3854
  7462  0ED1                     l3820:	
  7463  0ED1  085C               	movf	___fladd@b+3,w
  7464  0ED2  3A80               	xorlw	128
  7465  0ED3  00FF               	movwf	btemp+1
  7466  0ED4  0860               	movf	___fladd@a+3,w
  7467  0ED5  3A80               	xorlw	128
  7468  0ED6  027F               	subwf	btemp+1,w
  7469  0ED7  1D03               	skipz
  7470  0ED8  2EE3               	goto	u5103
  7471  0ED9  085F               	movf	___fladd@a+2,w
  7472  0EDA  025B               	subwf	___fladd@b+2,w
  7473  0EDB  1D03               	skipz
  7474  0EDC  2EE3               	goto	u5103
  7475  0EDD  085E               	movf	___fladd@a+1,w
  7476  0EDE  025A               	subwf	___fladd@b+1,w
  7477  0EDF  1D03               	skipz
  7478  0EE0  2EE3               	goto	u5103
  7479  0EE1  085D               	movf	___fladd@a,w
  7480  0EE2  0259               	subwf	___fladd@b,w
  7481  0EE3                     u5103:	
  7482  0EE3  1803               	skipnc
  7483  0EE4  2EE6               	goto	u5101
  7484  0EE5  2EE7               	goto	u5100
  7485  0EE6                     u5101:	
  7486  0EE6  2F3F               	goto	l3830
  7487  0EE7                     u5100:	
  7488  0EE7                     l3822:	
  7489  0EE7  30FF               	movlw	255
  7490  0EE8  00E1               	movwf	??___fladd
  7491  0EE9  30FF               	movlw	255
  7492  0EEA  00E2               	movwf	??___fladd+1
  7493  0EEB  30FF               	movlw	255
  7494  0EEC  00E3               	movwf	??___fladd+2
  7495  0EED  30FF               	movlw	255
  7496  0EEE  00E4               	movwf	??___fladd+3
  7497  0EEF  085D               	movf	___fladd@a,w
  7498  0EF0  00E5               	movwf	??___fladd+4
  7499  0EF1  085E               	movf	___fladd@a+1,w
  7500  0EF2  00E6               	movwf	??___fladd+5
  7501  0EF3  085F               	movf	___fladd@a+2,w
  7502  0EF4  00E7               	movwf	??___fladd+6
  7503  0EF5  0860               	movf	___fladd@a+3,w
  7504  0EF6  00E8               	movwf	??___fladd+7
  7505  0EF7  0859               	movf	___fladd@b,w
  7506  0EF8  02E5               	subwf	??___fladd+4,f
  7507  0EF9  085A               	movf	___fladd@b+1,w
  7508  0EFA  1C03               	skipc
  7509  0EFB  0F5A               	incfsz	___fladd@b+1,w
  7510  0EFC  2EFE               	goto	u5111
  7511  0EFD  2EFF               	goto	u5112
  7512  0EFE                     u5111:	
  7513  0EFE  02E6               	subwf	??___fladd+5,f
  7514  0EFF                     u5112:	
  7515  0EFF  085B               	movf	___fladd@b+2,w
  7516  0F00  1C03               	skipc
  7517  0F01  0F5B               	incfsz	___fladd@b+2,w
  7518  0F02  2F04               	goto	u5113
  7519  0F03  2F05               	goto	u5114
  7520  0F04                     u5113:	
  7521  0F04  02E7               	subwf	??___fladd+6,f
  7522  0F05                     u5114:	
  7523  0F05  085C               	movf	___fladd@b+3,w
  7524  0F06  1C03               	skipc
  7525  0F07  0F5C               	incfsz	___fladd@b+3,w
  7526  0F08  2F0A               	goto	u5115
  7527  0F09  2F0B               	goto	u5116
  7528  0F0A                     u5115:	
  7529  0F0A  02E8               	subwf	??___fladd+7,f
  7530  0F0B                     u5116:	
  7531  0F0B  0865               	movf	??___fladd+4,w
  7532  0F0C  07E1               	addwf	??___fladd,f
  7533  0F0D  0866               	movf	??___fladd+5,w
  7534  0F0E  1803               	skipnc
  7535  0F0F  0F66               	incfsz	??___fladd+5,w
  7536  0F10  2F12               	goto	u5120
  7537  0F11  2F13               	goto	u5121
  7538  0F12                     u5120:	
  7539  0F12  07E2               	addwf	??___fladd+1,f
  7540  0F13                     u5121:	
  7541  0F13  0867               	movf	??___fladd+6,w
  7542  0F14  1803               	skipnc
  7543  0F15  0F67               	incfsz	??___fladd+6,w
  7544  0F16  2F18               	goto	u5122
  7545  0F17  2F19               	goto	u5123
  7546  0F18                     u5122:	
  7547  0F18  07E3               	addwf	??___fladd+2,f
  7548  0F19                     u5123:	
  7549  0F19  0868               	movf	??___fladd+7,w
  7550  0F1A  1803               	skipnc
  7551  0F1B  0A68               	incf	??___fladd+7,w
  7552  0F1C  07E4               	addwf	??___fladd+3,f
  7553  0F1D  0864               	movf	??___fladd+3,w
  7554  0F1E  00DC               	movwf	___fladd@b+3
  7555  0F1F  0863               	movf	??___fladd+2,w
  7556  0F20  00DB               	movwf	___fladd@b+2
  7557  0F21  0862               	movf	??___fladd+1,w
  7558  0F22  00DA               	movwf	___fladd@b+1
  7559  0F23  0861               	movf	??___fladd,w
  7560  0F24  00D9               	movwf	___fladd@b
  7561  0F25                     l3824:	
  7562  0F25  3080               	movlw	128
  7563  0F26  00E1               	movwf	??___fladd
  7564  0F27  0861               	movf	??___fladd,w
  7565  0F28  06E9               	xorwf	___fladd@signs,f
  7566  0F29  09EC               	comf	___fladd@grs,f
  7567  0F2A  0AEC               	incf	___fladd@grs,f
  7568  0F2B                     l3826:	
  7569  0F2B  086C               	movf	___fladd@grs,w
  7570  0F2C  1D03               	btfss	3,2
  7571  0F2D  2F2F               	goto	u5131
  7572  0F2E  2F30               	goto	u5130
  7573  0F2F                     u5131:	
  7574  0F2F  2F4D               	goto	l609
  7575  0F30                     u5130:	
  7576  0F30                     l3828:	
  7577  0F30  3001               	movlw	1
  7578  0F31  07D9               	addwf	___fladd@b,f
  7579  0F32  3000               	movlw	0
  7580  0F33  1803               	skipnc
  7581  0F34  3001               	movlw	1
  7582  0F35  07DA               	addwf	___fladd@b+1,f
  7583  0F36  3000               	movlw	0
  7584  0F37  1803               	skipnc
  7585  0F38  3001               	movlw	1
  7586  0F39  07DB               	addwf	___fladd@b+2,f
  7587  0F3A  3000               	movlw	0
  7588  0F3B  1803               	skipnc
  7589  0F3C  3001               	movlw	1
  7590  0F3D  07DC               	addwf	___fladd@b+3,f
  7591  0F3E  2F4D               	goto	l609
  7592  0F3F                     l3830:	
  7593  0F3F  085D               	movf	___fladd@a,w
  7594  0F40  02D9               	subwf	___fladd@b,f
  7595  0F41  085E               	movf	___fladd@a+1,w
  7596  0F42  1C03               	skipc
  7597  0F43  0F5E               	incfsz	___fladd@a+1,w
  7598  0F44  02DA               	subwf	___fladd@b+1,f
  7599  0F45  085F               	movf	___fladd@a+2,w
  7600  0F46  1C03               	skipc
  7601  0F47  0F5F               	incfsz	___fladd@a+2,w
  7602  0F48  02DB               	subwf	___fladd@b+2,f
  7603  0F49  0860               	movf	___fladd@a+3,w
  7604  0F4A  1C03               	skipc
  7605  0F4B  0F60               	incfsz	___fladd@a+3,w
  7606  0F4C  02DC               	subwf	___fladd@b+3,f
  7607  0F4D                     l609:	
  7608  0F4D  085C               	movf	___fladd@b+3,w
  7609  0F4E  045B               	iorwf	___fladd@b+2,w
  7610  0F4F  045A               	iorwf	___fladd@b+1,w
  7611  0F50  0459               	iorwf	___fladd@b,w
  7612  0F51  1D03               	skipz
  7613  0F52  2F54               	goto	u5141
  7614  0F53  2F55               	goto	u5140
  7615  0F54                     u5141:	
  7616  0F54  2F81               	goto	l3852
  7617  0F55                     u5140:	
  7618  0F55                     l3832:	
  7619  0F55  086C               	movf	___fladd@grs,w
  7620  0F56  1D03               	btfss	3,2
  7621  0F57  2F59               	goto	u5151
  7622  0F58  2F5A               	goto	u5150
  7623  0F59                     u5151:	
  7624  0F59  2F81               	goto	l3852
  7625  0F5A                     u5150:	
  7626  0F5A                     l3834:	
  7627  0F5A  3000               	movlw	0
  7628  0F5B  00DC               	movwf	?___fladd+3
  7629  0F5C  3000               	movlw	0
  7630  0F5D  00DB               	movwf	?___fladd+2
  7631  0F5E  3000               	movlw	0
  7632  0F5F  00DA               	movwf	?___fladd+1
  7633  0F60  3000               	movlw	0
  7634  0F61  00D9               	movwf	?___fladd
  7635  0F62  2FFF               	goto	l601
  7636  0F63                     l3838:	
  7637  0F63  3001               	movlw	1
  7638  0F64  00E1               	movwf	??___fladd
  7639  0F65                     u5165:	
  7640  0F65  1003               	clrc
  7641  0F66  0DD9               	rlf	___fladd@b,f
  7642  0F67  0DDA               	rlf	___fladd@b+1,f
  7643  0F68  0DDB               	rlf	___fladd@b+2,f
  7644  0F69  0DDC               	rlf	___fladd@b+3,f
  7645  0F6A  0BE1               	decfsz	??___fladd,f
  7646  0F6B  2F65               	goto	u5165
  7647  0F6C                     l3840:	
  7648  0F6C  1FEC               	btfss	___fladd@grs,7
  7649  0F6D  2F6F               	goto	u5171
  7650  0F6E  2F70               	goto	u5170
  7651  0F6F                     u5171:	
  7652  0F6F  2F71               	goto	l613
  7653  0F70                     u5170:	
  7654  0F70                     l3842:	
  7655  0F70  1459               	bsf	___fladd@b,0
  7656  0F71                     l613:	
  7657  0F71  1C6C               	btfss	___fladd@grs,0
  7658  0F72  2F74               	goto	u5181
  7659  0F73  2F75               	goto	u5180
  7660  0F74                     u5181:	
  7661  0F74  2F78               	goto	l3846
  7662  0F75                     u5180:	
  7663  0F75                     l3844:	
  7664  0F75  1403               	setc
  7665  0F76  0DEC               	rlf	___fladd@grs,f
  7666  0F77  2F7A               	goto	l3848
  7667  0F78                     l3846:	
  7668  0F78  1003               	clrc
  7669  0F79  0DEC               	rlf	___fladd@grs,f
  7670  0F7A                     l3848:	
  7671  0F7A  086B               	movf	___fladd@bexp,w
  7672  0F7B  1903               	btfsc	3,2
  7673  0F7C  2F7E               	goto	u5191
  7674  0F7D  2F7F               	goto	u5190
  7675  0F7E                     u5191:	
  7676  0F7E  2F81               	goto	l3852
  7677  0F7F                     u5190:	
  7678  0F7F                     l3850:	
  7679  0F7F  3001               	movlw	1
  7680  0F80  02EB               	subwf	___fladd@bexp,f
  7681  0F81                     l3852:	
  7682  0F81  1FDB               	btfss	___fladd@b+2,7
  7683  0F82  2F84               	goto	u5201
  7684  0F83  2F85               	goto	u5200
  7685  0F84                     u5201:	
  7686  0F84  2F63               	goto	l3838
  7687  0F85                     u5200:	
  7688  0F85                     l3854:	
  7689  0F85  01EA               	clrf	___fladd@aexp
  7690  0F86                     l3856:	
  7691  0F86  1FEC               	btfss	___fladd@grs,7
  7692  0F87  2F89               	goto	u5211
  7693  0F88  2F8A               	goto	u5210
  7694  0F89                     u5211:	
  7695  0F89  2F98               	goto	l3864
  7696  0F8A                     u5210:	
  7697  0F8A                     l3858:	
  7698  0F8A  086C               	movf	___fladd@grs,w
  7699  0F8B  397F               	andlw	127
  7700  0F8C  1903               	btfsc	3,2
  7701  0F8D  2F8F               	goto	u5221
  7702  0F8E  2F90               	goto	u5220
  7703  0F8F                     u5221:	
  7704  0F8F  2F93               	goto	l619
  7705  0F90                     u5220:	
  7706  0F90                     l3860:	
  7707  0F90  01EA               	clrf	___fladd@aexp
  7708  0F91  0AEA               	incf	___fladd@aexp,f
  7709  0F92  2F98               	goto	l3864
  7710  0F93                     l619:	
  7711  0F93  1C59               	btfss	___fladd@b,0
  7712  0F94  2F96               	goto	u5231
  7713  0F95  2F97               	goto	u5230
  7714  0F96                     u5231:	
  7715  0F96  2F98               	goto	l3864
  7716  0F97                     u5230:	
  7717  0F97  2F90               	goto	l3860
  7718  0F98                     l3864:	
  7719  0F98  086A               	movf	___fladd@aexp,w
  7720  0F99  1903               	btfsc	3,2
  7721  0F9A  2F9C               	goto	u5241
  7722  0F9B  2F9D               	goto	u5240
  7723  0F9C                     u5241:	
  7724  0F9C  2FD1               	goto	l622
  7725  0F9D                     u5240:	
  7726  0F9D                     l3866:	
  7727  0F9D  3001               	movlw	1
  7728  0F9E  07D9               	addwf	___fladd@b,f
  7729  0F9F  3000               	movlw	0
  7730  0FA0  1803               	skipnc
  7731  0FA1  3001               	movlw	1
  7732  0FA2  07DA               	addwf	___fladd@b+1,f
  7733  0FA3  3000               	movlw	0
  7734  0FA4  1803               	skipnc
  7735  0FA5  3001               	movlw	1
  7736  0FA6  07DB               	addwf	___fladd@b+2,f
  7737  0FA7  3000               	movlw	0
  7738  0FA8  1803               	skipnc
  7739  0FA9  3001               	movlw	1
  7740  0FAA  07DC               	addwf	___fladd@b+3,f
  7741  0FAB                     l3868:	
  7742  0FAB  1C5C               	btfss	___fladd@b+3,0
  7743  0FAC  2FAE               	goto	u5251
  7744  0FAD  2FAF               	goto	u5250
  7745  0FAE                     u5251:	
  7746  0FAE  2FD1               	goto	l622
  7747  0FAF                     u5250:	
  7748  0FAF                     l3870:	
  7749  0FAF  0859               	movf	___fladd@b,w
  7750  0FB0  00E1               	movwf	??___fladd
  7751  0FB1  085A               	movf	___fladd@b+1,w
  7752  0FB2  00E2               	movwf	??___fladd+1
  7753  0FB3  085B               	movf	___fladd@b+2,w
  7754  0FB4  00E3               	movwf	??___fladd+2
  7755  0FB5  085C               	movf	___fladd@b+3,w
  7756  0FB6  00E4               	movwf	??___fladd+3
  7757  0FB7  3001               	movlw	1
  7758  0FB8  00E5               	movwf	??___fladd+4
  7759  0FB9                     u5265:	
  7760  0FB9  0D64               	rlf	??___fladd+3,w
  7761  0FBA  0CE4               	rrf	??___fladd+3,f
  7762  0FBB  0CE3               	rrf	??___fladd+2,f
  7763  0FBC  0CE2               	rrf	??___fladd+1,f
  7764  0FBD  0CE1               	rrf	??___fladd,f
  7765  0FBE                     u5260:	
  7766  0FBE  0BE5               	decfsz	??___fladd+4,f
  7767  0FBF  2FB9               	goto	u5265
  7768  0FC0  0864               	movf	??___fladd+3,w
  7769  0FC1  00DC               	movwf	___fladd@b+3
  7770  0FC2  0863               	movf	??___fladd+2,w
  7771  0FC3  00DB               	movwf	___fladd@b+2
  7772  0FC4  0862               	movf	??___fladd+1,w
  7773  0FC5  00DA               	movwf	___fladd@b+1
  7774  0FC6  0861               	movf	??___fladd,w
  7775  0FC7  00D9               	movwf	___fladd@b
  7776  0FC8  0A6B               	incf	___fladd@bexp,w
  7777  0FC9  1903               	btfsc	3,2
  7778  0FCA  2FCC               	goto	u5271
  7779  0FCB  2FCD               	goto	u5270
  7780  0FCC                     u5271:	
  7781  0FCC  2FD1               	goto	l622
  7782  0FCD                     u5270:	
  7783  0FCD                     l3872:	
  7784  0FCD  3001               	movlw	1
  7785  0FCE  00E1               	movwf	??___fladd
  7786  0FCF  0861               	movf	??___fladd,w
  7787  0FD0  07EB               	addwf	___fladd@bexp,f
  7788  0FD1                     l622:	
  7789  0FD1  0A6B               	incf	___fladd@bexp,w
  7790  0FD2  1903               	btfsc	3,2
  7791  0FD3  2FD5               	goto	u5281
  7792  0FD4  2FD6               	goto	u5280
  7793  0FD5                     u5281:	
  7794  0FD5  2FDB               	goto	l3876
  7795  0FD6                     u5280:	
  7796  0FD6                     l3874:	
  7797  0FD6  086B               	movf	___fladd@bexp,w
  7798  0FD7  1D03               	btfss	3,2
  7799  0FD8  2FDA               	goto	u5291
  7800  0FD9  2FDB               	goto	u5290
  7801  0FDA                     u5291:	
  7802  0FDA  2FE9               	goto	l3882
  7803  0FDB                     u5290:	
  7804  0FDB                     l3876:	
  7805  0FDB  3000               	movlw	0
  7806  0FDC  00DC               	movwf	___fladd@b+3
  7807  0FDD  3000               	movlw	0
  7808  0FDE  00DB               	movwf	___fladd@b+2
  7809  0FDF  3000               	movlw	0
  7810  0FE0  00DA               	movwf	___fladd@b+1
  7811  0FE1  3000               	movlw	0
  7812  0FE2  00D9               	movwf	___fladd@b
  7813  0FE3                     l3878:	
  7814  0FE3  086B               	movf	___fladd@bexp,w
  7815  0FE4  1D03               	btfss	3,2
  7816  0FE5  2FE7               	goto	u5301
  7817  0FE6  2FE8               	goto	u5300
  7818  0FE7                     u5301:	
  7819  0FE7  2FE9               	goto	l3882
  7820  0FE8                     u5300:	
  7821  0FE8                     l3880:	
  7822  0FE8  01E9               	clrf	___fladd@signs
  7823  0FE9                     l3882:	
  7824  0FE9  1C6B               	btfss	___fladd@bexp,0
  7825  0FEA  2FEC               	goto	u5311
  7826  0FEB  2FED               	goto	u5310
  7827  0FEC                     u5311:	
  7828  0FEC  2FEF               	goto	l3886
  7829  0FED                     u5310:	
  7830  0FED                     l3884:	
  7831  0FED  17DB               	bsf	___fladd@b+2,7
  7832  0FEE  2FF3               	goto	l630
  7833  0FEF                     l3886:	
  7834  0FEF  307F               	movlw	127
  7835  0FF0  00E1               	movwf	??___fladd
  7836  0FF1  0861               	movf	??___fladd,w
  7837  0FF2  05DB               	andwf	___fladd@b+2,f
  7838  0FF3                     l630:	
  7839  0FF3  086B               	movf	___fladd@bexp,w
  7840  0FF4  00E1               	movwf	??___fladd
  7841  0FF5  1003               	clrc
  7842  0FF6  0C61               	rrf	??___fladd,w
  7843  0FF7  00E2               	movwf	??___fladd+1
  7844  0FF8  0862               	movf	??___fladd+1,w
  7845  0FF9  00DC               	movwf	___fladd@b+3
  7846  0FFA                     l3888:	
  7847  0FFA  1FE9               	btfss	___fladd@signs,7
  7848  0FFB  2FFD               	goto	u5321
  7849  0FFC  2FFE               	goto	u5320
  7850  0FFD                     u5321:	
  7851  0FFD  2FFF               	goto	l631
  7852  0FFE                     u5320:	
  7853  0FFE                     l3890:	
  7854  0FFE  17DC               	bsf	___fladd@b+3,7
  7855  0FFF                     l631:	
  7856  0FFF                     l601:	
  7857  0FFF  0008               	return
  7858  1000                     __end_of___fladd:	
  7859                           
  7860                           	psect	text28
  7861  197F                     __ptext28:	
  7862 ;; *************** function ___flneg *****************
  7863 ;; Defined at:
  7864 ;;		line 15 in file "C:\Program Files (x86)\Microchip\xc8\v2.10\pic\sources\c90\common\flneg.c"
  7865 ;; Parameters:    Size  Location     Type
  7866 ;;  f1              4    0[COMMON] unsigned char 
  7867 ;; Auto vars:     Size  Location     Type
  7868 ;;		None
  7869 ;; Return value:  Size  Location     Type
  7870 ;;                  4    0[COMMON] unsigned char 
  7871 ;; Registers used:
  7872 ;;		wreg
  7873 ;; Tracked objects:
  7874 ;;		On entry : 0/0
  7875 ;;		On exit  : 0/0
  7876 ;;		Unchanged: 0/0
  7877 ;; Data sizes:     COMMON   BANK0   BANK1   BANK3   BANK2
  7878 ;;      Params:         4       0       0       0       0
  7879 ;;      Locals:         0       0       0       0       0
  7880 ;;      Temps:          0       0       0       0       0
  7881 ;;      Totals:         4       0       0       0       0
  7882 ;;Total ram usage:        4 bytes
  7883 ;; Hardware stack levels used:    1
  7884 ;; This function calls:
  7885 ;;		Nothing
  7886 ;; This function is called by:
  7887 ;;		_pow
  7888 ;;		_exp
  7889 ;; This function uses a non-reentrant model
  7890 ;;
  7891                           
  7892                           
  7893                           ;psect for function ___flneg
  7894  197F                     ___flneg:	
  7895  197F                     l4096:	
  7896                           ;incstack = 0
  7897                           ; Regs used in ___flneg: [wreg]
  7898                           
  7899  197F  0873               	movf	___flneg@f1+3,w
  7900  1980  0472               	iorwf	___flneg@f1+2,w
  7901  1981  0471               	iorwf	___flneg@f1+1,w
  7902  1982  0470               	iorwf	___flneg@f1,w
  7903  1983  1903               	skipnz
  7904  1984  2986               	goto	u5851
  7905  1985  2987               	goto	u5850
  7906  1986                     u5851:	
  7907  1986  2989               	goto	l4100
  7908  1987                     u5850:	
  7909  1987                     l4098:	
  7910  1987  3080               	movlw	128
  7911  1988  06F3               	xorwf	___flneg@f1+3,f
  7912  1989                     l4100:	
  7913  1989                     l477:	
  7914  1989  0008               	return
  7915  198A                     __end_of___flneg:	
  7916                           
  7917                           	psect	text29
  7918  1D64                     __ptext29:	
  7919 ;; *************** function _Dtr *****************
  7920 ;; Defined at:
  7921 ;;		line 233 in file "./LCD2.h"
  7922 ;; Parameters:    Size  Location     Type
  7923 ;;  y               2    0[BANK0 ] int 
  7924 ;;  zpr             1    2[BANK0 ] PTR unsigned char 
  7925 ;;		 -> guardar2(10), guardar(10), 
  7926 ;;  P               2    3[BANK0 ] int 
  7927 ;; Auto vars:     Size  Location     Type
  7928 ;;  i               2    5[BANK0 ] int 
  7929 ;; Return value:  Size  Location     Type
  7930 ;;                  2    0[BANK0 ] int 
  7931 ;; Registers used:
  7932 ;;		wreg, fsr0l, fsr0h, status,2, status,0, pclath, cstack
  7933 ;; Tracked objects:
  7934 ;;		On entry : 0/0
  7935 ;;		On exit  : 0/0
  7936 ;;		Unchanged: 0/0
  7937 ;; Data sizes:     COMMON   BANK0   BANK1   BANK3   BANK2
  7938 ;;      Params:         0       5       0       0       0
  7939 ;;      Locals:         0       2       0       0       0
  7940 ;;      Temps:          2       0       0       0       0
  7941 ;;      Totals:         2       7       0       0       0
  7942 ;;Total ram usage:        9 bytes
  7943 ;; Hardware stack levels used:    1
  7944 ;; Hardware stack levels required when called:    1
  7945 ;; This function calls:
  7946 ;;		___awdiv
  7947 ;;		___awmod
  7948 ;;		_reverse
  7949 ;; This function is called by:
  7950 ;;		_ftoa2
  7951 ;; This function uses a non-reentrant model
  7952 ;;
  7953                           
  7954                           
  7955                           ;psect for function _Dtr
  7956  1D64                     _Dtr:	
  7957  1D64                     l4502:	
  7958                           ;incstack = 0
  7959                           ; Regs used in _Dtr: [wreg-fsr0h+status,2+status,0+pclath+cstack]
  7960                           
  7961                           
  7962                           ;./LCD2.h: 234:     int i = 0;
  7963  1D64  1283               	bcf	3,5	;RP0=0, select bank0
  7964  1D65  1303               	bcf	3,6	;RP1=0, select bank0
  7965  1D66  01A5               	clrf	Dtr@i
  7966  1D67  01A6               	clrf	Dtr@i+1
  7967                           
  7968                           ;./LCD2.h: 235:     while(y){
  7969  1D68  2D9C               	goto	l4510
  7970  1D69                     l4504:	
  7971                           
  7972                           ;./LCD2.h: 236:         zpr[i++] = (y% 10) + '0';
  7973  1D69  300A               	movlw	10
  7974  1D6A  00F0               	movwf	___awmod@divisor
  7975  1D6B  3000               	movlw	0
  7976  1D6C  00F1               	movwf	___awmod@divisor+1
  7977  1D6D  0821               	movf	Dtr@y+1,w
  7978  1D6E  00F3               	movwf	___awmod@dividend+1
  7979  1D6F  0820               	movf	Dtr@y,w
  7980  1D70  00F2               	movwf	___awmod@dividend
  7981  1D71  160A  158A  2448  160A  158A  	fcall	___awmod
  7982  1D76  0870               	movf	?___awmod,w
  7983  1D77  3E30               	addlw	48
  7984  1D78  00FC               	movwf	??_Dtr
  7985  1D79  1283               	bcf	3,5	;RP0=0, select bank0
  7986  1D7A  1303               	bcf	3,6	;RP1=0, select bank0
  7987  1D7B  0825               	movf	Dtr@i,w
  7988  1D7C  0722               	addwf	Dtr@zpr,w
  7989  1D7D  00FD               	movwf	??_Dtr+1
  7990  1D7E  087D               	movf	??_Dtr+1,w
  7991  1D7F  0084               	movwf	4
  7992  1D80  087C               	movf	??_Dtr,w
  7993  1D81  1783               	bsf	3,7	;select IRP bank2
  7994  1D82  0080               	movwf	0
  7995  1D83                     l4506:	
  7996  1D83  3001               	movlw	1
  7997  1D84  07A5               	addwf	Dtr@i,f
  7998  1D85  1803               	skipnc
  7999  1D86  0AA6               	incf	Dtr@i+1,f
  8000  1D87  3000               	movlw	0
  8001  1D88  07A6               	addwf	Dtr@i+1,f
  8002  1D89                     l4508:	
  8003                           
  8004                           ;./LCD2.h: 237:         y =y/10;
  8005  1D89  300A               	movlw	10
  8006  1D8A  00F0               	movwf	___awdiv@divisor
  8007  1D8B  3000               	movlw	0
  8008  1D8C  00F1               	movwf	___awdiv@divisor+1
  8009  1D8D  0821               	movf	Dtr@y+1,w
  8010  1D8E  00F3               	movwf	___awdiv@dividend+1
  8011  1D8F  0820               	movf	Dtr@y,w
  8012  1D90  00F2               	movwf	___awdiv@dividend
  8013  1D91  160A  158A  24FD  160A  158A  	fcall	___awdiv
  8014  1D96  0871               	movf	?___awdiv+1,w
  8015  1D97  1283               	bcf	3,5	;RP0=0, select bank0
  8016  1D98  1303               	bcf	3,6	;RP1=0, select bank0
  8017  1D99  00A1               	movwf	Dtr@y+1
  8018  1D9A  0870               	movf	?___awdiv,w
  8019  1D9B  00A0               	movwf	Dtr@y
  8020  1D9C                     l4510:	
  8021                           
  8022                           ;./LCD2.h: 235:     while(y){
  8023  1D9C  0820               	movf	Dtr@y,w
  8024  1D9D  0421               	iorwf	Dtr@y+1,w
  8025  1D9E  1D03               	btfss	3,2
  8026  1D9F  2DA1               	goto	u6571
  8027  1DA0  2DA2               	goto	u6570
  8028  1DA1                     u6571:	
  8029  1DA1  2D69               	goto	l4504
  8030  1DA2                     u6570:	
  8031  1DA2  2DCD               	goto	l4524
  8032  1DA3                     l4512:	
  8033                           
  8034                           ;./LCD2.h: 240:         zpr[i++] = '0';
  8035  1DA3  3030               	movlw	48
  8036  1DA4  00FC               	movwf	??_Dtr
  8037  1DA5  1283               	bcf	3,5	;RP0=0, select bank0
  8038  1DA6  1303               	bcf	3,6	;RP1=0, select bank0
  8039  1DA7  0825               	movf	Dtr@i,w
  8040  1DA8  0722               	addwf	Dtr@zpr,w
  8041  1DA9  00FD               	movwf	??_Dtr+1
  8042  1DAA  087D               	movf	??_Dtr+1,w
  8043  1DAB  0084               	movwf	4
  8044  1DAC  087C               	movf	??_Dtr,w
  8045  1DAD  1783               	bsf	3,7	;select IRP bank2
  8046  1DAE  0080               	movwf	0
  8047  1DAF                     l4514:	
  8048  1DAF  3001               	movlw	1
  8049  1DB0  07A5               	addwf	Dtr@i,f
  8050  1DB1  1803               	skipnc
  8051  1DB2  0AA6               	incf	Dtr@i+1,f
  8052  1DB3  3000               	movlw	0
  8053  1DB4  07A6               	addwf	Dtr@i+1,f
  8054  1DB5                     l4516:	
  8055                           
  8056                           ;./LCD2.h: 241:         reverse(zpr,i);
  8057  1DB5  0826               	movf	Dtr@i+1,w
  8058  1DB6  00F1               	movwf	reverse@len+1
  8059  1DB7  0825               	movf	Dtr@i,w
  8060  1DB8  00F0               	movwf	reverse@len
  8061  1DB9  0822               	movf	Dtr@zpr,w
  8062  1DBA  160A  158A  235D  160A  158A  	fcall	_reverse
  8063  1DBF                     l4518:	
  8064                           
  8065                           ;./LCD2.h: 242:         zpr[i] = '\0';
  8066  1DBF  1283               	bcf	3,5	;RP0=0, select bank0
  8067  1DC0  1303               	bcf	3,6	;RP1=0, select bank0
  8068  1DC1  0825               	movf	Dtr@i,w
  8069  1DC2  0722               	addwf	Dtr@zpr,w
  8070  1DC3  00FC               	movwf	??_Dtr
  8071  1DC4  087C               	movf	??_Dtr,w
  8072  1DC5  0084               	movwf	4
  8073  1DC6  1783               	bsf	3,7	;select IRP bank2
  8074  1DC7  0180               	clrf	0
  8075  1DC8                     l4520:	
  8076                           
  8077                           ;./LCD2.h: 243:         return i;
  8078  1DC8  0826               	movf	Dtr@i+1,w
  8079  1DC9  00A1               	movwf	?_Dtr+1
  8080  1DCA  0825               	movf	Dtr@i,w
  8081  1DCB  00A0               	movwf	?_Dtr
  8082  1DCC  2DDB               	goto	l149
  8083  1DCD                     l4524:	
  8084                           
  8085                           ;./LCD2.h: 239:     while(i<P){
  8086  1DCD  0826               	movf	Dtr@i+1,w
  8087  1DCE  3A80               	xorlw	128
  8088  1DCF  00FC               	movwf	??_Dtr
  8089  1DD0  0824               	movf	Dtr@P+1,w
  8090  1DD1  3A80               	xorlw	128
  8091  1DD2  027C               	subwf	??_Dtr,w
  8092  1DD3  1D03               	skipz
  8093  1DD4  2DD7               	goto	u6585
  8094  1DD5  0823               	movf	Dtr@P,w
  8095  1DD6  0225               	subwf	Dtr@i,w
  8096  1DD7                     u6585:	
  8097  1DD7  1C03               	skipc
  8098  1DD8  2DDA               	goto	u6581
  8099  1DD9  2DDB               	goto	u6580
  8100  1DDA                     u6581:	
  8101  1DDA  2DA3               	goto	l4512
  8102  1DDB                     u6580:	
  8103  1DDB                     l149:	
  8104  1DDB  0008               	return
  8105  1DDC                     __end_of_Dtr:	
  8106                           
  8107                           	psect	text30
  8108  1B5D                     __ptext30:	
  8109 ;; *************** function _reverse *****************
  8110 ;; Defined at:
  8111 ;;		line 223 in file "./LCD2.h"
  8112 ;; Parameters:    Size  Location     Type
  8113 ;;  zpr             1    wreg     PTR unsigned char 
  8114 ;;		 -> guardar2(10), guardar(10), 
  8115 ;;  len             2    0[COMMON] int 
  8116 ;; Auto vars:     Size  Location     Type
  8117 ;;  zpr             1   11[COMMON] PTR unsigned char 
  8118 ;;		 -> guardar2(10), guardar(10), 
  8119 ;;  j               2    9[COMMON] int 
  8120 ;;  i               2    7[COMMON] int 
  8121 ;;  tiempo          2    5[COMMON] int 
  8122 ;; Return value:  Size  Location     Type
  8123 ;;                  1    wreg      void 
  8124 ;; Registers used:
  8125 ;;		wreg, fsr0l, fsr0h, status,2, status,0
  8126 ;; Tracked objects:
  8127 ;;		On entry : 0/0
  8128 ;;		On exit  : 0/0
  8129 ;;		Unchanged: 0/0
  8130 ;; Data sizes:     COMMON   BANK0   BANK1   BANK3   BANK2
  8131 ;;      Params:         2       0       0       0       0
  8132 ;;      Locals:         7       0       0       0       0
  8133 ;;      Temps:          3       0       0       0       0
  8134 ;;      Totals:        12       0       0       0       0
  8135 ;;Total ram usage:       12 bytes
  8136 ;; Hardware stack levels used:    1
  8137 ;; This function calls:
  8138 ;;		Nothing
  8139 ;; This function is called by:
  8140 ;;		_Dtr
  8141 ;; This function uses a non-reentrant model
  8142 ;;
  8143                           
  8144                           
  8145                           ;psect for function _reverse
  8146  1B5D                     _reverse:	
  8147                           
  8148                           ;incstack = 0
  8149                           ; Regs used in _reverse: [wreg-fsr0h+status,2+status,0]
  8150                           ;reverse@zpr stored from wreg
  8151  1B5D  00FB               	movwf	reverse@zpr
  8152  1B5E                     l4330:	
  8153                           
  8154                           ;./LCD2.h: 224:     int i = 0, j= len - 1, tiempo;
  8155  1B5E  01F7               	clrf	reverse@i
  8156  1B5F  01F8               	clrf	reverse@i+1
  8157  1B60                     l4332:	
  8158  1B60  0870               	movf	reverse@len,w
  8159  1B61  3EFF               	addlw	255
  8160  1B62  00F9               	movwf	reverse@j
  8161  1B63  0871               	movf	reverse@len+1,w
  8162  1B64  1803               	skipnc
  8163  1B65  3E01               	addlw	1
  8164  1B66  3EFF               	addlw	255
  8165  1B67  00FA               	movwf	reverse@j+1
  8166                           
  8167                           ;./LCD2.h: 225:     while (i<j){
  8168  1B68  2B99               	goto	l4340
  8169  1B69                     l4334:	
  8170                           
  8171                           ;./LCD2.h: 226:         tiempo = zpr[ i ];
  8172  1B69  0877               	movf	reverse@i,w
  8173  1B6A  077B               	addwf	reverse@zpr,w
  8174  1B6B  00F2               	movwf	??_reverse
  8175  1B6C  0872               	movf	??_reverse,w
  8176  1B6D  0084               	movwf	4
  8177  1B6E  1783               	bsf	3,7	;select IRP bank2
  8178  1B6F  0800               	movf	0,w
  8179  1B70  00F3               	movwf	??_reverse+1
  8180  1B71  01F4               	clrf	??_reverse+2
  8181  1B72  0873               	movf	??_reverse+1,w
  8182  1B73  00F5               	movwf	reverse@tiempo
  8183  1B74  0874               	movf	??_reverse+2,w
  8184  1B75  00F6               	movwf	reverse@tiempo+1
  8185                           
  8186                           ;./LCD2.h: 227:         zpr[i] = zpr[j];
  8187  1B76  0879               	movf	reverse@j,w
  8188  1B77  077B               	addwf	reverse@zpr,w
  8189  1B78  00F2               	movwf	??_reverse
  8190  1B79  0872               	movf	??_reverse,w
  8191  1B7A  0084               	movwf	4
  8192  1B7B  0800               	movf	0,w
  8193  1B7C  00F3               	movwf	??_reverse+1
  8194  1B7D  0877               	movf	reverse@i,w
  8195  1B7E  077B               	addwf	reverse@zpr,w
  8196  1B7F  00F4               	movwf	??_reverse+2
  8197  1B80  0874               	movf	??_reverse+2,w
  8198  1B81  0084               	movwf	4
  8199  1B82  0873               	movf	??_reverse+1,w
  8200  1B83  0080               	movwf	0
  8201                           
  8202                           ;./LCD2.h: 228:         zpr[j] = tiempo ;
  8203  1B84  0875               	movf	reverse@tiempo,w
  8204  1B85  00F2               	movwf	??_reverse
  8205  1B86  0879               	movf	reverse@j,w
  8206  1B87  077B               	addwf	reverse@zpr,w
  8207  1B88  00F3               	movwf	??_reverse+1
  8208  1B89  0873               	movf	??_reverse+1,w
  8209  1B8A  0084               	movwf	4
  8210  1B8B  0872               	movf	??_reverse,w
  8211  1B8C  0080               	movwf	0
  8212  1B8D                     l4336:	
  8213                           
  8214                           ;./LCD2.h: 229:         i++;
  8215  1B8D  3001               	movlw	1
  8216  1B8E  07F7               	addwf	reverse@i,f
  8217  1B8F  1803               	skipnc
  8218  1B90  0AF8               	incf	reverse@i+1,f
  8219  1B91  3000               	movlw	0
  8220  1B92  07F8               	addwf	reverse@i+1,f
  8221  1B93                     l4338:	
  8222                           
  8223                           ;./LCD2.h: 230:         j--;
  8224  1B93  30FF               	movlw	255
  8225  1B94  07F9               	addwf	reverse@j,f
  8226  1B95  1803               	skipnc
  8227  1B96  0AFA               	incf	reverse@j+1,f
  8228  1B97  30FF               	movlw	255
  8229  1B98  07FA               	addwf	reverse@j+1,f
  8230  1B99                     l4340:	
  8231                           
  8232                           ;./LCD2.h: 225:     while (i<j){
  8233  1B99  0878               	movf	reverse@i+1,w
  8234  1B9A  3A80               	xorlw	128
  8235  1B9B  00F2               	movwf	??_reverse
  8236  1B9C  087A               	movf	reverse@j+1,w
  8237  1B9D  3A80               	xorlw	128
  8238  1B9E  0272               	subwf	??_reverse,w
  8239  1B9F  1D03               	skipz
  8240  1BA0  2BA3               	goto	u6275
  8241  1BA1  0879               	movf	reverse@j,w
  8242  1BA2  0277               	subwf	reverse@i,w
  8243  1BA3                     u6275:	
  8244  1BA3  1C03               	skipc
  8245  1BA4  2BA6               	goto	u6271
  8246  1BA5  2BA7               	goto	u6270
  8247  1BA6                     u6271:	
  8248  1BA6  2B69               	goto	l4334
  8249  1BA7                     u6270:	
  8250  1BA7                     l141:	
  8251  1BA7  0008               	return
  8252  1BA8                     __end_of_reverse:	
  8253                           
  8254                           	psect	text31
  8255  1C48                     __ptext31:	
  8256 ;; *************** function ___awmod *****************
  8257 ;; Defined at:
  8258 ;;		line 5 in file "C:\Program Files (x86)\Microchip\xc8\v2.10\pic\sources\c90\common\awmod.c"
  8259 ;; Parameters:    Size  Location     Type
  8260 ;;  divisor         2    0[COMMON] int 
  8261 ;;  dividend        2    2[COMMON] int 
  8262 ;; Auto vars:     Size  Location     Type
  8263 ;;  sign            1    6[COMMON] unsigned char 
  8264 ;;  counter         1    5[COMMON] unsigned char 
  8265 ;; Return value:  Size  Location     Type
  8266 ;;                  2    0[COMMON] int 
  8267 ;; Registers used:
  8268 ;;		wreg, status,2, status,0
  8269 ;; Tracked objects:
  8270 ;;		On entry : 0/0
  8271 ;;		On exit  : 0/0
  8272 ;;		Unchanged: 0/0
  8273 ;; Data sizes:     COMMON   BANK0   BANK1   BANK3   BANK2
  8274 ;;      Params:         4       0       0       0       0
  8275 ;;      Locals:         2       0       0       0       0
  8276 ;;      Temps:          1       0       0       0       0
  8277 ;;      Totals:         7       0       0       0       0
  8278 ;;Total ram usage:        7 bytes
  8279 ;; Hardware stack levels used:    1
  8280 ;; This function calls:
  8281 ;;		Nothing
  8282 ;; This function is called by:
  8283 ;;		_Dtr
  8284 ;; This function uses a non-reentrant model
  8285 ;;
  8286                           
  8287                           
  8288                           ;psect for function ___awmod
  8289  1C48                     ___awmod:	
  8290  1C48                     l4386:	
  8291                           ;incstack = 0
  8292                           ; Regs used in ___awmod: [wreg+status,2+status,0]
  8293                           
  8294  1C48  01F6               	clrf	___awmod@sign
  8295  1C49                     l4388:	
  8296  1C49  1FF3               	btfss	___awmod@dividend+1,7
  8297  1C4A  2C4C               	goto	u6381
  8298  1C4B  2C4D               	goto	u6380
  8299  1C4C                     u6381:	
  8300  1C4C  2C54               	goto	l4394
  8301  1C4D                     u6380:	
  8302  1C4D                     l4390:	
  8303  1C4D  09F2               	comf	___awmod@dividend,f
  8304  1C4E  09F3               	comf	___awmod@dividend+1,f
  8305  1C4F  0AF2               	incf	___awmod@dividend,f
  8306  1C50  1903               	skipnz
  8307  1C51  0AF3               	incf	___awmod@dividend+1,f
  8308  1C52                     l4392:	
  8309  1C52  01F6               	clrf	___awmod@sign
  8310  1C53  0AF6               	incf	___awmod@sign,f
  8311  1C54                     l4394:	
  8312  1C54  1FF1               	btfss	___awmod@divisor+1,7
  8313  1C55  2C57               	goto	u6391
  8314  1C56  2C58               	goto	u6390
  8315  1C57                     u6391:	
  8316  1C57  2C5D               	goto	l4398
  8317  1C58                     u6390:	
  8318  1C58                     l4396:	
  8319  1C58  09F0               	comf	___awmod@divisor,f
  8320  1C59  09F1               	comf	___awmod@divisor+1,f
  8321  1C5A  0AF0               	incf	___awmod@divisor,f
  8322  1C5B  1903               	skipnz
  8323  1C5C  0AF1               	incf	___awmod@divisor+1,f
  8324  1C5D                     l4398:	
  8325  1C5D  0870               	movf	___awmod@divisor,w
  8326  1C5E  0471               	iorwf	___awmod@divisor+1,w
  8327  1C5F  1903               	btfsc	3,2
  8328  1C60  2C62               	goto	u6401
  8329  1C61  2C63               	goto	u6400
  8330  1C62                     u6401:	
  8331  1C62  2C92               	goto	l4416
  8332  1C63                     u6400:	
  8333  1C63                     l4400:	
  8334  1C63  01F5               	clrf	___awmod@counter
  8335  1C64  0AF5               	incf	___awmod@counter,f
  8336  1C65  2C71               	goto	l4406
  8337  1C66                     l4402:	
  8338  1C66  3001               	movlw	1
  8339  1C67                     u6415:	
  8340  1C67  1003               	clrc
  8341  1C68  0DF0               	rlf	___awmod@divisor,f
  8342  1C69  0DF1               	rlf	___awmod@divisor+1,f
  8343  1C6A  3EFF               	addlw	-1
  8344  1C6B  1D03               	skipz
  8345  1C6C  2C67               	goto	u6415
  8346  1C6D                     l4404:	
  8347  1C6D  3001               	movlw	1
  8348  1C6E  00F4               	movwf	??___awmod
  8349  1C6F  0874               	movf	??___awmod,w
  8350  1C70  07F5               	addwf	___awmod@counter,f
  8351  1C71                     l4406:	
  8352  1C71  1FF1               	btfss	___awmod@divisor+1,7
  8353  1C72  2C74               	goto	u6421
  8354  1C73  2C75               	goto	u6420
  8355  1C74                     u6421:	
  8356  1C74  2C66               	goto	l4402
  8357  1C75                     u6420:	
  8358  1C75                     l4408:	
  8359  1C75  0871               	movf	___awmod@divisor+1,w
  8360  1C76  0273               	subwf	___awmod@dividend+1,w
  8361  1C77  1D03               	skipz
  8362  1C78  2C7B               	goto	u6435
  8363  1C79  0870               	movf	___awmod@divisor,w
  8364  1C7A  0272               	subwf	___awmod@dividend,w
  8365  1C7B                     u6435:	
  8366  1C7B  1C03               	skipc
  8367  1C7C  2C7E               	goto	u6431
  8368  1C7D  2C7F               	goto	u6430
  8369  1C7E                     u6431:	
  8370  1C7E  2C85               	goto	l4412
  8371  1C7F                     u6430:	
  8372  1C7F                     l4410:	
  8373  1C7F  0870               	movf	___awmod@divisor,w
  8374  1C80  02F2               	subwf	___awmod@dividend,f
  8375  1C81  0871               	movf	___awmod@divisor+1,w
  8376  1C82  1C03               	skipc
  8377  1C83  03F3               	decf	___awmod@dividend+1,f
  8378  1C84  02F3               	subwf	___awmod@dividend+1,f
  8379  1C85                     l4412:	
  8380  1C85  3001               	movlw	1
  8381  1C86                     u6445:	
  8382  1C86  1003               	clrc
  8383  1C87  0CF1               	rrf	___awmod@divisor+1,f
  8384  1C88  0CF0               	rrf	___awmod@divisor,f
  8385  1C89  3EFF               	addlw	-1
  8386  1C8A  1D03               	skipz
  8387  1C8B  2C86               	goto	u6445
  8388  1C8C                     l4414:	
  8389  1C8C  3001               	movlw	1
  8390  1C8D  02F5               	subwf	___awmod@counter,f
  8391  1C8E  1D03               	btfss	3,2
  8392  1C8F  2C91               	goto	u6451
  8393  1C90  2C92               	goto	u6450
  8394  1C91                     u6451:	
  8395  1C91  2C75               	goto	l4408
  8396  1C92                     u6450:	
  8397  1C92                     l4416:	
  8398  1C92  0876               	movf	___awmod@sign,w
  8399  1C93  1903               	btfsc	3,2
  8400  1C94  2C96               	goto	u6461
  8401  1C95  2C97               	goto	u6460
  8402  1C96                     u6461:	
  8403  1C96  2C9C               	goto	l4420
  8404  1C97                     u6460:	
  8405  1C97                     l4418:	
  8406  1C97  09F2               	comf	___awmod@dividend,f
  8407  1C98  09F3               	comf	___awmod@dividend+1,f
  8408  1C99  0AF2               	incf	___awmod@dividend,f
  8409  1C9A  1903               	skipnz
  8410  1C9B  0AF3               	incf	___awmod@dividend+1,f
  8411  1C9C                     l4420:	
  8412  1C9C  0873               	movf	___awmod@dividend+1,w
  8413  1C9D  00F1               	movwf	?___awmod+1
  8414  1C9E  0872               	movf	___awmod@dividend,w
  8415  1C9F  00F0               	movwf	?___awmod
  8416  1CA0                     l461:	
  8417  1CA0  0008               	return
  8418  1CA1                     __end_of___awmod:	
  8419                           
  8420                           	psect	text32
  8421  1CFD                     __ptext32:	
  8422 ;; *************** function ___awdiv *****************
  8423 ;; Defined at:
  8424 ;;		line 5 in file "C:\Program Files (x86)\Microchip\xc8\v2.10\pic\sources\c90\common\awdiv.c"
  8425 ;; Parameters:    Size  Location     Type
  8426 ;;  divisor         2    0[COMMON] int 
  8427 ;;  dividend        2    2[COMMON] int 
  8428 ;; Auto vars:     Size  Location     Type
  8429 ;;  quotient        2    7[COMMON] int 
  8430 ;;  sign            1    6[COMMON] unsigned char 
  8431 ;;  counter         1    5[COMMON] unsigned char 
  8432 ;; Return value:  Size  Location     Type
  8433 ;;                  2    0[COMMON] int 
  8434 ;; Registers used:
  8435 ;;		wreg, status,2, status,0
  8436 ;; Tracked objects:
  8437 ;;		On entry : 0/0
  8438 ;;		On exit  : 0/0
  8439 ;;		Unchanged: 0/0
  8440 ;; Data sizes:     COMMON   BANK0   BANK1   BANK3   BANK2
  8441 ;;      Params:         4       0       0       0       0
  8442 ;;      Locals:         4       0       0       0       0
  8443 ;;      Temps:          1       0       0       0       0
  8444 ;;      Totals:         9       0       0       0       0
  8445 ;;Total ram usage:        9 bytes
  8446 ;; Hardware stack levels used:    1
  8447 ;; This function calls:
  8448 ;;		Nothing
  8449 ;; This function is called by:
  8450 ;;		_Dtr
  8451 ;; This function uses a non-reentrant model
  8452 ;;
  8453                           
  8454                           
  8455                           ;psect for function ___awdiv
  8456  1CFD                     ___awdiv:	
  8457  1CFD                     l4342:	
  8458                           ;incstack = 0
  8459                           ; Regs used in ___awdiv: [wreg+status,2+status,0]
  8460                           
  8461  1CFD  01F6               	clrf	___awdiv@sign
  8462  1CFE                     l4344:	
  8463  1CFE  1FF1               	btfss	___awdiv@divisor+1,7
  8464  1CFF  2D01               	goto	u6281
  8465  1D00  2D02               	goto	u6280
  8466  1D01                     u6281:	
  8467  1D01  2D09               	goto	l4350
  8468  1D02                     u6280:	
  8469  1D02                     l4346:	
  8470  1D02  09F0               	comf	___awdiv@divisor,f
  8471  1D03  09F1               	comf	___awdiv@divisor+1,f
  8472  1D04  0AF0               	incf	___awdiv@divisor,f
  8473  1D05  1903               	skipnz
  8474  1D06  0AF1               	incf	___awdiv@divisor+1,f
  8475  1D07                     l4348:	
  8476  1D07  01F6               	clrf	___awdiv@sign
  8477  1D08  0AF6               	incf	___awdiv@sign,f
  8478  1D09                     l4350:	
  8479  1D09  1FF3               	btfss	___awdiv@dividend+1,7
  8480  1D0A  2D0C               	goto	u6291
  8481  1D0B  2D0D               	goto	u6290
  8482  1D0C                     u6291:	
  8483  1D0C  2D16               	goto	l4356
  8484  1D0D                     u6290:	
  8485  1D0D                     l4352:	
  8486  1D0D  09F2               	comf	___awdiv@dividend,f
  8487  1D0E  09F3               	comf	___awdiv@dividend+1,f
  8488  1D0F  0AF2               	incf	___awdiv@dividend,f
  8489  1D10  1903               	skipnz
  8490  1D11  0AF3               	incf	___awdiv@dividend+1,f
  8491  1D12                     l4354:	
  8492  1D12  3001               	movlw	1
  8493  1D13  00F4               	movwf	??___awdiv
  8494  1D14  0874               	movf	??___awdiv,w
  8495  1D15  06F6               	xorwf	___awdiv@sign,f
  8496  1D16                     l4356:	
  8497  1D16  01F7               	clrf	___awdiv@quotient
  8498  1D17  01F8               	clrf	___awdiv@quotient+1
  8499  1D18                     l4358:	
  8500  1D18  0870               	movf	___awdiv@divisor,w
  8501  1D19  0471               	iorwf	___awdiv@divisor+1,w
  8502  1D1A  1903               	btfsc	3,2
  8503  1D1B  2D1D               	goto	u6301
  8504  1D1C  2D1E               	goto	u6300
  8505  1D1D                     u6301:	
  8506  1D1D  2D55               	goto	l4378
  8507  1D1E                     u6300:	
  8508  1D1E                     l4360:	
  8509  1D1E  01F5               	clrf	___awdiv@counter
  8510  1D1F  0AF5               	incf	___awdiv@counter,f
  8511  1D20  2D2C               	goto	l4366
  8512  1D21                     l4362:	
  8513  1D21  3001               	movlw	1
  8514  1D22                     u6315:	
  8515  1D22  1003               	clrc
  8516  1D23  0DF0               	rlf	___awdiv@divisor,f
  8517  1D24  0DF1               	rlf	___awdiv@divisor+1,f
  8518  1D25  3EFF               	addlw	-1
  8519  1D26  1D03               	skipz
  8520  1D27  2D22               	goto	u6315
  8521  1D28                     l4364:	
  8522  1D28  3001               	movlw	1
  8523  1D29  00F4               	movwf	??___awdiv
  8524  1D2A  0874               	movf	??___awdiv,w
  8525  1D2B  07F5               	addwf	___awdiv@counter,f
  8526  1D2C                     l4366:	
  8527  1D2C  1FF1               	btfss	___awdiv@divisor+1,7
  8528  1D2D  2D2F               	goto	u6321
  8529  1D2E  2D30               	goto	u6320
  8530  1D2F                     u6321:	
  8531  1D2F  2D21               	goto	l4362
  8532  1D30                     u6320:	
  8533  1D30                     l4368:	
  8534  1D30  3001               	movlw	1
  8535  1D31                     u6335:	
  8536  1D31  1003               	clrc
  8537  1D32  0DF7               	rlf	___awdiv@quotient,f
  8538  1D33  0DF8               	rlf	___awdiv@quotient+1,f
  8539  1D34  3EFF               	addlw	-1
  8540  1D35  1D03               	skipz
  8541  1D36  2D31               	goto	u6335
  8542  1D37  0871               	movf	___awdiv@divisor+1,w
  8543  1D38  0273               	subwf	___awdiv@dividend+1,w
  8544  1D39  1D03               	skipz
  8545  1D3A  2D3D               	goto	u6345
  8546  1D3B  0870               	movf	___awdiv@divisor,w
  8547  1D3C  0272               	subwf	___awdiv@dividend,w
  8548  1D3D                     u6345:	
  8549  1D3D  1C03               	skipc
  8550  1D3E  2D40               	goto	u6341
  8551  1D3F  2D41               	goto	u6340
  8552  1D40                     u6341:	
  8553  1D40  2D48               	goto	l4374
  8554  1D41                     u6340:	
  8555  1D41                     l4370:	
  8556  1D41  0870               	movf	___awdiv@divisor,w
  8557  1D42  02F2               	subwf	___awdiv@dividend,f
  8558  1D43  0871               	movf	___awdiv@divisor+1,w
  8559  1D44  1C03               	skipc
  8560  1D45  03F3               	decf	___awdiv@dividend+1,f
  8561  1D46  02F3               	subwf	___awdiv@dividend+1,f
  8562  1D47                     l4372:	
  8563  1D47  1477               	bsf	___awdiv@quotient,0
  8564  1D48                     l4374:	
  8565  1D48  3001               	movlw	1
  8566  1D49                     u6355:	
  8567  1D49  1003               	clrc
  8568  1D4A  0CF1               	rrf	___awdiv@divisor+1,f
  8569  1D4B  0CF0               	rrf	___awdiv@divisor,f
  8570  1D4C  3EFF               	addlw	-1
  8571  1D4D  1D03               	skipz
  8572  1D4E  2D49               	goto	u6355
  8573  1D4F                     l4376:	
  8574  1D4F  3001               	movlw	1
  8575  1D50  02F5               	subwf	___awdiv@counter,f
  8576  1D51  1D03               	btfss	3,2
  8577  1D52  2D54               	goto	u6361
  8578  1D53  2D55               	goto	u6360
  8579  1D54                     u6361:	
  8580  1D54  2D30               	goto	l4368
  8581  1D55                     u6360:	
  8582  1D55                     l4378:	
  8583  1D55  0876               	movf	___awdiv@sign,w
  8584  1D56  1903               	btfsc	3,2
  8585  1D57  2D59               	goto	u6371
  8586  1D58  2D5A               	goto	u6370
  8587  1D59                     u6371:	
  8588  1D59  2D5F               	goto	l4382
  8589  1D5A                     u6370:	
  8590  1D5A                     l4380:	
  8591  1D5A  09F7               	comf	___awdiv@quotient,f
  8592  1D5B  09F8               	comf	___awdiv@quotient+1,f
  8593  1D5C  0AF7               	incf	___awdiv@quotient,f
  8594  1D5D  1903               	skipnz
  8595  1D5E  0AF8               	incf	___awdiv@quotient+1,f
  8596  1D5F                     l4382:	
  8597  1D5F  0878               	movf	___awdiv@quotient+1,w
  8598  1D60  00F1               	movwf	?___awdiv+1
  8599  1D61  0877               	movf	___awdiv@quotient,w
  8600  1D62  00F0               	movwf	?___awdiv
  8601  1D63                     l448:	
  8602  1D63  0008               	return
  8603  1D64                     __end_of___awdiv:	
  8604                           
  8605                           	psect	text33
  8606  1ED2                     __ptext33:	
  8607 ;; *************** function _ADCread3 *****************
  8608 ;; Defined at:
  8609 ;;		line 182 in file "./LCD2.h"
  8610 ;; Parameters:    Size  Location     Type
  8611 ;;		None
  8612 ;; Auto vars:     Size  Location     Type
  8613 ;;		None
  8614 ;; Return value:  Size  Location     Type
  8615 ;;                  1    wreg      void 
  8616 ;; Registers used:
  8617 ;;		wreg, fsr0l, fsr0h, status,2, status,0, btemp+1, pclath, cstack
  8618 ;; Tracked objects:
  8619 ;;		On entry : 0/0
  8620 ;;		On exit  : 0/0
  8621 ;;		Unchanged: 0/0
  8622 ;; Data sizes:     COMMON   BANK0   BANK1   BANK3   BANK2
  8623 ;;      Params:         0       0       0       0       0
  8624 ;;      Locals:         0       0       0       0       0
  8625 ;;      Temps:          0       4       0       0       0
  8626 ;;      Totals:         0       4       0       0       0
  8627 ;;Total ram usage:        4 bytes
  8628 ;; Hardware stack levels used:    1
  8629 ;; Hardware stack levels required when called:    3
  8630 ;; This function calls:
  8631 ;;		___fldiv
  8632 ;;		___flmul
  8633 ;;		___fltol
  8634 ;;		___xxtofl
  8635 ;;		_itoa
  8636 ;;		_word
  8637 ;; This function is called by:
  8638 ;;		_Recieve
  8639 ;; This function uses a non-reentrant model
  8640 ;;
  8641                           
  8642                           
  8643                           ;psect for function _ADCread3
  8644  1ED2                     _ADCread3:	
  8645  1ED2                     l4616:	
  8646                           ;incstack = 0
  8647                           ; Regs used in _ADCread3: [wreg-fsr0h+status,2+status,0+btemp+1+pclath+cstack]
  8648                           
  8649                           
  8650                           ;./LCD2.h: 185:     enviar= RCREG;
  8651  1ED2  1283               	bcf	3,5	;RP0=0, select bank0
  8652  1ED3  1303               	bcf	3,6	;RP1=0, select bank0
  8653  1ED4  081A               	movf	26,w	;volatile
  8654  1ED5  00E6               	movwf	??_ADCread3
  8655  1ED6  0866               	movf	??_ADCread3,w
  8656  1ED7  1683               	bsf	3,5	;RP0=1, select bank1
  8657  1ED8  1303               	bcf	3,6	;RP1=0, select bank1
  8658  1ED9  00EA               	movwf	_enviar^(0+128)
  8659  1EDA                     l4618:	
  8660                           
  8661                           ;./LCD2.h: 186:     voltaje=enviar*5.0/255.0;
  8662  1EDA  3043               	movlw	67
  8663  1EDB  1283               	bcf	3,5	;RP0=0, select bank0
  8664  1EDC  1303               	bcf	3,6	;RP1=0, select bank0
  8665  1EDD  00DC               	movwf	___fldiv@a+3
  8666  1EDE  307F               	movlw	127
  8667  1EDF  00DB               	movwf	___fldiv@a+2
  8668  1EE0  3000               	movlw	0
  8669  1EE1  00DA               	movwf	___fldiv@a+1
  8670  1EE2  3000               	movlw	0
  8671  1EE3  00D9               	movwf	___fldiv@a
  8672  1EE4  3040               	movlw	64
  8673  1EE5  00C2               	movwf	___flmul@b+3
  8674  1EE6  30A0               	movlw	160
  8675  1EE7  00C1               	movwf	___flmul@b+2
  8676  1EE8  3000               	movlw	0
  8677  1EE9  00C0               	movwf	___flmul@b+1
  8678  1EEA  3000               	movlw	0
  8679  1EEB  00BF               	movwf	___flmul@b
  8680  1EEC  1683               	bsf	3,5	;RP0=1, select bank1
  8681  1EED  1303               	bcf	3,6	;RP1=0, select bank1
  8682  1EEE  086A               	movf	_enviar^(0+128),w
  8683  1EEF  1283               	bcf	3,5	;RP0=0, select bank0
  8684  1EF0  1303               	bcf	3,6	;RP1=0, select bank0
  8685  1EF1  00E6               	movwf	??_ADCread3
  8686  1EF2  01E7               	clrf	??_ADCread3+1
  8687  1EF3  01E8               	clrf	??_ADCread3+2
  8688  1EF4  01E9               	clrf	??_ADCread3+3
  8689  1EF5  0869               	movf	??_ADCread3+3,w
  8690  1EF6  00A3               	movwf	___xxtofl@val+3
  8691  1EF7  0868               	movf	??_ADCread3+2,w
  8692  1EF8  00A2               	movwf	___xxtofl@val+2
  8693  1EF9  0867               	movf	??_ADCread3+1,w
  8694  1EFA  00A1               	movwf	___xxtofl@val+1
  8695  1EFB  0866               	movf	??_ADCread3,w
  8696  1EFC  00A0               	movwf	___xxtofl@val
  8697  1EFD  3001               	movlw	1
  8698  1EFE  160A  118A  235E  160A  158A  	fcall	___xxtofl
  8699  1F03  1283               	bcf	3,5	;RP0=0, select bank0
  8700  1F04  1303               	bcf	3,6	;RP1=0, select bank0
  8701  1F05  0823               	movf	?___xxtofl+3,w
  8702  1F06  00C6               	movwf	___flmul@a+3
  8703  1F07  0822               	movf	?___xxtofl+2,w
  8704  1F08  00C5               	movwf	___flmul@a+2
  8705  1F09  0821               	movf	?___xxtofl+1,w
  8706  1F0A  00C4               	movwf	___flmul@a+1
  8707  1F0B  0820               	movf	?___xxtofl,w
  8708  1F0C  00C3               	movwf	___flmul@a
  8709  1F0D  120A  118A  248A  160A  158A  	fcall	___flmul
  8710  1F12  1283               	bcf	3,5	;RP0=0, select bank0
  8711  1F13  1303               	bcf	3,6	;RP1=0, select bank0
  8712  1F14  0842               	movf	?___flmul+3,w
  8713  1F15  00E0               	movwf	___fldiv@b+3
  8714  1F16  0841               	movf	?___flmul+2,w
  8715  1F17  00DF               	movwf	___fldiv@b+2
  8716  1F18  0840               	movf	?___flmul+1,w
  8717  1F19  00DE               	movwf	___fldiv@b+1
  8718  1F1A  083F               	movf	?___flmul,w
  8719  1F1B  00DD               	movwf	___fldiv@b
  8720  1F1C  120A  118A  21EA  160A  158A  	fcall	___fldiv
  8721  1F21  1283               	bcf	3,5	;RP0=0, select bank0
  8722  1F22  1303               	bcf	3,6	;RP1=0, select bank0
  8723  1F23  085C               	movf	?___fldiv+3,w
  8724  1F24  1683               	bsf	3,5	;RP0=1, select bank3
  8725  1F25  1703               	bsf	3,6	;RP1=1, select bank3
  8726  1F26  0097               	movwf	(_voltaje+3)^(0+384)
  8727  1F27  1283               	bcf	3,5	;RP0=0, select bank0
  8728  1F28  1303               	bcf	3,6	;RP1=0, select bank0
  8729  1F29  085B               	movf	?___fldiv+2,w
  8730  1F2A  1683               	bsf	3,5	;RP0=1, select bank3
  8731  1F2B  1703               	bsf	3,6	;RP1=1, select bank3
  8732  1F2C  0096               	movwf	(_voltaje+2)^(0+384)
  8733  1F2D  1283               	bcf	3,5	;RP0=0, select bank0
  8734  1F2E  1303               	bcf	3,6	;RP1=0, select bank0
  8735  1F2F  085A               	movf	?___fldiv+1,w
  8736  1F30  1683               	bsf	3,5	;RP0=1, select bank3
  8737  1F31  1703               	bsf	3,6	;RP1=1, select bank3
  8738  1F32  0095               	movwf	(_voltaje+1)^(0+384)
  8739  1F33  1283               	bcf	3,5	;RP0=0, select bank0
  8740  1F34  1303               	bcf	3,6	;RP1=0, select bank0
  8741  1F35  0859               	movf	?___fldiv,w
  8742  1F36  1683               	bsf	3,5	;RP0=1, select bank3
  8743  1F37  1703               	bsf	3,6	;RP1=1, select bank3
  8744  1F38  0094               	movwf	_voltaje^(0+384)
  8745  1F39                     l4620:	
  8746                           
  8747                           ;./LCD2.h: 187:      itoa(guardar,voltaje,10);
  8748  1F39  0817               	movf	(_voltaje+3)^(0+384),w
  8749  1F3A  00F3               	movwf	___fltol@f1+3
  8750  1F3B  0816               	movf	(_voltaje+2)^(0+384),w
  8751  1F3C  00F2               	movwf	___fltol@f1+2
  8752  1F3D  0815               	movf	(_voltaje+1)^(0+384),w
  8753  1F3E  00F1               	movwf	___fltol@f1+1
  8754  1F3F  0814               	movf	_voltaje^(0+384),w
  8755  1F40  00F0               	movwf	___fltol@f1
  8756  1F41  160A  158A  25DC  160A  158A  	fcall	___fltol
  8757  1F46  0871               	movf	?___fltol+1,w
  8758  1F47  1283               	bcf	3,5	;RP0=0, select bank0
  8759  1F48  1303               	bcf	3,6	;RP1=0, select bank0
  8760  1F49  00A5               	movwf	itoa@val+1
  8761  1F4A  0870               	movf	?___fltol,w
  8762  1F4B  00A4               	movwf	itoa@val
  8763  1F4C  300A               	movlw	10
  8764  1F4D  00A6               	movwf	itoa@base
  8765  1F4E  3000               	movlw	0
  8766  1F4F  00A7               	movwf	itoa@base+1
  8767  1F50  30A4               	movlw	(low (_guardar| (0+256)))& (0+255)
  8768  1F51  160A  158A  21E0  160A  158A  	fcall	_itoa
  8769  1F56                     l4622:	
  8770                           
  8771                           ;./LCD2.h: 190:     word(guardar);
  8772  1F56  30A4               	movlw	(low (_guardar| (0+256)))& (0+255)
  8773  1F57  00F3               	movwf	word@a
  8774  1F58  3001               	movlw	1
  8775  1F59  00F4               	movwf	word@a+1
  8776  1F5A  160A  158A  2294  160A  158A  	fcall	_word
  8777  1F5F                     l129:	
  8778  1F5F  0008               	return
  8779  1F60                     __end_of_ADCread3:	
  8780                           
  8781                           	psect	text34
  8782  1A94                     __ptext34:	
  8783 ;; *************** function _word *****************
  8784 ;; Defined at:
  8785 ;;		line 111 in file "./LCD2.h"
  8786 ;; Parameters:    Size  Location     Type
  8787 ;;  a               2    3[COMMON] PTR unsigned char 
  8788 ;;		 -> STR_5(2), STR_4(2), STR_3(3), STR_2(3), 
  8789 ;;		 -> STR_1(3), guardar2(10), guardar(10), 
  8790 ;; Auto vars:     Size  Location     Type
  8791 ;;  i               2    8[COMMON] int 
  8792 ;; Return value:  Size  Location     Type
  8793 ;;                  1    wreg      void 
  8794 ;; Registers used:
  8795 ;;		wreg, fsr0l, fsr0h, status,2, status,0, btemp+1, pclath, cstack
  8796 ;; Tracked objects:
  8797 ;;		On entry : 0/0
  8798 ;;		On exit  : 0/0
  8799 ;;		Unchanged: 0/0
  8800 ;; Data sizes:     COMMON   BANK0   BANK1   BANK3   BANK2
  8801 ;;      Params:         2       0       0       0       0
  8802 ;;      Locals:         2       0       0       0       0
  8803 ;;      Temps:          3       0       0       0       0
  8804 ;;      Totals:         7       0       0       0       0
  8805 ;;Total ram usage:        7 bytes
  8806 ;; Hardware stack levels used:    1
  8807 ;; Hardware stack levels required when called:    2
  8808 ;; This function calls:
  8809 ;;		_letra
  8810 ;; This function is called by:
  8811 ;;		_lee1
  8812 ;;		_lee2
  8813 ;;		_lee3
  8814 ;;		_lee4
  8815 ;;		_ADCread3
  8816 ;;		_ADCread4
  8817 ;;		_main
  8818 ;; This function uses a non-reentrant model
  8819 ;;
  8820                           
  8821                           
  8822                           ;psect for function _word
  8823  1A94                     _word:	
  8824  1A94                     l4576:	
  8825                           ;incstack = 0
  8826                           ; Regs used in _word: [wreg-fsr0h+status,2+status,0+btemp+1+pclath+cstack]
  8827                           
  8828                           
  8829                           ;./LCD2.h: 111: void word(char *a);./LCD2.h: 112: {;./LCD2.h: 113:  int i;;./LCD2.h: 114
      +                          :  for(i=0;a[i]!='\0';i++)
  8830  1A94  01F8               	clrf	word@i
  8831  1A95  01F9               	clrf	word@i+1
  8832  1A96  2AB9               	goto	l4582
  8833  1A97                     l4578:	
  8834                           
  8835                           ;./LCD2.h: 115:     letra(a[i]);
  8836  1A97  0878               	movf	word@i,w
  8837  1A98  0773               	addwf	word@a,w
  8838  1A99  00F6               	movwf	??_word+1
  8839  1A9A  0874               	movf	word@a+1,w
  8840  1A9B  00F5               	movwf	??_word
  8841  1A9C  1803               	skipnc
  8842  1A9D  0AF5               	incf	??_word,f
  8843  1A9E  1FF8               	btfss	word@i,7
  8844  1A9F  2AA1               	goto	u6650
  8845  1AA0  03F5               	decf	??_word,f
  8846  1AA1                     u6650:	
  8847  1AA1  0875               	movf	??_word,w
  8848  1AA2  00F7               	movwf	??_word+2
  8849  1AA3  0877               	movf	??_word+2,w
  8850  1AA4  1283               	bcf	3,5	;RP0=0, select bank0
  8851  1AA5  1303               	bcf	3,6	;RP1=0, select bank0
  8852  1AA6  00FF               	movwf	btemp+1
  8853  1AA7  0876               	movf	??_word+1,w
  8854  1AA8  0084               	movwf	4
  8855  1AA9  160A  158A  2000  160A  158A  	fcall	stringtab
  8856  1AAE  160A  158A  21AC  160A  158A  	fcall	_letra
  8857  1AB3                     l4580:	
  8858  1AB3  3001               	movlw	1
  8859  1AB4  07F8               	addwf	word@i,f
  8860  1AB5  1803               	skipnc
  8861  1AB6  0AF9               	incf	word@i+1,f
  8862  1AB7  3000               	movlw	0
  8863  1AB8  07F9               	addwf	word@i+1,f
  8864  1AB9                     l4582:	
  8865  1AB9  0878               	movf	word@i,w
  8866  1ABA  0773               	addwf	word@a,w
  8867  1ABB  00F6               	movwf	??_word+1
  8868  1ABC  0874               	movf	word@a+1,w
  8869  1ABD  00F5               	movwf	??_word
  8870  1ABE  1803               	skipnc
  8871  1ABF  0AF5               	incf	??_word,f
  8872  1AC0  1FF8               	btfss	word@i,7
  8873  1AC1  2AC3               	goto	u6660
  8874  1AC2  03F5               	decf	??_word,f
  8875  1AC3                     u6660:	
  8876  1AC3  0875               	movf	??_word,w
  8877  1AC4  00F7               	movwf	??_word+2
  8878  1AC5  0877               	movf	??_word+2,w
  8879  1AC6  1283               	bcf	3,5	;RP0=0, select bank0
  8880  1AC7  1303               	bcf	3,6	;RP1=0, select bank0
  8881  1AC8  00FF               	movwf	btemp+1
  8882  1AC9  0876               	movf	??_word+1,w
  8883  1ACA  0084               	movwf	4
  8884  1ACB  160A  158A  2000  160A  158A  	fcall	stringtab
  8885  1AD0  3A00               	xorlw	0
  8886  1AD1  1D03               	skipz
  8887  1AD2  2AD4               	goto	u6671
  8888  1AD3  2AD5               	goto	u6670
  8889  1AD4                     u6671:	
  8890  1AD4  2A97               	goto	l4578
  8891  1AD5                     u6670:	
  8892  1AD5                     l108:	
  8893  1AD5  0008               	return
  8894  1AD6                     __end_of_word:	
  8895                           
  8896                           	psect	text35
  8897  19AC                     __ptext35:	
  8898 ;; *************** function _letra *****************
  8899 ;; Defined at:
  8900 ;;		line 100 in file "./LCD2.h"
  8901 ;; Parameters:    Size  Location     Type
  8902 ;;  E               1    wreg     unsigned char 
  8903 ;; Auto vars:     Size  Location     Type
  8904 ;;  E               1    2[COMMON] unsigned char 
  8905 ;; Return value:  Size  Location     Type
  8906 ;;                  1    wreg      void 
  8907 ;; Registers used:
  8908 ;;		wreg, status,2, status,0, pclath, cstack
  8909 ;; Tracked objects:
  8910 ;;		On entry : 0/0
  8911 ;;		On exit  : 0/0
  8912 ;;		Unchanged: 0/0
  8913 ;; Data sizes:     COMMON   BANK0   BANK1   BANK3   BANK2
  8914 ;;      Params:         0       0       0       0       0
  8915 ;;      Locals:         1       0       0       0       0
  8916 ;;      Temps:          1       0       0       0       0
  8917 ;;      Totals:         2       0       0       0       0
  8918 ;;Total ram usage:        2 bytes
  8919 ;; Hardware stack levels used:    1
  8920 ;; Hardware stack levels required when called:    1
  8921 ;; This function calls:
  8922 ;;		_port
  8923 ;; This function is called by:
  8924 ;;		_word
  8925 ;; This function uses a non-reentrant model
  8926 ;;
  8927                           
  8928                           
  8929                           ;psect for function _letra
  8930  19AC                     _letra:	
  8931                           
  8932                           ;incstack = 0
  8933                           ; Regs used in _letra: [wreg+status,2+status,0+pclath+cstack]
  8934                           ;letra@E stored from wreg
  8935  19AC  00F2               	movwf	letra@E
  8936  19AD                     l4492:	
  8937                           
  8938                           ;./LCD2.h: 100: void letra(char E);./LCD2.h: 101: {;./LCD2.h: 102:    PORTDbits.RD0 = 1;
  8939  19AD  1283               	bcf	3,5	;RP0=0, select bank0
  8940  19AE  1303               	bcf	3,6	;RP1=0, select bank0
  8941  19AF  1408               	bsf	8,0	;volatile
  8942  19B0                     l4494:	
  8943                           
  8944                           ;./LCD2.h: 103:    port(E);
  8945  19B0  0872               	movf	letra@E,w
  8946  19B1  160A  158A  2163  160A  158A  	fcall	_port
  8947  19B6                     l4496:	
  8948                           
  8949                           ;./LCD2.h: 104:    PORTDbits.RD2 = 1;
  8950  19B6  1283               	bcf	3,5	;RP0=0, select bank0
  8951  19B7  1303               	bcf	3,6	;RP1=0, select bank0
  8952  19B8  1508               	bsf	8,2	;volatile
  8953  19B9                     l4498:	
  8954                           
  8955                           ;./LCD2.h: 105:    _delay((unsigned long)((40)*(8000000/4000000.0)));
  8956  19B9  301A               	movlw	26
  8957  19BA  00F1               	movwf	??_letra
  8958  19BB                     u6967:	
  8959  19BB  0BF1               	decfsz	??_letra,f
  8960  19BC  29BB               	goto	u6967
  8961  19BD  0000               	nop
  8962  19BE                     l4500:	
  8963                           
  8964                           ;./LCD2.h: 106:    PORTDbits.RD2 = 0;
  8965  19BE  1283               	bcf	3,5	;RP0=0, select bank0
  8966  19BF  1303               	bcf	3,6	;RP1=0, select bank0
  8967  19C0  1108               	bcf	8,2	;volatile
  8968  19C1                     l102:	
  8969  19C1  0008               	return
  8970  19C2                     __end_of_letra:	
  8971                           
  8972                           	psect	text36
  8973  1963                     __ptext36:	
  8974 ;; *************** function _port *****************
  8975 ;; Defined at:
  8976 ;;		line 44 in file "./LCD2.h"
  8977 ;; Parameters:    Size  Location     Type
  8978 ;;  E               1    wreg     unsigned char 
  8979 ;; Auto vars:     Size  Location     Type
  8980 ;;  E               1    0[COMMON] unsigned char 
  8981 ;; Return value:  Size  Location     Type
  8982 ;;                  1    wreg      void 
  8983 ;; Registers used:
  8984 ;;		wreg
  8985 ;; Tracked objects:
  8986 ;;		On entry : 0/0
  8987 ;;		On exit  : 0/0
  8988 ;;		Unchanged: 0/0
  8989 ;; Data sizes:     COMMON   BANK0   BANK1   BANK3   BANK2
  8990 ;;      Params:         0       0       0       0       0
  8991 ;;      Locals:         1       0       0       0       0
  8992 ;;      Temps:          0       0       0       0       0
  8993 ;;      Totals:         1       0       0       0       0
  8994 ;;Total ram usage:        1 bytes
  8995 ;; Hardware stack levels used:    1
  8996 ;; This function calls:
  8997 ;;		Nothing
  8998 ;; This function is called by:
  8999 ;;		_com
  9000 ;;		_letra
  9001 ;; This function uses a non-reentrant model
  9002 ;;
  9003                           
  9004                           
  9005                           ;psect for function _port
  9006  1963                     _port:	
  9007                           
  9008                           ;incstack = 0
  9009                           ; Regs used in _port: [wreg]
  9010                           ;port@E stored from wreg
  9011  1963  00F0               	movwf	port@E
  9012  1964                     l4328:	
  9013                           
  9014                           ;./LCD2.h: 45:     PORTA = E;
  9015  1964  0870               	movf	port@E,w
  9016  1965  1283               	bcf	3,5	;RP0=0, select bank0
  9017  1966  1303               	bcf	3,6	;RP1=0, select bank0
  9018  1967  0085               	movwf	5	;volatile
  9019  1968                     l84:	
  9020  1968  0008               	return
  9021  1969                     __end_of_port:	
  9022                           
  9023                           	psect	text37
  9024  19E0                     __ptext37:	
  9025 ;; *************** function _itoa *****************
  9026 ;; Defined at:
  9027 ;;		line 4 in file "C:\Program Files (x86)\Microchip\xc8\v2.10\pic\sources\c90\common\itoa.c"
  9028 ;; Parameters:    Size  Location     Type
  9029 ;;  buf             1    wreg     PTR unsigned char 
  9030 ;;		 -> guardar2(10), guardar(10), 
  9031 ;;  val             2    4[BANK0 ] int 
  9032 ;;  base            2    6[BANK0 ] int 
  9033 ;; Auto vars:     Size  Location     Type
  9034 ;;  buf             1    9[BANK0 ] PTR unsigned char 
  9035 ;;		 -> guardar2(10), guardar(10), 
  9036 ;;  cp              1    0        PTR unsigned char 
  9037 ;;		 -> guardar2(10), guardar(10), 
  9038 ;; Return value:  Size  Location     Type
  9039 ;;                  1    wreg      PTR unsigned char 
  9040 ;; Registers used:
  9041 ;;		wreg, fsr0l, fsr0h, status,2, status,0, pclath, cstack
  9042 ;; Tracked objects:
  9043 ;;		On entry : 0/0
  9044 ;;		On exit  : 0/0
  9045 ;;		Unchanged: 0/0
  9046 ;; Data sizes:     COMMON   BANK0   BANK1   BANK3   BANK2
  9047 ;;      Params:         0       4       0       0       0
  9048 ;;      Locals:         0       2       0       0       0
  9049 ;;      Temps:          1       0       0       0       0
  9050 ;;      Totals:         1       6       0       0       0
  9051 ;;Total ram usage:        7 bytes
  9052 ;; Hardware stack levels used:    1
  9053 ;; Hardware stack levels required when called:    2
  9054 ;; This function calls:
  9055 ;;		_utoa
  9056 ;; This function is called by:
  9057 ;;		_lee2
  9058 ;;		_lee4
  9059 ;;		_ADCread3
  9060 ;; This function uses a non-reentrant model
  9061 ;;
  9062                           
  9063                           
  9064                           ;psect for function _itoa
  9065  19E0                     _itoa:	
  9066                           
  9067                           ;incstack = 0
  9068                           ; Regs used in _itoa: [wreg-fsr0h+status,2+status,0+pclath+cstack]
  9069                           ;itoa@buf stored from wreg
  9070  19E0  1283               	bcf	3,5	;RP0=0, select bank0
  9071  19E1  1303               	bcf	3,6	;RP1=0, select bank0
  9072  19E2  00A9               	movwf	itoa@buf
  9073  19E3                     l3352:	
  9074  19E3                     l3354:	
  9075  19E3  1FA5               	btfss	itoa@val+1,7
  9076  19E4  29E6               	goto	u4561
  9077  19E5  29E7               	goto	u4560
  9078  19E6                     u4561:	
  9079  19E6  29F7               	goto	l3362
  9080  19E7                     u4560:	
  9081  19E7                     l3356:	
  9082  19E7  302D               	movlw	45
  9083  19E8  00FD               	movwf	??_itoa
  9084  19E9  0829               	movf	itoa@buf,w
  9085  19EA  0084               	movwf	4
  9086  19EB  087D               	movf	??_itoa,w
  9087  19EC  1783               	bsf	3,7	;select IRP bank2
  9088  19ED  0080               	movwf	0
  9089  19EE                     l3358:	
  9090  19EE  3001               	movlw	1
  9091  19EF  00FD               	movwf	??_itoa
  9092  19F0  087D               	movf	??_itoa,w
  9093  19F1  07A9               	addwf	itoa@buf,f
  9094  19F2                     l3360:	
  9095  19F2  09A4               	comf	itoa@val,f
  9096  19F3  09A5               	comf	itoa@val+1,f
  9097  19F4  0AA4               	incf	itoa@val,f
  9098  19F5  1903               	skipnz
  9099  19F6  0AA5               	incf	itoa@val+1,f
  9100  19F7                     l3362:	
  9101  19F7  0825               	movf	itoa@val+1,w
  9102  19F8  00F9               	movwf	utoa@val+1
  9103  19F9  0824               	movf	itoa@val,w
  9104  19FA  00F8               	movwf	utoa@val
  9105  19FB  0827               	movf	itoa@base+1,w
  9106  19FC  00FB               	movwf	utoa@base+1
  9107  19FD  0826               	movf	itoa@base,w
  9108  19FE  00FA               	movwf	utoa@base
  9109  19FF  0829               	movf	itoa@buf,w
  9110  1A00  120A  158A  2001  160A  158A  	fcall	_utoa
  9111  1A05                     l743:	
  9112  1A05  0008               	return
  9113  1A06                     __end_of_itoa:	
  9114                           
  9115                           	psect	text38
  9116  0801                     __ptext38:	
  9117 ;; *************** function _utoa *****************
  9118 ;; Defined at:
  9119 ;;		line 17 in file "C:\Program Files (x86)\Microchip\xc8\v2.10\pic\sources\c90\common\itoa.c"
  9120 ;; Parameters:    Size  Location     Type
  9121 ;;  buf             1    wreg     PTR unsigned char 
  9122 ;;		 -> guardar2(10), guardar(10), 
  9123 ;;  val             2    8[COMMON] unsigned int 
  9124 ;;  base            2   10[COMMON] int 
  9125 ;; Auto vars:     Size  Location     Type
  9126 ;;  buf             1    3[BANK0 ] PTR unsigned char 
  9127 ;;		 -> guardar2(10), guardar(10), 
  9128 ;;  v               2    0[BANK0 ] unsigned int 
  9129 ;;  c               1    2[BANK0 ] unsigned char 
  9130 ;; Return value:  Size  Location     Type
  9131 ;;                  1    wreg      PTR unsigned char 
  9132 ;; Registers used:
  9133 ;;		wreg, fsr0l, fsr0h, status,2, status,0, pclath, cstack
  9134 ;; Tracked objects:
  9135 ;;		On entry : 0/0
  9136 ;;		On exit  : 0/0
  9137 ;;		Unchanged: 0/0
  9138 ;; Data sizes:     COMMON   BANK0   BANK1   BANK3   BANK2
  9139 ;;      Params:         4       0       0       0       0
  9140 ;;      Locals:         0       4       0       0       0
  9141 ;;      Temps:          1       0       0       0       0
  9142 ;;      Totals:         5       4       0       0       0
  9143 ;;Total ram usage:        9 bytes
  9144 ;; Hardware stack levels used:    1
  9145 ;; Hardware stack levels required when called:    1
  9146 ;; This function calls:
  9147 ;;		___lwdiv
  9148 ;;		___lwmod
  9149 ;; This function is called by:
  9150 ;;		_itoa
  9151 ;; This function uses a non-reentrant model
  9152 ;;
  9153                           
  9154                           
  9155                           ;psect for function _utoa
  9156  0801                     _utoa:	
  9157                           
  9158                           ;incstack = 0
  9159                           ; Regs used in _utoa: [wreg-fsr0h+status,2+status,0+pclath+cstack]
  9160                           ;utoa@buf stored from wreg
  9161  0801  1283               	bcf	3,5	;RP0=0, select bank0
  9162  0802  1303               	bcf	3,6	;RP1=0, select bank0
  9163  0803  00A3               	movwf	utoa@buf
  9164  0804                     l3286:	
  9165  0804  0879               	movf	utoa@val+1,w
  9166  0805  00A1               	movwf	utoa@v+1
  9167  0806  0878               	movf	utoa@val,w
  9168  0807  00A0               	movwf	utoa@v
  9169  0808                     l3288:	
  9170  0808  087B               	movf	utoa@base+1,w
  9171  0809  00F1               	movwf	___lwdiv@divisor+1
  9172  080A  087A               	movf	utoa@base,w
  9173  080B  00F0               	movwf	___lwdiv@divisor
  9174  080C  0821               	movf	utoa@v+1,w
  9175  080D  00F3               	movwf	___lwdiv@dividend+1
  9176  080E  0820               	movf	utoa@v,w
  9177  080F  00F2               	movwf	___lwdiv@dividend
  9178  0810  160A  158A  2319  120A  158A  	fcall	___lwdiv
  9179  0815  0871               	movf	?___lwdiv+1,w
  9180  0816  1283               	bcf	3,5	;RP0=0, select bank0
  9181  0817  1303               	bcf	3,6	;RP1=0, select bank0
  9182  0818  00A1               	movwf	utoa@v+1
  9183  0819  0870               	movf	?___lwdiv,w
  9184  081A  00A0               	movwf	utoa@v
  9185  081B                     l3290:	
  9186  081B  3001               	movlw	1
  9187  081C  00FC               	movwf	??_utoa
  9188  081D  087C               	movf	??_utoa,w
  9189  081E  07A3               	addwf	utoa@buf,f
  9190  081F                     l3292:	
  9191  081F  0820               	movf	utoa@v,w
  9192  0820  0421               	iorwf	utoa@v+1,w
  9193  0821  1D03               	btfss	3,2
  9194  0822  2824               	goto	u4491
  9195  0823  2825               	goto	u4490
  9196  0824                     u4491:	
  9197  0824  2808               	goto	l3288
  9198  0825                     u4490:	
  9199  0825                     l3294:	
  9200  0825  0823               	movf	utoa@buf,w
  9201  0826  0084               	movwf	4
  9202  0827  1783               	bsf	3,7	;select IRP bank2
  9203  0828  0180               	clrf	0
  9204  0829                     l3296:	
  9205  0829  3001               	movlw	1
  9206  082A  02A3               	subwf	utoa@buf,f
  9207  082B                     l3298:	
  9208  082B  087B               	movf	utoa@base+1,w
  9209  082C  00F1               	movwf	___lwmod@divisor+1
  9210  082D  087A               	movf	utoa@base,w
  9211  082E  00F0               	movwf	___lwmod@divisor
  9212  082F  0879               	movf	utoa@val+1,w
  9213  0830  00F3               	movwf	___lwmod@dividend+1
  9214  0831  0878               	movf	utoa@val,w
  9215  0832  00F2               	movwf	___lwmod@dividend
  9216  0833  160A  158A  225A  120A  158A  	fcall	___lwmod
  9217  0838  0870               	movf	?___lwmod,w
  9218  0839  00FC               	movwf	??_utoa
  9219  083A  087C               	movf	??_utoa,w
  9220  083B  1283               	bcf	3,5	;RP0=0, select bank0
  9221  083C  1303               	bcf	3,6	;RP1=0, select bank0
  9222  083D  00A2               	movwf	utoa@c
  9223  083E                     l3300:	
  9224  083E  087B               	movf	utoa@base+1,w
  9225  083F  00F1               	movwf	___lwdiv@divisor+1
  9226  0840  087A               	movf	utoa@base,w
  9227  0841  00F0               	movwf	___lwdiv@divisor
  9228  0842  0879               	movf	utoa@val+1,w
  9229  0843  00F3               	movwf	___lwdiv@dividend+1
  9230  0844  0878               	movf	utoa@val,w
  9231  0845  00F2               	movwf	___lwdiv@dividend
  9232  0846  160A  158A  2319  120A  158A  	fcall	___lwdiv
  9233  084B  0871               	movf	?___lwdiv+1,w
  9234  084C  00F9               	movwf	utoa@val+1
  9235  084D  0870               	movf	?___lwdiv,w
  9236  084E  00F8               	movwf	utoa@val
  9237  084F                     l3302:	
  9238  084F  300A               	movlw	10
  9239  0850  1283               	bcf	3,5	;RP0=0, select bank0
  9240  0851  1303               	bcf	3,6	;RP1=0, select bank0
  9241  0852  0222               	subwf	utoa@c,w
  9242  0853  1C03               	skipc
  9243  0854  2856               	goto	u4501
  9244  0855  2857               	goto	u4500
  9245  0856                     u4501:	
  9246  0856  285B               	goto	l749
  9247  0857                     u4500:	
  9248  0857                     l3304:	
  9249  0857  3007               	movlw	7
  9250  0858  00FC               	movwf	??_utoa
  9251  0859  087C               	movf	??_utoa,w
  9252  085A  07A2               	addwf	utoa@c,f
  9253  085B                     l749:	
  9254  085B  3030               	movlw	48
  9255  085C  00FC               	movwf	??_utoa
  9256  085D  087C               	movf	??_utoa,w
  9257  085E  07A2               	addwf	utoa@c,f
  9258  085F                     l3306:	
  9259  085F  0822               	movf	utoa@c,w
  9260  0860  00FC               	movwf	??_utoa
  9261  0861  0823               	movf	utoa@buf,w
  9262  0862  0084               	movwf	4
  9263  0863  087C               	movf	??_utoa,w
  9264  0864  1783               	bsf	3,7	;select IRP bank2
  9265  0865  0080               	movwf	0
  9266  0866                     l3308:	
  9267  0866  3001               	movlw	1
  9268  0867  02A3               	subwf	utoa@buf,f
  9269  0868                     l3310:	
  9270  0868  0878               	movf	utoa@val,w
  9271  0869  0479               	iorwf	utoa@val+1,w
  9272  086A  1D03               	btfss	3,2
  9273  086B  286D               	goto	u4511
  9274  086C  286E               	goto	u4510
  9275  086D                     u4511:	
  9276  086D  282B               	goto	l3298
  9277  086E                     u4510:	
  9278  086E                     l3312:	
  9279                           
  9280                           ;	Return value of _utoa is never used
  9281  086E  3001               	movlw	1
  9282  086F  00FC               	movwf	??_utoa
  9283  0870  087C               	movf	??_utoa,w
  9284  0871  07A3               	addwf	utoa@buf,f
  9285  0872                     l751:	
  9286  0872  0008               	return
  9287  0873                     __end_of_utoa:	
  9288                           
  9289                           	psect	text39
  9290  1A5A                     __ptext39:	
  9291 ;; *************** function ___lwmod *****************
  9292 ;; Defined at:
  9293 ;;		line 5 in file "C:\Program Files (x86)\Microchip\xc8\v2.10\pic\sources\c90\common\lwmod.c"
  9294 ;; Parameters:    Size  Location     Type
  9295 ;;  divisor         2    0[COMMON] unsigned int 
  9296 ;;  dividend        2    2[COMMON] unsigned int 
  9297 ;; Auto vars:     Size  Location     Type
  9298 ;;  counter         1    5[COMMON] unsigned char 
  9299 ;; Return value:  Size  Location     Type
  9300 ;;                  2    0[COMMON] unsigned int 
  9301 ;; Registers used:
  9302 ;;		wreg, status,2, status,0
  9303 ;; Tracked objects:
  9304 ;;		On entry : 0/0
  9305 ;;		On exit  : 0/0
  9306 ;;		Unchanged: 0/0
  9307 ;; Data sizes:     COMMON   BANK0   BANK1   BANK3   BANK2
  9308 ;;      Params:         4       0       0       0       0
  9309 ;;      Locals:         1       0       0       0       0
  9310 ;;      Temps:          1       0       0       0       0
  9311 ;;      Totals:         6       0       0       0       0
  9312 ;;Total ram usage:        6 bytes
  9313 ;; Hardware stack levels used:    1
  9314 ;; This function calls:
  9315 ;;		Nothing
  9316 ;; This function is called by:
  9317 ;;		_utoa
  9318 ;; This function uses a non-reentrant model
  9319 ;;
  9320                           
  9321                           
  9322                           ;psect for function ___lwmod
  9323  1A5A                     ___lwmod:	
  9324  1A5A                     l3122:	
  9325                           ;incstack = 0
  9326                           ; Regs used in ___lwmod: [wreg+status,2+status,0]
  9327                           
  9328  1A5A  0870               	movf	___lwmod@divisor,w
  9329  1A5B  0471               	iorwf	___lwmod@divisor+1,w
  9330  1A5C  1903               	btfsc	3,2
  9331  1A5D  2A5F               	goto	u4251
  9332  1A5E  2A60               	goto	u4250
  9333  1A5F                     u4251:	
  9334  1A5F  2A8F               	goto	l3140
  9335  1A60                     u4250:	
  9336  1A60                     l3124:	
  9337  1A60  01F5               	clrf	___lwmod@counter
  9338  1A61  0AF5               	incf	___lwmod@counter,f
  9339  1A62  2A6E               	goto	l3130
  9340  1A63                     l3126:	
  9341  1A63  3001               	movlw	1
  9342  1A64                     u4265:	
  9343  1A64  1003               	clrc
  9344  1A65  0DF0               	rlf	___lwmod@divisor,f
  9345  1A66  0DF1               	rlf	___lwmod@divisor+1,f
  9346  1A67  3EFF               	addlw	-1
  9347  1A68  1D03               	skipz
  9348  1A69  2A64               	goto	u4265
  9349  1A6A                     l3128:	
  9350  1A6A  3001               	movlw	1
  9351  1A6B  00F4               	movwf	??___lwmod
  9352  1A6C  0874               	movf	??___lwmod,w
  9353  1A6D  07F5               	addwf	___lwmod@counter,f
  9354  1A6E                     l3130:	
  9355  1A6E  1FF1               	btfss	___lwmod@divisor+1,7
  9356  1A6F  2A71               	goto	u4271
  9357  1A70  2A72               	goto	u4270
  9358  1A71                     u4271:	
  9359  1A71  2A63               	goto	l3126
  9360  1A72                     u4270:	
  9361  1A72                     l3132:	
  9362  1A72  0871               	movf	___lwmod@divisor+1,w
  9363  1A73  0273               	subwf	___lwmod@dividend+1,w
  9364  1A74  1D03               	skipz
  9365  1A75  2A78               	goto	u4285
  9366  1A76  0870               	movf	___lwmod@divisor,w
  9367  1A77  0272               	subwf	___lwmod@dividend,w
  9368  1A78                     u4285:	
  9369  1A78  1C03               	skipc
  9370  1A79  2A7B               	goto	u4281
  9371  1A7A  2A7C               	goto	u4280
  9372  1A7B                     u4281:	
  9373  1A7B  2A82               	goto	l3136
  9374  1A7C                     u4280:	
  9375  1A7C                     l3134:	
  9376  1A7C  0870               	movf	___lwmod@divisor,w
  9377  1A7D  02F2               	subwf	___lwmod@dividend,f
  9378  1A7E  0871               	movf	___lwmod@divisor+1,w
  9379  1A7F  1C03               	skipc
  9380  1A80  03F3               	decf	___lwmod@dividend+1,f
  9381  1A81  02F3               	subwf	___lwmod@dividend+1,f
  9382  1A82                     l3136:	
  9383  1A82  3001               	movlw	1
  9384  1A83                     u4295:	
  9385  1A83  1003               	clrc
  9386  1A84  0CF1               	rrf	___lwmod@divisor+1,f
  9387  1A85  0CF0               	rrf	___lwmod@divisor,f
  9388  1A86  3EFF               	addlw	-1
  9389  1A87  1D03               	skipz
  9390  1A88  2A83               	goto	u4295
  9391  1A89                     l3138:	
  9392  1A89  3001               	movlw	1
  9393  1A8A  02F5               	subwf	___lwmod@counter,f
  9394  1A8B  1D03               	btfss	3,2
  9395  1A8C  2A8E               	goto	u4301
  9396  1A8D  2A8F               	goto	u4300
  9397  1A8E                     u4301:	
  9398  1A8E  2A72               	goto	l3132
  9399  1A8F                     u4300:	
  9400  1A8F                     l3140:	
  9401  1A8F  0873               	movf	___lwmod@dividend+1,w
  9402  1A90  00F1               	movwf	?___lwmod+1
  9403  1A91  0872               	movf	___lwmod@dividend,w
  9404  1A92  00F0               	movwf	?___lwmod
  9405  1A93                     l577:	
  9406  1A93  0008               	return
  9407  1A94                     __end_of___lwmod:	
  9408                           
  9409                           	psect	text40
  9410  1B19                     __ptext40:	
  9411 ;; *************** function ___lwdiv *****************
  9412 ;; Defined at:
  9413 ;;		line 5 in file "C:\Program Files (x86)\Microchip\xc8\v2.10\pic\sources\c90\common\lwdiv.c"
  9414 ;; Parameters:    Size  Location     Type
  9415 ;;  divisor         2    0[COMMON] unsigned int 
  9416 ;;  dividend        2    2[COMMON] unsigned int 
  9417 ;; Auto vars:     Size  Location     Type
  9418 ;;  quotient        2    5[COMMON] unsigned int 
  9419 ;;  counter         1    7[COMMON] unsigned char 
  9420 ;; Return value:  Size  Location     Type
  9421 ;;                  2    0[COMMON] unsigned int 
  9422 ;; Registers used:
  9423 ;;		wreg, status,2, status,0
  9424 ;; Tracked objects:
  9425 ;;		On entry : 0/0
  9426 ;;		On exit  : 0/0
  9427 ;;		Unchanged: 0/0
  9428 ;; Data sizes:     COMMON   BANK0   BANK1   BANK3   BANK2
  9429 ;;      Params:         4       0       0       0       0
  9430 ;;      Locals:         3       0       0       0       0
  9431 ;;      Temps:          1       0       0       0       0
  9432 ;;      Totals:         8       0       0       0       0
  9433 ;;Total ram usage:        8 bytes
  9434 ;; Hardware stack levels used:    1
  9435 ;; This function calls:
  9436 ;;		Nothing
  9437 ;; This function is called by:
  9438 ;;		_utoa
  9439 ;; This function uses a non-reentrant model
  9440 ;;
  9441                           
  9442                           
  9443                           ;psect for function ___lwdiv
  9444  1B19                     ___lwdiv:	
  9445  1B19                     l3096:	
  9446                           ;incstack = 0
  9447                           ; Regs used in ___lwdiv: [wreg+status,2+status,0]
  9448                           
  9449  1B19  01F5               	clrf	___lwdiv@quotient
  9450  1B1A  01F6               	clrf	___lwdiv@quotient+1
  9451  1B1B                     l3098:	
  9452  1B1B  0870               	movf	___lwdiv@divisor,w
  9453  1B1C  0471               	iorwf	___lwdiv@divisor+1,w
  9454  1B1D  1903               	btfsc	3,2
  9455  1B1E  2B20               	goto	u4181
  9456  1B1F  2B21               	goto	u4180
  9457  1B20                     u4181:	
  9458  1B20  2B58               	goto	l3118
  9459  1B21                     u4180:	
  9460  1B21                     l3100:	
  9461  1B21  01F7               	clrf	___lwdiv@counter
  9462  1B22  0AF7               	incf	___lwdiv@counter,f
  9463  1B23  2B2F               	goto	l3106
  9464  1B24                     l3102:	
  9465  1B24  3001               	movlw	1
  9466  1B25                     u4195:	
  9467  1B25  1003               	clrc
  9468  1B26  0DF0               	rlf	___lwdiv@divisor,f
  9469  1B27  0DF1               	rlf	___lwdiv@divisor+1,f
  9470  1B28  3EFF               	addlw	-1
  9471  1B29  1D03               	skipz
  9472  1B2A  2B25               	goto	u4195
  9473  1B2B                     l3104:	
  9474  1B2B  3001               	movlw	1
  9475  1B2C  00F4               	movwf	??___lwdiv
  9476  1B2D  0874               	movf	??___lwdiv,w
  9477  1B2E  07F7               	addwf	___lwdiv@counter,f
  9478  1B2F                     l3106:	
  9479  1B2F  1FF1               	btfss	___lwdiv@divisor+1,7
  9480  1B30  2B32               	goto	u4201
  9481  1B31  2B33               	goto	u4200
  9482  1B32                     u4201:	
  9483  1B32  2B24               	goto	l3102
  9484  1B33                     u4200:	
  9485  1B33                     l3108:	
  9486  1B33  3001               	movlw	1
  9487  1B34                     u4215:	
  9488  1B34  1003               	clrc
  9489  1B35  0DF5               	rlf	___lwdiv@quotient,f
  9490  1B36  0DF6               	rlf	___lwdiv@quotient+1,f
  9491  1B37  3EFF               	addlw	-1
  9492  1B38  1D03               	skipz
  9493  1B39  2B34               	goto	u4215
  9494  1B3A  0871               	movf	___lwdiv@divisor+1,w
  9495  1B3B  0273               	subwf	___lwdiv@dividend+1,w
  9496  1B3C  1D03               	skipz
  9497  1B3D  2B40               	goto	u4225
  9498  1B3E  0870               	movf	___lwdiv@divisor,w
  9499  1B3F  0272               	subwf	___lwdiv@dividend,w
  9500  1B40                     u4225:	
  9501  1B40  1C03               	skipc
  9502  1B41  2B43               	goto	u4221
  9503  1B42  2B44               	goto	u4220
  9504  1B43                     u4221:	
  9505  1B43  2B4B               	goto	l3114
  9506  1B44                     u4220:	
  9507  1B44                     l3110:	
  9508  1B44  0870               	movf	___lwdiv@divisor,w
  9509  1B45  02F2               	subwf	___lwdiv@dividend,f
  9510  1B46  0871               	movf	___lwdiv@divisor+1,w
  9511  1B47  1C03               	skipc
  9512  1B48  03F3               	decf	___lwdiv@dividend+1,f
  9513  1B49  02F3               	subwf	___lwdiv@dividend+1,f
  9514  1B4A                     l3112:	
  9515  1B4A  1475               	bsf	___lwdiv@quotient,0
  9516  1B4B                     l3114:	
  9517  1B4B  3001               	movlw	1
  9518  1B4C                     u4235:	
  9519  1B4C  1003               	clrc
  9520  1B4D  0CF1               	rrf	___lwdiv@divisor+1,f
  9521  1B4E  0CF0               	rrf	___lwdiv@divisor,f
  9522  1B4F  3EFF               	addlw	-1
  9523  1B50  1D03               	skipz
  9524  1B51  2B4C               	goto	u4235
  9525  1B52                     l3116:	
  9526  1B52  3001               	movlw	1
  9527  1B53  02F7               	subwf	___lwdiv@counter,f
  9528  1B54  1D03               	btfss	3,2
  9529  1B55  2B57               	goto	u4241
  9530  1B56  2B58               	goto	u4240
  9531  1B57                     u4241:	
  9532  1B57  2B33               	goto	l3108
  9533  1B58                     u4240:	
  9534  1B58                     l3118:	
  9535  1B58  0876               	movf	___lwdiv@quotient+1,w
  9536  1B59  00F1               	movwf	?___lwdiv+1
  9537  1B5A  0875               	movf	___lwdiv@quotient,w
  9538  1B5B  00F0               	movwf	?___lwdiv
  9539  1B5C                     l567:	
  9540  1B5C  0008               	return
  9541  1B5D                     __end_of___lwdiv:	
  9542                           
  9543                           	psect	text41
  9544  135E                     __ptext41:	
  9545 ;; *************** function ___xxtofl *****************
  9546 ;; Defined at:
  9547 ;;		line 10 in file "C:\Program Files (x86)\Microchip\xc8\v2.10\pic\sources\c90\common\xxtofl.c"
  9548 ;; Parameters:    Size  Location     Type
  9549 ;;  sign            1    wreg     unsigned char 
  9550 ;;  val             4    0[BANK0 ] long 
  9551 ;; Auto vars:     Size  Location     Type
  9552 ;;  sign            1    8[BANK0 ] unsigned char 
  9553 ;;  arg             4   10[BANK0 ] unsigned long 
  9554 ;;  exp             1    9[BANK0 ] unsigned char 
  9555 ;; Return value:  Size  Location     Type
  9556 ;;                  4    0[BANK0 ] unsigned char 
  9557 ;; Registers used:
  9558 ;;		wreg, status,2, status,0
  9559 ;; Tracked objects:
  9560 ;;		On entry : 0/0
  9561 ;;		On exit  : 0/0
  9562 ;;		Unchanged: 0/0
  9563 ;; Data sizes:     COMMON   BANK0   BANK1   BANK3   BANK2
  9564 ;;      Params:         0       4       0       0       0
  9565 ;;      Locals:         0       6       0       0       0
  9566 ;;      Temps:          0       4       0       0       0
  9567 ;;      Totals:         0      14       0       0       0
  9568 ;;Total ram usage:       14 bytes
  9569 ;; Hardware stack levels used:    1
  9570 ;; This function calls:
  9571 ;;		Nothing
  9572 ;; This function is called by:
  9573 ;;		_lee1
  9574 ;;		_lee2
  9575 ;;		_lee3
  9576 ;;		_lee4
  9577 ;;		_ADCread3
  9578 ;;		_ADCread4
  9579 ;;		_ftoa2
  9580 ;;		_pow
  9581 ;;		_exp
  9582 ;;		_floor
  9583 ;;		_log
  9584 ;; This function uses a non-reentrant model
  9585 ;;
  9586                           
  9587                           
  9588                           ;psect for function ___xxtofl
  9589  135E                     ___xxtofl:	
  9590                           
  9591                           ;incstack = 0
  9592                           ; Regs used in ___xxtofl: [wreg+status,2+status,0]
  9593                           ;___xxtofl@sign stored from wreg
  9594  135E  1283               	bcf	3,5	;RP0=0, select bank0
  9595  135F  1303               	bcf	3,6	;RP1=0, select bank0
  9596  1360  00A8               	movwf	___xxtofl@sign
  9597  1361                     l4032:	
  9598  1361  0828               	movf	___xxtofl@sign,w
  9599  1362  1903               	btfsc	3,2
  9600  1363  2B65               	goto	u5701
  9601  1364  2B66               	goto	u5700
  9602  1365                     u5701:	
  9603  1365  2B7A               	goto	l4038
  9604  1366                     u5700:	
  9605  1366                     l4034:	
  9606  1366  1FA3               	btfss	___xxtofl@val+3,7
  9607  1367  2B69               	goto	u5711
  9608  1368  2B6A               	goto	u5710
  9609  1369                     u5711:	
  9610  1369  2B7A               	goto	l4038
  9611  136A                     u5710:	
  9612  136A                     l4036:	
  9613  136A  0920               	comf	___xxtofl@val,w
  9614  136B  00AA               	movwf	___xxtofl@arg
  9615  136C  0921               	comf	___xxtofl@val+1,w
  9616  136D  00AB               	movwf	___xxtofl@arg+1
  9617  136E  0922               	comf	___xxtofl@val+2,w
  9618  136F  00AC               	movwf	___xxtofl@arg+2
  9619  1370  0923               	comf	___xxtofl@val+3,w
  9620  1371  00AD               	movwf	___xxtofl@arg+3
  9621  1372  0AAA               	incf	___xxtofl@arg,f
  9622  1373  1903               	skipnz
  9623  1374  0AAB               	incf	___xxtofl@arg+1,f
  9624  1375  1903               	skipnz
  9625  1376  0AAC               	incf	___xxtofl@arg+2,f
  9626  1377  1903               	skipnz
  9627  1378  0AAD               	incf	___xxtofl@arg+3,f
  9628  1379  2B82               	goto	l722
  9629  137A                     l4038:	
  9630  137A  0823               	movf	___xxtofl@val+3,w
  9631  137B  00AD               	movwf	___xxtofl@arg+3
  9632  137C  0822               	movf	___xxtofl@val+2,w
  9633  137D  00AC               	movwf	___xxtofl@arg+2
  9634  137E  0821               	movf	___xxtofl@val+1,w
  9635  137F  00AB               	movwf	___xxtofl@arg+1
  9636  1380  0820               	movf	___xxtofl@val,w
  9637  1381  00AA               	movwf	___xxtofl@arg
  9638  1382                     l722:	
  9639  1382  0823               	movf	___xxtofl@val+3,w
  9640  1383  0422               	iorwf	___xxtofl@val+2,w
  9641  1384  0421               	iorwf	___xxtofl@val+1,w
  9642  1385  0420               	iorwf	___xxtofl@val,w
  9643  1386  1D03               	skipz
  9644  1387  2B89               	goto	u5721
  9645  1388  2B8A               	goto	u5720
  9646  1389                     u5721:	
  9647  1389  2B93               	goto	l4044
  9648  138A                     u5720:	
  9649  138A                     l4040:	
  9650  138A  3000               	movlw	0
  9651  138B  00A3               	movwf	?___xxtofl+3
  9652  138C  3000               	movlw	0
  9653  138D  00A2               	movwf	?___xxtofl+2
  9654  138E  3000               	movlw	0
  9655  138F  00A1               	movwf	?___xxtofl+1
  9656  1390  3000               	movlw	0
  9657  1391  00A0               	movwf	?___xxtofl
  9658  1392  2C19               	goto	l724
  9659  1393                     l4044:	
  9660  1393  3096               	movlw	150
  9661  1394  00A4               	movwf	??___xxtofl
  9662  1395  0824               	movf	??___xxtofl,w
  9663  1396  00A9               	movwf	___xxtofl@exp
  9664  1397  2BA5               	goto	l4048
  9665  1398                     l4046:	
  9666  1398  3001               	movlw	1
  9667  1399  00A4               	movwf	??___xxtofl
  9668  139A  0824               	movf	??___xxtofl,w
  9669  139B  07A9               	addwf	___xxtofl@exp,f
  9670  139C  3001               	movlw	1
  9671  139D                     u5735:	
  9672  139D  1003               	clrc
  9673  139E  0CAD               	rrf	___xxtofl@arg+3,f
  9674  139F  0CAC               	rrf	___xxtofl@arg+2,f
  9675  13A0  0CAB               	rrf	___xxtofl@arg+1,f
  9676  13A1  0CAA               	rrf	___xxtofl@arg,f
  9677  13A2  3EFF               	addlw	-1
  9678  13A3  1D03               	skipz
  9679  13A4  2B9D               	goto	u5735
  9680  13A5                     l4048:	
  9681  13A5  30FE               	movlw	254
  9682  13A6  052D               	andwf	___xxtofl@arg+3,w
  9683  13A7  1D03               	btfss	3,2
  9684  13A8  2BAA               	goto	u5741
  9685  13A9  2BAB               	goto	u5740
  9686  13AA                     u5741:	
  9687  13AA  2B98               	goto	l4046
  9688  13AB                     u5740:	
  9689  13AB  2BC7               	goto	l728
  9690  13AC                     l4050:	
  9691  13AC  3001               	movlw	1
  9692  13AD  00A4               	movwf	??___xxtofl
  9693  13AE  0824               	movf	??___xxtofl,w
  9694  13AF  07A9               	addwf	___xxtofl@exp,f
  9695  13B0                     l4052:	
  9696  13B0  3001               	movlw	1
  9697  13B1  07AA               	addwf	___xxtofl@arg,f
  9698  13B2  3000               	movlw	0
  9699  13B3  1803               	skipnc
  9700  13B4  3001               	movlw	1
  9701  13B5  07AB               	addwf	___xxtofl@arg+1,f
  9702  13B6  3000               	movlw	0
  9703  13B7  1803               	skipnc
  9704  13B8  3001               	movlw	1
  9705  13B9  07AC               	addwf	___xxtofl@arg+2,f
  9706  13BA  3000               	movlw	0
  9707  13BB  1803               	skipnc
  9708  13BC  3001               	movlw	1
  9709  13BD  07AD               	addwf	___xxtofl@arg+3,f
  9710  13BE                     l4054:	
  9711  13BE  3001               	movlw	1
  9712  13BF                     u5755:	
  9713  13BF  1003               	clrc
  9714  13C0  0CAD               	rrf	___xxtofl@arg+3,f
  9715  13C1  0CAC               	rrf	___xxtofl@arg+2,f
  9716  13C2  0CAB               	rrf	___xxtofl@arg+1,f
  9717  13C3  0CAA               	rrf	___xxtofl@arg,f
  9718  13C4  3EFF               	addlw	-1
  9719  13C5  1D03               	skipz
  9720  13C6  2BBF               	goto	u5755
  9721  13C7                     l728:	
  9722  13C7  30FF               	movlw	255
  9723  13C8  052D               	andwf	___xxtofl@arg+3,w
  9724  13C9  1D03               	btfss	3,2
  9725  13CA  2BCC               	goto	u5761
  9726  13CB  2BCD               	goto	u5760
  9727  13CC                     u5761:	
  9728  13CC  2BAC               	goto	l4050
  9729  13CD                     u5760:	
  9730  13CD  2BD9               	goto	l4058
  9731  13CE                     l4056:	
  9732  13CE  3001               	movlw	1
  9733  13CF  02A9               	subwf	___xxtofl@exp,f
  9734  13D0  3001               	movlw	1
  9735  13D1  00A4               	movwf	??___xxtofl
  9736  13D2                     u5775:	
  9737  13D2  1003               	clrc
  9738  13D3  0DAA               	rlf	___xxtofl@arg,f
  9739  13D4  0DAB               	rlf	___xxtofl@arg+1,f
  9740  13D5  0DAC               	rlf	___xxtofl@arg+2,f
  9741  13D6  0DAD               	rlf	___xxtofl@arg+3,f
  9742  13D7  0BA4               	decfsz	??___xxtofl,f
  9743  13D8  2BD2               	goto	u5775
  9744  13D9                     l4058:	
  9745  13D9  1BAC               	btfsc	___xxtofl@arg+2,7
  9746  13DA  2BDC               	goto	u5781
  9747  13DB  2BDD               	goto	u5780
  9748  13DC                     u5781:	
  9749  13DC  2BE3               	goto	l735
  9750  13DD                     u5780:	
  9751  13DD                     l4060:	
  9752  13DD  3002               	movlw	2
  9753  13DE  0229               	subwf	___xxtofl@exp,w
  9754  13DF  1803               	skipnc
  9755  13E0  2BE2               	goto	u5791
  9756  13E1  2BE3               	goto	u5790
  9757  13E2                     u5791:	
  9758  13E2  2BCE               	goto	l4056
  9759  13E3                     u5790:	
  9760  13E3                     l735:	
  9761  13E3  1829               	btfsc	___xxtofl@exp,0
  9762  13E4  2BE6               	goto	u5801
  9763  13E5  2BE7               	goto	u5800
  9764  13E6                     u5801:	
  9765  13E6  2BEF               	goto	l736
  9766  13E7                     u5800:	
  9767  13E7                     l4062:	
  9768  13E7  30FF               	movlw	255
  9769  13E8  05AA               	andwf	___xxtofl@arg,f
  9770  13E9  30FF               	movlw	255
  9771  13EA  05AB               	andwf	___xxtofl@arg+1,f
  9772  13EB  307F               	movlw	127
  9773  13EC  05AC               	andwf	___xxtofl@arg+2,f
  9774  13ED  30FF               	movlw	255
  9775  13EE  05AD               	andwf	___xxtofl@arg+3,f
  9776  13EF                     l736:	
  9777  13EF  1003               	clrc
  9778  13F0  0CA9               	rrf	___xxtofl@exp,f
  9779  13F1                     l4064:	
  9780  13F1  0829               	movf	___xxtofl@exp,w
  9781  13F2  00A4               	movwf	??___xxtofl
  9782  13F3  01A5               	clrf	??___xxtofl+1
  9783  13F4  01A6               	clrf	??___xxtofl+2
  9784  13F5  01A7               	clrf	??___xxtofl+3
  9785  13F6  3018               	movlw	24
  9786  13F7                     u5815:	
  9787  13F7  1003               	clrc
  9788  13F8  0DA4               	rlf	??___xxtofl,f
  9789  13F9  0DA5               	rlf	??___xxtofl+1,f
  9790  13FA  0DA6               	rlf	??___xxtofl+2,f
  9791  13FB  0DA7               	rlf	??___xxtofl+3,f
  9792  13FC                     u5810:	
  9793  13FC  3EFF               	addlw	-1
  9794  13FD  1D03               	skipz
  9795  13FE  2BF7               	goto	u5815
  9796  13FF  0824               	movf	??___xxtofl,w
  9797  1400  04AA               	iorwf	___xxtofl@arg,f
  9798  1401  0825               	movf	??___xxtofl+1,w
  9799  1402  04AB               	iorwf	___xxtofl@arg+1,f
  9800  1403  0826               	movf	??___xxtofl+2,w
  9801  1404  04AC               	iorwf	___xxtofl@arg+2,f
  9802  1405  0827               	movf	??___xxtofl+3,w
  9803  1406  04AD               	iorwf	___xxtofl@arg+3,f
  9804  1407                     l4066:	
  9805  1407  0828               	movf	___xxtofl@sign,w
  9806  1408  1903               	btfsc	3,2
  9807  1409  2C0B               	goto	u5821
  9808  140A  2C0C               	goto	u5820
  9809  140B                     u5821:	
  9810  140B  2C11               	goto	l4072
  9811  140C                     u5820:	
  9812  140C                     l4068:	
  9813  140C  1FA3               	btfss	___xxtofl@val+3,7
  9814  140D  2C0F               	goto	u5831
  9815  140E  2C10               	goto	u5830
  9816  140F                     u5831:	
  9817  140F  2C11               	goto	l4072
  9818  1410                     u5830:	
  9819  1410                     l4070:	
  9820  1410  17AD               	bsf	___xxtofl@arg+3,7
  9821  1411                     l4072:	
  9822  1411  082D               	movf	___xxtofl@arg+3,w
  9823  1412  00A3               	movwf	?___xxtofl+3
  9824  1413  082C               	movf	___xxtofl@arg+2,w
  9825  1414  00A2               	movwf	?___xxtofl+2
  9826  1415  082B               	movf	___xxtofl@arg+1,w
  9827  1416  00A1               	movwf	?___xxtofl+1
  9828  1417  082A               	movf	___xxtofl@arg,w
  9829  1418  00A0               	movwf	?___xxtofl
  9830  1419                     l724:	
  9831  1419  0008               	return
  9832  141A                     __end_of___xxtofl:	
  9833                           
  9834                           	psect	text42
  9835  1DDC                     __ptext42:	
  9836 ;; *************** function ___fltol *****************
  9837 ;; Defined at:
  9838 ;;		line 43 in file "C:\Program Files (x86)\Microchip\xc8\v2.10\pic\sources\c90\common\fltol.c"
  9839 ;; Parameters:    Size  Location     Type
  9840 ;;  f1              4    0[COMMON] unsigned char 
  9841 ;; Auto vars:     Size  Location     Type
  9842 ;;  exp1            1   10[COMMON] unsigned char 
  9843 ;;  sign1           1    9[COMMON] unsigned char 
  9844 ;; Return value:  Size  Location     Type
  9845 ;;                  4    0[COMMON] long 
  9846 ;; Registers used:
  9847 ;;		wreg, status,2, status,0
  9848 ;; Tracked objects:
  9849 ;;		On entry : 0/0
  9850 ;;		On exit  : 0/0
  9851 ;;		Unchanged: 0/0
  9852 ;; Data sizes:     COMMON   BANK0   BANK1   BANK3   BANK2
  9853 ;;      Params:         4       0       0       0       0
  9854 ;;      Locals:         2       0       0       0       0
  9855 ;;      Temps:          5       0       0       0       0
  9856 ;;      Totals:        11       0       0       0       0
  9857 ;;Total ram usage:       11 bytes
  9858 ;; Hardware stack levels used:    1
  9859 ;; This function calls:
  9860 ;;		Nothing
  9861 ;; This function is called by:
  9862 ;;		_lee2
  9863 ;;		_lee4
  9864 ;;		_ADCread3
  9865 ;;		_ftoa2
  9866 ;;		_pow
  9867 ;;		_exp
  9868 ;;		_floor
  9869 ;; This function uses a non-reentrant model
  9870 ;;
  9871                           
  9872                           
  9873                           ;psect for function ___fltol
  9874  1DDC                     ___fltol:	
  9875  1DDC                     l3662:	
  9876                           ;incstack = 0
  9877                           ; Regs used in ___fltol: [wreg+status,2+status,0]
  9878                           
  9879  1DDC  1003               	clrc
  9880  1DDD  0D72               	rlf	___fltol@f1+2,w
  9881  1DDE  0D73               	rlf	___fltol@f1+3,w
  9882  1DDF  00F4               	movwf	??___fltol
  9883  1DE0  0874               	movf	??___fltol,w
  9884  1DE1  00FA               	movwf	___fltol@exp1
  9885  1DE2  087A               	movf	___fltol@exp1,w
  9886  1DE3  1D03               	btfss	3,2
  9887  1DE4  2DE6               	goto	u4771
  9888  1DE5  2DE7               	goto	u4770
  9889  1DE6                     u4771:	
  9890  1DE6  2DF0               	goto	l3668
  9891  1DE7                     u4770:	
  9892  1DE7                     l3664:	
  9893  1DE7  3000               	movlw	0
  9894  1DE8  00F3               	movwf	?___fltol+3
  9895  1DE9  3000               	movlw	0
  9896  1DEA  00F2               	movwf	?___fltol+2
  9897  1DEB  3000               	movlw	0
  9898  1DEC  00F1               	movwf	?___fltol+1
  9899  1DED  3000               	movlw	0
  9900  1DEE  00F0               	movwf	?___fltol
  9901  1DEF  2E55               	goto	l481
  9902  1DF0                     l3668:	
  9903  1DF0  0870               	movf	___fltol@f1,w
  9904  1DF1  00F4               	movwf	??___fltol
  9905  1DF2  0871               	movf	___fltol@f1+1,w
  9906  1DF3  00F5               	movwf	??___fltol+1
  9907  1DF4  0872               	movf	___fltol@f1+2,w
  9908  1DF5  00F6               	movwf	??___fltol+2
  9909  1DF6  0873               	movf	___fltol@f1+3,w
  9910  1DF7  00F7               	movwf	??___fltol+3
  9911  1DF8  301F               	movlw	31
  9912  1DF9                     u4785:	
  9913  1DF9  1003               	clrc
  9914  1DFA  0CF7               	rrf	??___fltol+3,f
  9915  1DFB  0CF6               	rrf	??___fltol+2,f
  9916  1DFC  0CF5               	rrf	??___fltol+1,f
  9917  1DFD  0CF4               	rrf	??___fltol,f
  9918  1DFE                     u4780:	
  9919  1DFE  3EFF               	addlw	-1
  9920  1DFF  1D03               	skipz
  9921  1E00  2DF9               	goto	u4785
  9922  1E01  0874               	movf	??___fltol,w
  9923  1E02  00F8               	movwf	??___fltol+4
  9924  1E03  0878               	movf	??___fltol+4,w
  9925  1E04  00F9               	movwf	___fltol@sign1
  9926  1E05                     l3670:	
  9927  1E05  17F2               	bsf	___fltol@f1+2,7
  9928  1E06                     l3672:	
  9929  1E06  30FF               	movlw	255
  9930  1E07  05F0               	andwf	___fltol@f1,f
  9931  1E08  30FF               	movlw	255
  9932  1E09  05F1               	andwf	___fltol@f1+1,f
  9933  1E0A  30FF               	movlw	255
  9934  1E0B  05F2               	andwf	___fltol@f1+2,f
  9935  1E0C  3000               	movlw	0
  9936  1E0D  05F3               	andwf	___fltol@f1+3,f
  9937  1E0E                     l3674:	
  9938  1E0E  3096               	movlw	150
  9939  1E0F  02FA               	subwf	___fltol@exp1,f
  9940  1E10                     l3676:	
  9941  1E10  1FFA               	btfss	___fltol@exp1,7
  9942  1E11  2E13               	goto	u4791
  9943  1E12  2E14               	goto	u4790
  9944  1E13                     u4791:	
  9945  1E13  2E2E               	goto	l3686
  9946  1E14                     u4790:	
  9947  1E14                     l3678:	
  9948  1E14  087A               	movf	___fltol@exp1,w
  9949  1E15  3A80               	xorlw	128
  9950  1E16  3E97               	addlw	151
  9951  1E17  1803               	skipnc
  9952  1E18  2E1A               	goto	u4801
  9953  1E19  2E1B               	goto	u4800
  9954  1E1A                     u4801:	
  9955  1E1A  2E1C               	goto	l3684
  9956  1E1B                     u4800:	
  9957  1E1B  2DE7               	goto	l3664
  9958  1E1C                     l3684:	
  9959  1E1C  3001               	movlw	1
  9960  1E1D                     u4815:	
  9961  1E1D  1003               	clrc
  9962  1E1E  0CF3               	rrf	___fltol@f1+3,f
  9963  1E1F  0CF2               	rrf	___fltol@f1+2,f
  9964  1E20  0CF1               	rrf	___fltol@f1+1,f
  9965  1E21  0CF0               	rrf	___fltol@f1,f
  9966  1E22  3EFF               	addlw	-1
  9967  1E23  1D03               	skipz
  9968  1E24  2E1D               	goto	u4815
  9969  1E25  3001               	movlw	1
  9970  1E26  00F4               	movwf	??___fltol
  9971  1E27  0874               	movf	??___fltol,w
  9972  1E28  07FA               	addwf	___fltol@exp1,f
  9973  1E29  1D03               	btfss	3,2
  9974  1E2A  2E2C               	goto	u4821
  9975  1E2B  2E2D               	goto	u4820
  9976  1E2C                     u4821:	
  9977  1E2C  2E1C               	goto	l3684
  9978  1E2D                     u4820:	
  9979  1E2D  2E45               	goto	l3694
  9980  1E2E                     l3686:	
  9981  1E2E  3020               	movlw	32
  9982  1E2F  027A               	subwf	___fltol@exp1,w
  9983  1E30  1C03               	skipc
  9984  1E31  2E33               	goto	u4831
  9985  1E32  2E34               	goto	u4830
  9986  1E33                     u4831:	
  9987  1E33  2E40               	goto	l488
  9988  1E34                     u4830:	
  9989  1E34  2DE7               	goto	l3664
  9990  1E35                     l3692:	
  9991  1E35  3001               	movlw	1
  9992  1E36  00F4               	movwf	??___fltol
  9993  1E37                     u4845:	
  9994  1E37  1003               	clrc
  9995  1E38  0DF0               	rlf	___fltol@f1,f
  9996  1E39  0DF1               	rlf	___fltol@f1+1,f
  9997  1E3A  0DF2               	rlf	___fltol@f1+2,f
  9998  1E3B  0DF3               	rlf	___fltol@f1+3,f
  9999  1E3C  0BF4               	decfsz	??___fltol,f
 10000  1E3D  2E37               	goto	u4845
 10001  1E3E  3001               	movlw	1
 10002  1E3F  02FA               	subwf	___fltol@exp1,f
 10003  1E40                     l488:	
 10004  1E40  087A               	movf	___fltol@exp1,w
 10005  1E41  1D03               	btfss	3,2
 10006  1E42  2E44               	goto	u4851
 10007  1E43  2E45               	goto	u4850
 10008  1E44                     u4851:	
 10009  1E44  2E35               	goto	l3692
 10010  1E45                     u4850:	
 10011  1E45                     l3694:	
 10012  1E45  0879               	movf	___fltol@sign1,w
 10013  1E46  1903               	btfsc	3,2
 10014  1E47  2E49               	goto	u4861
 10015  1E48  2E4A               	goto	u4860
 10016  1E49                     u4861:	
 10017  1E49  2E55               	goto	l491
 10018  1E4A                     u4860:	
 10019  1E4A                     l3696:	
 10020  1E4A  09F0               	comf	___fltol@f1,f
 10021  1E4B  09F1               	comf	___fltol@f1+1,f
 10022  1E4C  09F2               	comf	___fltol@f1+2,f
 10023  1E4D  09F3               	comf	___fltol@f1+3,f
 10024  1E4E  0AF0               	incf	___fltol@f1,f
 10025  1E4F  1903               	skipnz
 10026  1E50  0AF1               	incf	___fltol@f1+1,f
 10027  1E51  1903               	skipnz
 10028  1E52  0AF2               	incf	___fltol@f1+2,f
 10029  1E53  1903               	skipnz
 10030  1E54  0AF3               	incf	___fltol@f1+3,f
 10031  1E55                     l491:	
 10032  1E55                     l481:	
 10033  1E55  0008               	return
 10034  1E56                     __end_of___fltol:	
 10035                           
 10036                           	psect	text43
 10037  048A                     __ptext43:	
 10038 ;; *************** function ___flmul *****************
 10039 ;; Defined at:
 10040 ;;		line 8 in file "C:\Program Files (x86)\Microchip\xc8\v2.10\pic\sources\c90\common\sprcmul.c"
 10041 ;; Parameters:    Size  Location     Type
 10042 ;;  b               4   31[BANK0 ] long 
 10043 ;;  a               4   35[BANK0 ] long 
 10044 ;; Auto vars:     Size  Location     Type
 10045 ;;  prod            4   51[BANK0 ] struct .
 10046 ;;  grs             4   46[BANK0 ] unsigned long 
 10047 ;;  temp            2   55[BANK0 ] struct .
 10048 ;;  bexp            1   50[BANK0 ] unsigned char 
 10049 ;;  aexp            1   45[BANK0 ] unsigned char 
 10050 ;;  sign            1   44[BANK0 ] unsigned char 
 10051 ;; Return value:  Size  Location     Type
 10052 ;;                  4   31[BANK0 ] unsigned char 
 10053 ;; Registers used:
 10054 ;;		wreg, status,2, status,0, btemp+1, pclath, cstack
 10055 ;; Tracked objects:
 10056 ;;		On entry : 0/0
 10057 ;;		On exit  : 0/0
 10058 ;;		Unchanged: 0/0
 10059 ;; Data sizes:     COMMON   BANK0   BANK1   BANK3   BANK2
 10060 ;;      Params:         0       8       0       0       0
 10061 ;;      Locals:         0      13       0       0       0
 10062 ;;      Temps:          0       5       0       0       0
 10063 ;;      Totals:         0      26       0       0       0
 10064 ;;Total ram usage:       26 bytes
 10065 ;; Hardware stack levels used:    1
 10066 ;; Hardware stack levels required when called:    1
 10067 ;; This function calls:
 10068 ;;		__Umul8_16
 10069 ;; This function is called by:
 10070 ;;		_lee1
 10071 ;;		_lee2
 10072 ;;		_lee3
 10073 ;;		_lee4
 10074 ;;		_ADCread3
 10075 ;;		_ADCread4
 10076 ;;		_ftoa2
 10077 ;;		_pow
 10078 ;;		_exp
 10079 ;;		_log
 10080 ;;		_eval_poly
 10081 ;; This function uses a non-reentrant model
 10082 ;;
 10083                           
 10084                           
 10085                           ;psect for function ___flmul
 10086  048A                     ___flmul:	
 10087  048A                     l3892:	
 10088                           ;incstack = 0
 10089                           ; Regs used in ___flmul: [wreg+status,2+status,0+btemp+1+pclath+cstack]
 10090                           
 10091  048A  1283               	bcf	3,5	;RP0=0, select bank0
 10092  048B  1303               	bcf	3,6	;RP1=0, select bank0
 10093  048C  0842               	movf	___flmul@b+3,w
 10094  048D  3980               	andlw	128
 10095  048E  00C7               	movwf	??___flmul
 10096  048F  0847               	movf	??___flmul,w
 10097  0490  00CC               	movwf	___flmul@sign
 10098  0491                     l3894:	
 10099  0491  0842               	movf	___flmul@b+3,w
 10100  0492  00C7               	movwf	??___flmul
 10101  0493  0747               	addwf	??___flmul,w
 10102  0494  00C8               	movwf	??___flmul+1
 10103  0495  0848               	movf	??___flmul+1,w
 10104  0496  00D2               	movwf	___flmul@bexp
 10105  0497                     l3896:	
 10106  0497  1FC1               	btfss	___flmul@b+2,7
 10107  0498  2C9A               	goto	u5331
 10108  0499  2C9B               	goto	u5330
 10109  049A                     u5331:	
 10110  049A  2C9C               	goto	l3900
 10111  049B                     u5330:	
 10112  049B                     l3898:	
 10113  049B  1452               	bsf	___flmul@bexp,0
 10114  049C                     l3900:	
 10115  049C  0852               	movf	___flmul@bexp,w
 10116  049D  1903               	btfsc	3,2
 10117  049E  2CA0               	goto	u5341
 10118  049F  2CA1               	goto	u5340
 10119  04A0                     u5341:	
 10120  04A0  2CB0               	goto	l3908
 10121  04A1                     u5340:	
 10122  04A1                     l3902:	
 10123  04A1  0A52               	incf	___flmul@bexp,w
 10124  04A2  1D03               	btfss	3,2
 10125  04A3  2CA5               	goto	u5351
 10126  04A4  2CA6               	goto	u5350
 10127  04A5                     u5351:	
 10128  04A5  2CAE               	goto	l3906
 10129  04A6                     u5350:	
 10130  04A6                     l3904:	
 10131  04A6  3000               	movlw	0
 10132  04A7  00C2               	movwf	___flmul@b+3
 10133  04A8  3000               	movlw	0
 10134  04A9  00C1               	movwf	___flmul@b+2
 10135  04AA  3000               	movlw	0
 10136  04AB  00C0               	movwf	___flmul@b+1
 10137  04AC  3000               	movlw	0
 10138  04AD  00BF               	movwf	___flmul@b
 10139  04AE                     l3906:	
 10140  04AE  17C1               	bsf	___flmul@b+2,7
 10141  04AF  2CB8               	goto	l3910
 10142  04B0                     l3908:	
 10143  04B0  3000               	movlw	0
 10144  04B1  00C2               	movwf	___flmul@b+3
 10145  04B2  3000               	movlw	0
 10146  04B3  00C1               	movwf	___flmul@b+2
 10147  04B4  3000               	movlw	0
 10148  04B5  00C0               	movwf	___flmul@b+1
 10149  04B6  3000               	movlw	0
 10150  04B7  00BF               	movwf	___flmul@b
 10151  04B8                     l3910:	
 10152  04B8  0846               	movf	___flmul@a+3,w
 10153  04B9  3980               	andlw	128
 10154  04BA  00C7               	movwf	??___flmul
 10155  04BB  0847               	movf	??___flmul,w
 10156  04BC  06CC               	xorwf	___flmul@sign,f
 10157  04BD                     l3912:	
 10158  04BD  0846               	movf	___flmul@a+3,w
 10159  04BE  00C7               	movwf	??___flmul
 10160  04BF  0747               	addwf	??___flmul,w
 10161  04C0  00C8               	movwf	??___flmul+1
 10162  04C1  0848               	movf	??___flmul+1,w
 10163  04C2  00CD               	movwf	___flmul@aexp
 10164  04C3                     l3914:	
 10165  04C3  1FC5               	btfss	___flmul@a+2,7
 10166  04C4  2CC6               	goto	u5361
 10167  04C5  2CC7               	goto	u5360
 10168  04C6                     u5361:	
 10169  04C6  2CC8               	goto	l3918
 10170  04C7                     u5360:	
 10171  04C7                     l3916:	
 10172  04C7  144D               	bsf	___flmul@aexp,0
 10173  04C8                     l3918:	
 10174  04C8  084D               	movf	___flmul@aexp,w
 10175  04C9  1903               	btfsc	3,2
 10176  04CA  2CCC               	goto	u5371
 10177  04CB  2CCD               	goto	u5370
 10178  04CC                     u5371:	
 10179  04CC  2CDC               	goto	l3926
 10180  04CD                     u5370:	
 10181  04CD                     l3920:	
 10182  04CD  0A4D               	incf	___flmul@aexp,w
 10183  04CE  1D03               	btfss	3,2
 10184  04CF  2CD1               	goto	u5381
 10185  04D0  2CD2               	goto	u5380
 10186  04D1                     u5381:	
 10187  04D1  2CDA               	goto	l3924
 10188  04D2                     u5380:	
 10189  04D2                     l3922:	
 10190  04D2  3000               	movlw	0
 10191  04D3  00C6               	movwf	___flmul@a+3
 10192  04D4  3000               	movlw	0
 10193  04D5  00C5               	movwf	___flmul@a+2
 10194  04D6  3000               	movlw	0
 10195  04D7  00C4               	movwf	___flmul@a+1
 10196  04D8  3000               	movlw	0
 10197  04D9  00C3               	movwf	___flmul@a
 10198  04DA                     l3924:	
 10199  04DA  17C5               	bsf	___flmul@a+2,7
 10200  04DB  2CE4               	goto	l3928
 10201  04DC                     l3926:	
 10202  04DC  3000               	movlw	0
 10203  04DD  00C6               	movwf	___flmul@a+3
 10204  04DE  3000               	movlw	0
 10205  04DF  00C5               	movwf	___flmul@a+2
 10206  04E0  3000               	movlw	0
 10207  04E1  00C4               	movwf	___flmul@a+1
 10208  04E2  3000               	movlw	0
 10209  04E3  00C3               	movwf	___flmul@a
 10210  04E4                     l3928:	
 10211  04E4  084D               	movf	___flmul@aexp,w
 10212  04E5  1903               	btfsc	3,2
 10213  04E6  2CE8               	goto	u5391
 10214  04E7  2CE9               	goto	u5390
 10215  04E8                     u5391:	
 10216  04E8  2CEE               	goto	l3932
 10217  04E9                     u5390:	
 10218  04E9                     l3930:	
 10219  04E9  0852               	movf	___flmul@bexp,w
 10220  04EA  1D03               	btfss	3,2
 10221  04EB  2CED               	goto	u5401
 10222  04EC  2CEE               	goto	u5400
 10223  04ED                     u5401:	
 10224  04ED  2CF7               	goto	l3936
 10225  04EE                     u5400:	
 10226  04EE                     l3932:	
 10227  04EE  3000               	movlw	0
 10228  04EF  00C2               	movwf	?___flmul+3
 10229  04F0  3000               	movlw	0
 10230  04F1  00C1               	movwf	?___flmul+2
 10231  04F2  3000               	movlw	0
 10232  04F3  00C0               	movwf	?___flmul+1
 10233  04F4  3000               	movlw	0
 10234  04F5  00BF               	movwf	?___flmul
 10235  04F6  2FEA               	goto	l684
 10236  04F7                     l3936:	
 10237  04F7  083F               	movf	___flmul@b,w
 10238  04F8  00C7               	movwf	??___flmul
 10239  04F9  0847               	movf	??___flmul,w
 10240  04FA  00F0               	movwf	__Umul8_16@multiplicand
 10241  04FB  0845               	movf	___flmul@a+2,w
 10242  04FC  160A  158A  2206  120A  118A  	fcall	__Umul8_16
 10243  0501  0871               	movf	?__Umul8_16+1,w
 10244  0502  1283               	bcf	3,5	;RP0=0, select bank0
 10245  0503  1303               	bcf	3,6	;RP1=0, select bank0
 10246  0504  00D8               	movwf	___flmul@temp+1
 10247  0505  0870               	movf	?__Umul8_16,w
 10248  0506  00D7               	movwf	___flmul@temp
 10249  0507                     l3938:	
 10250  0507  0857               	movf	___flmul@temp,w
 10251  0508  00C7               	movwf	??___flmul
 10252  0509  01C8               	clrf	??___flmul+1
 10253  050A  01C9               	clrf	??___flmul+2
 10254  050B  01CA               	clrf	??___flmul+3
 10255  050C  084A               	movf	??___flmul+3,w
 10256  050D  00D1               	movwf	___flmul@grs+3
 10257  050E  0849               	movf	??___flmul+2,w
 10258  050F  00D0               	movwf	___flmul@grs+2
 10259  0510  0848               	movf	??___flmul+1,w
 10260  0511  00CF               	movwf	___flmul@grs+1
 10261  0512  0847               	movf	??___flmul,w
 10262  0513  00CE               	movwf	___flmul@grs
 10263  0514                     l3940:	
 10264  0514  0858               	movf	___flmul@temp+1,w
 10265  0515  00C7               	movwf	??___flmul
 10266  0516  01C8               	clrf	??___flmul+1
 10267  0517  01C9               	clrf	??___flmul+2
 10268  0518  01CA               	clrf	??___flmul+3
 10269  0519  084A               	movf	??___flmul+3,w
 10270  051A  00D6               	movwf	___flmul@prod+3
 10271  051B  0849               	movf	??___flmul+2,w
 10272  051C  00D5               	movwf	___flmul@prod+2
 10273  051D  0848               	movf	??___flmul+1,w
 10274  051E  00D4               	movwf	___flmul@prod+1
 10275  051F  0847               	movf	??___flmul,w
 10276  0520  00D3               	movwf	___flmul@prod
 10277  0521  0840               	movf	___flmul@b+1,w
 10278  0522  00C7               	movwf	??___flmul
 10279  0523  0847               	movf	??___flmul,w
 10280  0524  00F0               	movwf	__Umul8_16@multiplicand
 10281  0525  0844               	movf	___flmul@a+1,w
 10282  0526  160A  158A  2206  120A  118A  	fcall	__Umul8_16
 10283  052B  0871               	movf	?__Umul8_16+1,w
 10284  052C  1283               	bcf	3,5	;RP0=0, select bank0
 10285  052D  1303               	bcf	3,6	;RP1=0, select bank0
 10286  052E  00D8               	movwf	___flmul@temp+1
 10287  052F  0870               	movf	?__Umul8_16,w
 10288  0530  00D7               	movwf	___flmul@temp
 10289  0531                     l3942:	
 10290  0531  0857               	movf	___flmul@temp,w
 10291  0532  00C7               	movwf	??___flmul
 10292  0533  01C8               	clrf	??___flmul+1
 10293  0534  01C9               	clrf	??___flmul+2
 10294  0535  01CA               	clrf	??___flmul+3
 10295  0536  0847               	movf	??___flmul,w
 10296  0537  07CE               	addwf	___flmul@grs,f
 10297  0538  0848               	movf	??___flmul+1,w
 10298  0539  1103               	clrz
 10299  053A  1803               	skipnc
 10300  053B  3E01               	addlw	1
 10301  053C  1903               	skipnz
 10302  053D  2D3F               	goto	u5411
 10303  053E  07CF               	addwf	___flmul@grs+1,f
 10304  053F                     u5411:	
 10305  053F  0849               	movf	??___flmul+2,w
 10306  0540  1103               	clrz
 10307  0541  1803               	skipnc
 10308  0542  3E01               	addlw	1
 10309  0543  1903               	skipnz
 10310  0544  2D46               	goto	u5412
 10311  0545  07D0               	addwf	___flmul@grs+2,f
 10312  0546                     u5412:	
 10313  0546  084A               	movf	??___flmul+3,w
 10314  0547  1103               	clrz
 10315  0548  1803               	skipnc
 10316  0549  3E01               	addlw	1
 10317  054A  1903               	skipnz
 10318  054B  2D4D               	goto	u5413
 10319  054C  07D1               	addwf	___flmul@grs+3,f
 10320  054D                     u5413:	
 10321  054D                     l3944:	
 10322  054D  0858               	movf	___flmul@temp+1,w
 10323  054E  00C7               	movwf	??___flmul
 10324  054F  01C8               	clrf	??___flmul+1
 10325  0550  01C9               	clrf	??___flmul+2
 10326  0551  01CA               	clrf	??___flmul+3
 10327  0552  0847               	movf	??___flmul,w
 10328  0553  07D3               	addwf	___flmul@prod,f
 10329  0554  0848               	movf	??___flmul+1,w
 10330  0555  1103               	clrz
 10331  0556  1803               	skipnc
 10332  0557  3E01               	addlw	1
 10333  0558  1903               	skipnz
 10334  0559  2D5B               	goto	u5421
 10335  055A  07D4               	addwf	___flmul@prod+1,f
 10336  055B                     u5421:	
 10337  055B  0849               	movf	??___flmul+2,w
 10338  055C  1103               	clrz
 10339  055D  1803               	skipnc
 10340  055E  3E01               	addlw	1
 10341  055F  1903               	skipnz
 10342  0560  2D62               	goto	u5422
 10343  0561  07D5               	addwf	___flmul@prod+2,f
 10344  0562                     u5422:	
 10345  0562  084A               	movf	??___flmul+3,w
 10346  0563  1103               	clrz
 10347  0564  1803               	skipnc
 10348  0565  3E01               	addlw	1
 10349  0566  1903               	skipnz
 10350  0567  2D69               	goto	u5423
 10351  0568  07D6               	addwf	___flmul@prod+3,f
 10352  0569                     u5423:	
 10353  0569  0841               	movf	___flmul@b+2,w
 10354  056A  00C7               	movwf	??___flmul
 10355  056B  0847               	movf	??___flmul,w
 10356  056C  00F0               	movwf	__Umul8_16@multiplicand
 10357  056D  0843               	movf	___flmul@a,w
 10358  056E  160A  158A  2206  120A  118A  	fcall	__Umul8_16
 10359  0573  0871               	movf	?__Umul8_16+1,w
 10360  0574  1283               	bcf	3,5	;RP0=0, select bank0
 10361  0575  1303               	bcf	3,6	;RP1=0, select bank0
 10362  0576  00D8               	movwf	___flmul@temp+1
 10363  0577  0870               	movf	?__Umul8_16,w
 10364  0578  00D7               	movwf	___flmul@temp
 10365  0579                     l3946:	
 10366  0579  0857               	movf	___flmul@temp,w
 10367  057A  00C7               	movwf	??___flmul
 10368  057B  01C8               	clrf	??___flmul+1
 10369  057C  01C9               	clrf	??___flmul+2
 10370  057D  01CA               	clrf	??___flmul+3
 10371  057E  0847               	movf	??___flmul,w
 10372  057F  07CE               	addwf	___flmul@grs,f
 10373  0580  0848               	movf	??___flmul+1,w
 10374  0581  1103               	clrz
 10375  0582  1803               	skipnc
 10376  0583  3E01               	addlw	1
 10377  0584  1903               	skipnz
 10378  0585  2D87               	goto	u5431
 10379  0586  07CF               	addwf	___flmul@grs+1,f
 10380  0587                     u5431:	
 10381  0587  0849               	movf	??___flmul+2,w
 10382  0588  1103               	clrz
 10383  0589  1803               	skipnc
 10384  058A  3E01               	addlw	1
 10385  058B  1903               	skipnz
 10386  058C  2D8E               	goto	u5432
 10387  058D  07D0               	addwf	___flmul@grs+2,f
 10388  058E                     u5432:	
 10389  058E  084A               	movf	??___flmul+3,w
 10390  058F  1103               	clrz
 10391  0590  1803               	skipnc
 10392  0591  3E01               	addlw	1
 10393  0592  1903               	skipnz
 10394  0593  2D95               	goto	u5433
 10395  0594  07D1               	addwf	___flmul@grs+3,f
 10396  0595                     u5433:	
 10397  0595                     l3948:	
 10398  0595  0858               	movf	___flmul@temp+1,w
 10399  0596  00C7               	movwf	??___flmul
 10400  0597  01C8               	clrf	??___flmul+1
 10401  0598  01C9               	clrf	??___flmul+2
 10402  0599  01CA               	clrf	??___flmul+3
 10403  059A  0847               	movf	??___flmul,w
 10404  059B  07D3               	addwf	___flmul@prod,f
 10405  059C  0848               	movf	??___flmul+1,w
 10406  059D  1103               	clrz
 10407  059E  1803               	skipnc
 10408  059F  3E01               	addlw	1
 10409  05A0  1903               	skipnz
 10410  05A1  2DA3               	goto	u5441
 10411  05A2  07D4               	addwf	___flmul@prod+1,f
 10412  05A3                     u5441:	
 10413  05A3  0849               	movf	??___flmul+2,w
 10414  05A4  1103               	clrz
 10415  05A5  1803               	skipnc
 10416  05A6  3E01               	addlw	1
 10417  05A7  1903               	skipnz
 10418  05A8  2DAA               	goto	u5442
 10419  05A9  07D5               	addwf	___flmul@prod+2,f
 10420  05AA                     u5442:	
 10421  05AA  084A               	movf	??___flmul+3,w
 10422  05AB  1103               	clrz
 10423  05AC  1803               	skipnc
 10424  05AD  3E01               	addlw	1
 10425  05AE  1903               	skipnz
 10426  05AF  2DB1               	goto	u5443
 10427  05B0  07D6               	addwf	___flmul@prod+3,f
 10428  05B1                     u5443:	
 10429  05B1                     l3950:	
 10430  05B1  3008               	movlw	8
 10431  05B2  00C7               	movwf	??___flmul
 10432  05B3                     u5455:	
 10433  05B3  1003               	clrc
 10434  05B4  0DCE               	rlf	___flmul@grs,f
 10435  05B5  0DCF               	rlf	___flmul@grs+1,f
 10436  05B6  0DD0               	rlf	___flmul@grs+2,f
 10437  05B7  0DD1               	rlf	___flmul@grs+3,f
 10438  05B8  0BC7               	decfsz	??___flmul,f
 10439  05B9  2DB3               	goto	u5455
 10440  05BA                     l3952:	
 10441  05BA  0840               	movf	___flmul@b+1,w
 10442  05BB  00C7               	movwf	??___flmul
 10443  05BC  0847               	movf	??___flmul,w
 10444  05BD  00F0               	movwf	__Umul8_16@multiplicand
 10445  05BE  0843               	movf	___flmul@a,w
 10446  05BF  160A  158A  2206  120A  118A  	fcall	__Umul8_16
 10447  05C4  0871               	movf	?__Umul8_16+1,w
 10448  05C5  1283               	bcf	3,5	;RP0=0, select bank0
 10449  05C6  1303               	bcf	3,6	;RP1=0, select bank0
 10450  05C7  00D8               	movwf	___flmul@temp+1
 10451  05C8  0870               	movf	?__Umul8_16,w
 10452  05C9  00D7               	movwf	___flmul@temp
 10453  05CA                     l3954:	
 10454  05CA  0857               	movf	___flmul@temp,w
 10455  05CB  00C7               	movwf	??___flmul
 10456  05CC  0858               	movf	___flmul@temp+1,w
 10457  05CD  00C8               	movwf	??___flmul+1
 10458  05CE  01C9               	clrf	??___flmul+2
 10459  05CF  01CA               	clrf	??___flmul+3
 10460  05D0  0847               	movf	??___flmul,w
 10461  05D1  07CE               	addwf	___flmul@grs,f
 10462  05D2  0848               	movf	??___flmul+1,w
 10463  05D3  1103               	clrz
 10464  05D4  1803               	skipnc
 10465  05D5  3E01               	addlw	1
 10466  05D6  1903               	skipnz
 10467  05D7  2DD9               	goto	u5461
 10468  05D8  07CF               	addwf	___flmul@grs+1,f
 10469  05D9                     u5461:	
 10470  05D9  0849               	movf	??___flmul+2,w
 10471  05DA  1103               	clrz
 10472  05DB  1803               	skipnc
 10473  05DC  3E01               	addlw	1
 10474  05DD  1903               	skipnz
 10475  05DE  2DE0               	goto	u5462
 10476  05DF  07D0               	addwf	___flmul@grs+2,f
 10477  05E0                     u5462:	
 10478  05E0  084A               	movf	??___flmul+3,w
 10479  05E1  1103               	clrz
 10480  05E2  1803               	skipnc
 10481  05E3  3E01               	addlw	1
 10482  05E4  1903               	skipnz
 10483  05E5  2DE7               	goto	u5463
 10484  05E6  07D1               	addwf	___flmul@grs+3,f
 10485  05E7                     u5463:	
 10486  05E7                     l3956:	
 10487  05E7  083F               	movf	___flmul@b,w
 10488  05E8  00C7               	movwf	??___flmul
 10489  05E9  0847               	movf	??___flmul,w
 10490  05EA  00F0               	movwf	__Umul8_16@multiplicand
 10491  05EB  0844               	movf	___flmul@a+1,w
 10492  05EC  160A  158A  2206  120A  118A  	fcall	__Umul8_16
 10493  05F1  0871               	movf	?__Umul8_16+1,w
 10494  05F2  1283               	bcf	3,5	;RP0=0, select bank0
 10495  05F3  1303               	bcf	3,6	;RP1=0, select bank0
 10496  05F4  00D8               	movwf	___flmul@temp+1
 10497  05F5  0870               	movf	?__Umul8_16,w
 10498  05F6  00D7               	movwf	___flmul@temp
 10499  05F7                     l3958:	
 10500  05F7  0857               	movf	___flmul@temp,w
 10501  05F8  00C7               	movwf	??___flmul
 10502  05F9  0858               	movf	___flmul@temp+1,w
 10503  05FA  00C8               	movwf	??___flmul+1
 10504  05FB  01C9               	clrf	??___flmul+2
 10505  05FC  01CA               	clrf	??___flmul+3
 10506  05FD  0847               	movf	??___flmul,w
 10507  05FE  07CE               	addwf	___flmul@grs,f
 10508  05FF  0848               	movf	??___flmul+1,w
 10509  0600  1103               	clrz
 10510  0601  1803               	skipnc
 10511  0602  3E01               	addlw	1
 10512  0603  1903               	skipnz
 10513  0604  2E06               	goto	u5471
 10514  0605  07CF               	addwf	___flmul@grs+1,f
 10515  0606                     u5471:	
 10516  0606  0849               	movf	??___flmul+2,w
 10517  0607  1103               	clrz
 10518  0608  1803               	skipnc
 10519  0609  3E01               	addlw	1
 10520  060A  1903               	skipnz
 10521  060B  2E0D               	goto	u5472
 10522  060C  07D0               	addwf	___flmul@grs+2,f
 10523  060D                     u5472:	
 10524  060D  084A               	movf	??___flmul+3,w
 10525  060E  1103               	clrz
 10526  060F  1803               	skipnc
 10527  0610  3E01               	addlw	1
 10528  0611  1903               	skipnz
 10529  0612  2E14               	goto	u5473
 10530  0613  07D1               	addwf	___flmul@grs+3,f
 10531  0614                     u5473:	
 10532  0614                     l3960:	
 10533  0614  3008               	movlw	8
 10534  0615  00C7               	movwf	??___flmul
 10535  0616                     u5485:	
 10536  0616  1003               	clrc
 10537  0617  0DCE               	rlf	___flmul@grs,f
 10538  0618  0DCF               	rlf	___flmul@grs+1,f
 10539  0619  0DD0               	rlf	___flmul@grs+2,f
 10540  061A  0DD1               	rlf	___flmul@grs+3,f
 10541  061B  0BC7               	decfsz	??___flmul,f
 10542  061C  2E16               	goto	u5485
 10543  061D  083F               	movf	___flmul@b,w
 10544  061E  00C7               	movwf	??___flmul
 10545  061F  0847               	movf	??___flmul,w
 10546  0620  00F0               	movwf	__Umul8_16@multiplicand
 10547  0621  0843               	movf	___flmul@a,w
 10548  0622  160A  158A  2206  120A  118A  	fcall	__Umul8_16
 10549  0627  0871               	movf	?__Umul8_16+1,w
 10550  0628  1283               	bcf	3,5	;RP0=0, select bank0
 10551  0629  1303               	bcf	3,6	;RP1=0, select bank0
 10552  062A  00D8               	movwf	___flmul@temp+1
 10553  062B  0870               	movf	?__Umul8_16,w
 10554  062C  00D7               	movwf	___flmul@temp
 10555  062D                     l3962:	
 10556  062D  0857               	movf	___flmul@temp,w
 10557  062E  00C7               	movwf	??___flmul
 10558  062F  0858               	movf	___flmul@temp+1,w
 10559  0630  00C8               	movwf	??___flmul+1
 10560  0631  01C9               	clrf	??___flmul+2
 10561  0632  01CA               	clrf	??___flmul+3
 10562  0633  0847               	movf	??___flmul,w
 10563  0634  07CE               	addwf	___flmul@grs,f
 10564  0635  0848               	movf	??___flmul+1,w
 10565  0636  1103               	clrz
 10566  0637  1803               	skipnc
 10567  0638  3E01               	addlw	1
 10568  0639  1903               	skipnz
 10569  063A  2E3C               	goto	u5491
 10570  063B  07CF               	addwf	___flmul@grs+1,f
 10571  063C                     u5491:	
 10572  063C  0849               	movf	??___flmul+2,w
 10573  063D  1103               	clrz
 10574  063E  1803               	skipnc
 10575  063F  3E01               	addlw	1
 10576  0640  1903               	skipnz
 10577  0641  2E43               	goto	u5492
 10578  0642  07D0               	addwf	___flmul@grs+2,f
 10579  0643                     u5492:	
 10580  0643  084A               	movf	??___flmul+3,w
 10581  0644  1103               	clrz
 10582  0645  1803               	skipnc
 10583  0646  3E01               	addlw	1
 10584  0647  1903               	skipnz
 10585  0648  2E4A               	goto	u5493
 10586  0649  07D1               	addwf	___flmul@grs+3,f
 10587  064A                     u5493:	
 10588  064A                     l3964:	
 10589  064A  0840               	movf	___flmul@b+1,w
 10590  064B  00C7               	movwf	??___flmul
 10591  064C  0847               	movf	??___flmul,w
 10592  064D  00F0               	movwf	__Umul8_16@multiplicand
 10593  064E  0845               	movf	___flmul@a+2,w
 10594  064F  160A  158A  2206  120A  118A  	fcall	__Umul8_16
 10595  0654  0871               	movf	?__Umul8_16+1,w
 10596  0655  1283               	bcf	3,5	;RP0=0, select bank0
 10597  0656  1303               	bcf	3,6	;RP1=0, select bank0
 10598  0657  00D8               	movwf	___flmul@temp+1
 10599  0658  0870               	movf	?__Umul8_16,w
 10600  0659  00D7               	movwf	___flmul@temp
 10601  065A  0857               	movf	___flmul@temp,w
 10602  065B  00C7               	movwf	??___flmul
 10603  065C  0858               	movf	___flmul@temp+1,w
 10604  065D  00C8               	movwf	??___flmul+1
 10605  065E  01C9               	clrf	??___flmul+2
 10606  065F  01CA               	clrf	??___flmul+3
 10607  0660  0847               	movf	??___flmul,w
 10608  0661  07D3               	addwf	___flmul@prod,f
 10609  0662  0848               	movf	??___flmul+1,w
 10610  0663  1103               	clrz
 10611  0664  1803               	skipnc
 10612  0665  3E01               	addlw	1
 10613  0666  1903               	skipnz
 10614  0667  2E69               	goto	u5501
 10615  0668  07D4               	addwf	___flmul@prod+1,f
 10616  0669                     u5501:	
 10617  0669  0849               	movf	??___flmul+2,w
 10618  066A  1103               	clrz
 10619  066B  1803               	skipnc
 10620  066C  3E01               	addlw	1
 10621  066D  1903               	skipnz
 10622  066E  2E70               	goto	u5502
 10623  066F  07D5               	addwf	___flmul@prod+2,f
 10624  0670                     u5502:	
 10625  0670  084A               	movf	??___flmul+3,w
 10626  0671  1103               	clrz
 10627  0672  1803               	skipnc
 10628  0673  3E01               	addlw	1
 10629  0674  1903               	skipnz
 10630  0675  2E77               	goto	u5503
 10631  0676  07D6               	addwf	___flmul@prod+3,f
 10632  0677                     u5503:	
 10633  0677                     l3966:	
 10634  0677  0841               	movf	___flmul@b+2,w
 10635  0678  00C7               	movwf	??___flmul
 10636  0679  0847               	movf	??___flmul,w
 10637  067A  00F0               	movwf	__Umul8_16@multiplicand
 10638  067B  0844               	movf	___flmul@a+1,w
 10639  067C  160A  158A  2206  120A  118A  	fcall	__Umul8_16
 10640  0681  0871               	movf	?__Umul8_16+1,w
 10641  0682  1283               	bcf	3,5	;RP0=0, select bank0
 10642  0683  1303               	bcf	3,6	;RP1=0, select bank0
 10643  0684  00D8               	movwf	___flmul@temp+1
 10644  0685  0870               	movf	?__Umul8_16,w
 10645  0686  00D7               	movwf	___flmul@temp
 10646  0687                     l3968:	
 10647  0687  0857               	movf	___flmul@temp,w
 10648  0688  00C7               	movwf	??___flmul
 10649  0689  0858               	movf	___flmul@temp+1,w
 10650  068A  00C8               	movwf	??___flmul+1
 10651  068B  01C9               	clrf	??___flmul+2
 10652  068C  01CA               	clrf	??___flmul+3
 10653  068D  0847               	movf	??___flmul,w
 10654  068E  07D3               	addwf	___flmul@prod,f
 10655  068F  0848               	movf	??___flmul+1,w
 10656  0690  1103               	clrz
 10657  0691  1803               	skipnc
 10658  0692  3E01               	addlw	1
 10659  0693  1903               	skipnz
 10660  0694  2E96               	goto	u5511
 10661  0695  07D4               	addwf	___flmul@prod+1,f
 10662  0696                     u5511:	
 10663  0696  0849               	movf	??___flmul+2,w
 10664  0697  1103               	clrz
 10665  0698  1803               	skipnc
 10666  0699  3E01               	addlw	1
 10667  069A  1903               	skipnz
 10668  069B  2E9D               	goto	u5512
 10669  069C  07D5               	addwf	___flmul@prod+2,f
 10670  069D                     u5512:	
 10671  069D  084A               	movf	??___flmul+3,w
 10672  069E  1103               	clrz
 10673  069F  1803               	skipnc
 10674  06A0  3E01               	addlw	1
 10675  06A1  1903               	skipnz
 10676  06A2  2EA4               	goto	u5513
 10677  06A3  07D6               	addwf	___flmul@prod+3,f
 10678  06A4                     u5513:	
 10679  06A4  0841               	movf	___flmul@b+2,w
 10680  06A5  00C7               	movwf	??___flmul
 10681  06A6  0847               	movf	??___flmul,w
 10682  06A7  00F0               	movwf	__Umul8_16@multiplicand
 10683  06A8  0845               	movf	___flmul@a+2,w
 10684  06A9  160A  158A  2206  120A  118A  	fcall	__Umul8_16
 10685  06AE  0871               	movf	?__Umul8_16+1,w
 10686  06AF  1283               	bcf	3,5	;RP0=0, select bank0
 10687  06B0  1303               	bcf	3,6	;RP1=0, select bank0
 10688  06B1  00D8               	movwf	___flmul@temp+1
 10689  06B2  0870               	movf	?__Umul8_16,w
 10690  06B3  00D7               	movwf	___flmul@temp
 10691  06B4                     l3970:	
 10692  06B4  0857               	movf	___flmul@temp,w
 10693  06B5  00C7               	movwf	??___flmul
 10694  06B6  0858               	movf	___flmul@temp+1,w
 10695  06B7  00C8               	movwf	??___flmul+1
 10696  06B8  01C9               	clrf	??___flmul+2
 10697  06B9  01CA               	clrf	??___flmul+3
 10698  06BA  3008               	movlw	8
 10699  06BB                     u5525:	
 10700  06BB  1003               	clrc
 10701  06BC  0DC7               	rlf	??___flmul,f
 10702  06BD  0DC8               	rlf	??___flmul+1,f
 10703  06BE  0DC9               	rlf	??___flmul+2,f
 10704  06BF  0DCA               	rlf	??___flmul+3,f
 10705  06C0                     u5520:	
 10706  06C0  3EFF               	addlw	-1
 10707  06C1  1D03               	skipz
 10708  06C2  2EBB               	goto	u5525
 10709  06C3  0847               	movf	??___flmul,w
 10710  06C4  07D3               	addwf	___flmul@prod,f
 10711  06C5  0848               	movf	??___flmul+1,w
 10712  06C6  1103               	clrz
 10713  06C7  1803               	skipnc
 10714  06C8  3E01               	addlw	1
 10715  06C9  1903               	skipnz
 10716  06CA  2ECC               	goto	u5531
 10717  06CB  07D4               	addwf	___flmul@prod+1,f
 10718  06CC                     u5531:	
 10719  06CC  0849               	movf	??___flmul+2,w
 10720  06CD  1103               	clrz
 10721  06CE  1803               	skipnc
 10722  06CF  3E01               	addlw	1
 10723  06D0  1903               	skipnz
 10724  06D1  2ED3               	goto	u5532
 10725  06D2  07D5               	addwf	___flmul@prod+2,f
 10726  06D3                     u5532:	
 10727  06D3  084A               	movf	??___flmul+3,w
 10728  06D4  1103               	clrz
 10729  06D5  1803               	skipnc
 10730  06D6  3E01               	addlw	1
 10731  06D7  1903               	skipnz
 10732  06D8  2EDA               	goto	u5533
 10733  06D9  07D6               	addwf	___flmul@prod+3,f
 10734  06DA                     u5533:	
 10735  06DA                     l3972:	
 10736  06DA  084E               	movf	___flmul@grs,w
 10737  06DB  00C7               	movwf	??___flmul
 10738  06DC  084F               	movf	___flmul@grs+1,w
 10739  06DD  00C8               	movwf	??___flmul+1
 10740  06DE  0850               	movf	___flmul@grs+2,w
 10741  06DF  00C9               	movwf	??___flmul+2
 10742  06E0  0851               	movf	___flmul@grs+3,w
 10743  06E1  00CA               	movwf	??___flmul+3
 10744  06E2  3018               	movlw	24
 10745  06E3                     u5545:	
 10746  06E3  1003               	clrc
 10747  06E4  0CCA               	rrf	??___flmul+3,f
 10748  06E5  0CC9               	rrf	??___flmul+2,f
 10749  06E6  0CC8               	rrf	??___flmul+1,f
 10750  06E7  0CC7               	rrf	??___flmul,f
 10751  06E8                     u5540:	
 10752  06E8  3EFF               	addlw	-1
 10753  06E9  1D03               	skipz
 10754  06EA  2EE3               	goto	u5545
 10755  06EB  0847               	movf	??___flmul,w
 10756  06EC  07D3               	addwf	___flmul@prod,f
 10757  06ED  0848               	movf	??___flmul+1,w
 10758  06EE  1103               	clrz
 10759  06EF  1803               	skipnc
 10760  06F0  3E01               	addlw	1
 10761  06F1  1903               	skipnz
 10762  06F2  2EF4               	goto	u5551
 10763  06F3  07D4               	addwf	___flmul@prod+1,f
 10764  06F4                     u5551:	
 10765  06F4  0849               	movf	??___flmul+2,w
 10766  06F5  1103               	clrz
 10767  06F6  1803               	skipnc
 10768  06F7  3E01               	addlw	1
 10769  06F8  1903               	skipnz
 10770  06F9  2EFB               	goto	u5552
 10771  06FA  07D5               	addwf	___flmul@prod+2,f
 10772  06FB                     u5552:	
 10773  06FB  084A               	movf	??___flmul+3,w
 10774  06FC  1103               	clrz
 10775  06FD  1803               	skipnc
 10776  06FE  3E01               	addlw	1
 10777  06FF  1903               	skipnz
 10778  0700  2F02               	goto	u5553
 10779  0701  07D6               	addwf	___flmul@prod+3,f
 10780  0702                     u5553:	
 10781  0702                     l3974:	
 10782  0702  3008               	movlw	8
 10783  0703  00C7               	movwf	??___flmul
 10784  0704                     u5565:	
 10785  0704  1003               	clrc
 10786  0705  0DCE               	rlf	___flmul@grs,f
 10787  0706  0DCF               	rlf	___flmul@grs+1,f
 10788  0707  0DD0               	rlf	___flmul@grs+2,f
 10789  0708  0DD1               	rlf	___flmul@grs+3,f
 10790  0709  0BC7               	decfsz	??___flmul,f
 10791  070A  2F04               	goto	u5565
 10792  070B                     l3976:	
 10793  070B  0852               	movf	___flmul@bexp,w
 10794  070C  074D               	addwf	___flmul@aexp,w
 10795  070D  00C7               	movwf	??___flmul
 10796  070E  01C8               	clrf	??___flmul+1
 10797  070F  0DC8               	rlf	??___flmul+1,f
 10798  0710  0847               	movf	??___flmul,w
 10799  0711  3E82               	addlw	130
 10800  0712  00D7               	movwf	___flmul@temp
 10801  0713  0848               	movf	??___flmul+1,w
 10802  0714  1803               	skipnc
 10803  0715  3E01               	addlw	1
 10804  0716  3EFF               	addlw	255
 10805  0717  00D8               	movwf	___flmul@temp+1
 10806  0718  2F36               	goto	l3988
 10807  0719                     l3978:	
 10808  0719  3001               	movlw	1
 10809  071A  00C7               	movwf	??___flmul
 10810  071B                     u5575:	
 10811  071B  1003               	clrc
 10812  071C  0DD3               	rlf	___flmul@prod,f
 10813  071D  0DD4               	rlf	___flmul@prod+1,f
 10814  071E  0DD5               	rlf	___flmul@prod+2,f
 10815  071F  0DD6               	rlf	___flmul@prod+3,f
 10816  0720  0BC7               	decfsz	??___flmul,f
 10817  0721  2F1B               	goto	u5575
 10818  0722                     l3980:	
 10819  0722  1FD1               	btfss	___flmul@grs+3,7
 10820  0723  2F25               	goto	u5581
 10821  0724  2F26               	goto	u5580
 10822  0725                     u5581:	
 10823  0725  2F27               	goto	l3984
 10824  0726                     u5580:	
 10825  0726                     l3982:	
 10826  0726  1453               	bsf	___flmul@prod,0
 10827  0727                     l3984:	
 10828  0727  3001               	movlw	1
 10829  0728  00C7               	movwf	??___flmul
 10830  0729                     u5595:	
 10831  0729  1003               	clrc
 10832  072A  0DCE               	rlf	___flmul@grs,f
 10833  072B  0DCF               	rlf	___flmul@grs+1,f
 10834  072C  0DD0               	rlf	___flmul@grs+2,f
 10835  072D  0DD1               	rlf	___flmul@grs+3,f
 10836  072E  0BC7               	decfsz	??___flmul,f
 10837  072F  2F29               	goto	u5595
 10838  0730                     l3986:	
 10839  0730  30FF               	movlw	255
 10840  0731  07D7               	addwf	___flmul@temp,f
 10841  0732  1803               	skipnc
 10842  0733  0AD8               	incf	___flmul@temp+1,f
 10843  0734  30FF               	movlw	255
 10844  0735  07D8               	addwf	___flmul@temp+1,f
 10845  0736                     l3988:	
 10846  0736  1FD5               	btfss	___flmul@prod+2,7
 10847  0737  2F39               	goto	u5601
 10848  0738  2F3A               	goto	u5600
 10849  0739                     u5601:	
 10850  0739  2F19               	goto	l3978
 10851  073A                     u5600:	
 10852  073A                     l3990:	
 10853  073A  01CD               	clrf	___flmul@aexp
 10854  073B                     l3992:	
 10855  073B  1FD1               	btfss	___flmul@grs+3,7
 10856  073C  2F3E               	goto	u5611
 10857  073D  2F3F               	goto	u5610
 10858  073E                     u5611:	
 10859  073E  2F5B               	goto	l4000
 10860  073F                     u5610:	
 10861  073F                     l3994:	
 10862  073F  30FF               	movlw	255
 10863  0740  054E               	andwf	___flmul@grs,w
 10864  0741  00C7               	movwf	??___flmul
 10865  0742  30FF               	movlw	255
 10866  0743  054F               	andwf	___flmul@grs+1,w
 10867  0744  00C8               	movwf	??___flmul+1
 10868  0745  30FF               	movlw	255
 10869  0746  0550               	andwf	___flmul@grs+2,w
 10870  0747  00C9               	movwf	??___flmul+2
 10871  0748  307F               	movlw	127
 10872  0749  0551               	andwf	___flmul@grs+3,w
 10873  074A  00CA               	movwf	??___flmul+3
 10874  074B  084A               	movf	??___flmul+3,w
 10875  074C  0449               	iorwf	??___flmul+2,w
 10876  074D  0448               	iorwf	??___flmul+1,w
 10877  074E  0447               	iorwf	??___flmul,w
 10878  074F  1903               	skipnz
 10879  0750  2F52               	goto	u5621
 10880  0751  2F53               	goto	u5620
 10881  0752                     u5621:	
 10882  0752  2F56               	goto	l690
 10883  0753                     u5620:	
 10884  0753                     l3996:	
 10885  0753  01CD               	clrf	___flmul@aexp
 10886  0754  0ACD               	incf	___flmul@aexp,f
 10887  0755  2F5B               	goto	l4000
 10888  0756                     l690:	
 10889  0756  1C53               	btfss	___flmul@prod,0
 10890  0757  2F59               	goto	u5631
 10891  0758  2F5A               	goto	u5630
 10892  0759                     u5631:	
 10893  0759  2F5B               	goto	l4000
 10894  075A                     u5630:	
 10895  075A  2F53               	goto	l3996
 10896  075B                     l4000:	
 10897  075B  084D               	movf	___flmul@aexp,w
 10898  075C  1903               	btfsc	3,2
 10899  075D  2F5F               	goto	u5641
 10900  075E  2F60               	goto	u5640
 10901  075F                     u5641:	
 10902  075F  2F91               	goto	l4010
 10903  0760                     u5640:	
 10904  0760                     l4002:	
 10905  0760  3001               	movlw	1
 10906  0761  07D3               	addwf	___flmul@prod,f
 10907  0762  3000               	movlw	0
 10908  0763  1803               	skipnc
 10909  0764  3001               	movlw	1
 10910  0765  07D4               	addwf	___flmul@prod+1,f
 10911  0766  3000               	movlw	0
 10912  0767  1803               	skipnc
 10913  0768  3001               	movlw	1
 10914  0769  07D5               	addwf	___flmul@prod+2,f
 10915  076A  3000               	movlw	0
 10916  076B  1803               	skipnc
 10917  076C  3001               	movlw	1
 10918  076D  07D6               	addwf	___flmul@prod+3,f
 10919  076E                     l4004:	
 10920  076E  1C56               	btfss	___flmul@prod+3,0
 10921  076F  2F71               	goto	u5651
 10922  0770  2F72               	goto	u5650
 10923  0771                     u5651:	
 10924  0771  2F91               	goto	l4010
 10925  0772                     u5650:	
 10926  0772                     l4006:	
 10927  0772  0853               	movf	___flmul@prod,w
 10928  0773  00C7               	movwf	??___flmul
 10929  0774  0854               	movf	___flmul@prod+1,w
 10930  0775  00C8               	movwf	??___flmul+1
 10931  0776  0855               	movf	___flmul@prod+2,w
 10932  0777  00C9               	movwf	??___flmul+2
 10933  0778  0856               	movf	___flmul@prod+3,w
 10934  0779  00CA               	movwf	??___flmul+3
 10935  077A  3001               	movlw	1
 10936  077B  00CB               	movwf	??___flmul+4
 10937  077C                     u5665:	
 10938  077C  0D4A               	rlf	??___flmul+3,w
 10939  077D  0CCA               	rrf	??___flmul+3,f
 10940  077E  0CC9               	rrf	??___flmul+2,f
 10941  077F  0CC8               	rrf	??___flmul+1,f
 10942  0780  0CC7               	rrf	??___flmul,f
 10943  0781                     u5660:	
 10944  0781  0BCB               	decfsz	??___flmul+4,f
 10945  0782  2F7C               	goto	u5665
 10946  0783  084A               	movf	??___flmul+3,w
 10947  0784  00D6               	movwf	___flmul@prod+3
 10948  0785  0849               	movf	??___flmul+2,w
 10949  0786  00D5               	movwf	___flmul@prod+2
 10950  0787  0848               	movf	??___flmul+1,w
 10951  0788  00D4               	movwf	___flmul@prod+1
 10952  0789  0847               	movf	??___flmul,w
 10953  078A  00D3               	movwf	___flmul@prod
 10954  078B                     l4008:	
 10955  078B  3001               	movlw	1
 10956  078C  07D7               	addwf	___flmul@temp,f
 10957  078D  1803               	skipnc
 10958  078E  0AD8               	incf	___flmul@temp+1,f
 10959  078F  3000               	movlw	0
 10960  0790  07D8               	addwf	___flmul@temp+1,f
 10961  0791                     l4010:	
 10962  0791  0858               	movf	___flmul@temp+1,w
 10963  0792  3A80               	xorlw	128
 10964  0793  00FF               	movwf	btemp+1
 10965  0794  3080               	movlw	128
 10966  0795  027F               	subwf	btemp+1,w
 10967  0796  1D03               	skipz
 10968  0797  2F9A               	goto	u5675
 10969  0798  30FF               	movlw	255
 10970  0799  0257               	subwf	___flmul@temp,w
 10971  079A                     u5675:	
 10972  079A  1C03               	skipc
 10973  079B  2F9D               	goto	u5671
 10974  079C  2F9E               	goto	u5670
 10975  079D                     u5671:	
 10976  079D  2FA9               	goto	l4014
 10977  079E                     u5670:	
 10978  079E                     l4012:	
 10979  079E  307F               	movlw	127
 10980  079F  1283               	bcf	3,5	;RP0=0, select bank0
 10981  07A0  1303               	bcf	3,6	;RP1=0, select bank0
 10982  07A1  00D6               	movwf	___flmul@prod+3
 10983  07A2  3080               	movlw	128
 10984  07A3  00D5               	movwf	___flmul@prod+2
 10985  07A4  3000               	movlw	0
 10986  07A5  00D4               	movwf	___flmul@prod+1
 10987  07A6  3000               	movlw	0
 10988  07A7  00D3               	movwf	___flmul@prod
 10989  07A8  2FDE               	goto	l696
 10990  07A9                     l4014:	
 10991  07A9  1283               	bcf	3,5	;RP0=0, select bank0
 10992  07AA  1303               	bcf	3,6	;RP1=0, select bank0
 10993  07AB  0858               	movf	___flmul@temp+1,w
 10994  07AC  3A80               	xorlw	128
 10995  07AD  00FF               	movwf	btemp+1
 10996  07AE  3080               	movlw	128
 10997  07AF  027F               	subwf	btemp+1,w
 10998  07B0  1D03               	skipz
 10999  07B1  2FB4               	goto	u5685
 11000  07B2  3001               	movlw	1
 11001  07B3  0257               	subwf	___flmul@temp,w
 11002  07B4                     u5685:	
 11003  07B4  1803               	skipnc
 11004  07B5  2FB7               	goto	u5681
 11005  07B6  2FB8               	goto	u5680
 11006  07B7                     u5681:	
 11007  07B7  2FC4               	goto	l4020
 11008  07B8                     u5680:	
 11009  07B8                     l4016:	
 11010  07B8  3000               	movlw	0
 11011  07B9  1283               	bcf	3,5	;RP0=0, select bank0
 11012  07BA  1303               	bcf	3,6	;RP1=0, select bank0
 11013  07BB  00D6               	movwf	___flmul@prod+3
 11014  07BC  3000               	movlw	0
 11015  07BD  00D5               	movwf	___flmul@prod+2
 11016  07BE  3000               	movlw	0
 11017  07BF  00D4               	movwf	___flmul@prod+1
 11018  07C0  3000               	movlw	0
 11019  07C1  00D3               	movwf	___flmul@prod
 11020  07C2                     l4018:	
 11021  07C2  01CC               	clrf	___flmul@sign
 11022  07C3  2FDE               	goto	l696
 11023  07C4                     l4020:	
 11024  07C4  1283               	bcf	3,5	;RP0=0, select bank0
 11025  07C5  1303               	bcf	3,6	;RP1=0, select bank0
 11026  07C6  0857               	movf	___flmul@temp,w
 11027  07C7  00C7               	movwf	??___flmul
 11028  07C8  0847               	movf	??___flmul,w
 11029  07C9  00D2               	movwf	___flmul@bexp
 11030  07CA  30FF               	movlw	255
 11031  07CB  05D3               	andwf	___flmul@prod,f
 11032  07CC  30FF               	movlw	255
 11033  07CD  05D4               	andwf	___flmul@prod+1,f
 11034  07CE  307F               	movlw	127
 11035  07CF  05D5               	andwf	___flmul@prod+2,f
 11036  07D0  3000               	movlw	0
 11037  07D1  05D6               	andwf	___flmul@prod+3,f
 11038  07D2                     l4022:	
 11039  07D2  1C52               	btfss	___flmul@bexp,0
 11040  07D3  2FD5               	goto	u5691
 11041  07D4  2FD6               	goto	u5690
 11042  07D5                     u5691:	
 11043  07D5  2FD7               	goto	l4026
 11044  07D6                     u5690:	
 11045  07D6                     l4024:	
 11046  07D6  17D5               	bsf	___flmul@prod+2,7
 11047  07D7                     l4026:	
 11048  07D7  0852               	movf	___flmul@bexp,w
 11049  07D8  00C7               	movwf	??___flmul
 11050  07D9  1003               	clrc
 11051  07DA  0C47               	rrf	??___flmul,w
 11052  07DB  00C8               	movwf	??___flmul+1
 11053  07DC  0848               	movf	??___flmul+1,w
 11054  07DD  00D6               	movwf	___flmul@prod+3
 11055  07DE                     l696:	
 11056  07DE  084C               	movf	___flmul@sign,w
 11057  07DF  00C7               	movwf	??___flmul
 11058  07E0  0847               	movf	??___flmul,w
 11059  07E1  04D6               	iorwf	___flmul@prod+3,f
 11060  07E2                     l4028:	
 11061  07E2  0856               	movf	___flmul@prod+3,w
 11062  07E3  00C2               	movwf	?___flmul+3
 11063  07E4  0855               	movf	___flmul@prod+2,w
 11064  07E5  00C1               	movwf	?___flmul+2
 11065  07E6  0854               	movf	___flmul@prod+1,w
 11066  07E7  00C0               	movwf	?___flmul+1
 11067  07E8  0853               	movf	___flmul@prod,w
 11068  07E9  00BF               	movwf	?___flmul
 11069  07EA                     l684:	
 11070  07EA  0008               	return
 11071  07EB                     __end_of___flmul:	
 11072                           
 11073                           	psect	text44
 11074  1A06                     __ptext44:	
 11075 ;; *************** function __Umul8_16 *****************
 11076 ;; Defined at:
 11077 ;;		line 4 in file "C:\Program Files (x86)\Microchip\xc8\v2.10\pic\sources\c90\common\Umul8_16.c"
 11078 ;; Parameters:    Size  Location     Type
 11079 ;;  multiplier      1    wreg     unsigned char 
 11080 ;;  multiplicand    1    0[COMMON] unsigned char 
 11081 ;; Auto vars:     Size  Location     Type
 11082 ;;  multiplier      1    8[COMMON] unsigned char 
 11083 ;;  word_mpld       2    6[COMMON] unsigned int 
 11084 ;;  product         2    4[COMMON] unsigned int 
 11085 ;; Return value:  Size  Location     Type
 11086 ;;                  2    0[COMMON] unsigned int 
 11087 ;; Registers used:
 11088 ;;		wreg, status,2, status,0
 11089 ;; Tracked objects:
 11090 ;;		On entry : 0/0
 11091 ;;		On exit  : 0/0
 11092 ;;		Unchanged: 0/0
 11093 ;; Data sizes:     COMMON   BANK0   BANK1   BANK3   BANK2
 11094 ;;      Params:         2       0       0       0       0
 11095 ;;      Locals:         5       0       0       0       0
 11096 ;;      Temps:          2       0       0       0       0
 11097 ;;      Totals:         9       0       0       0       0
 11098 ;;Total ram usage:        9 bytes
 11099 ;; Hardware stack levels used:    1
 11100 ;; This function calls:
 11101 ;;		Nothing
 11102 ;; This function is called by:
 11103 ;;		___flmul
 11104 ;; This function uses a non-reentrant model
 11105 ;;
 11106                           
 11107                           
 11108                           ;psect for function __Umul8_16
 11109  1A06                     __Umul8_16:	
 11110                           
 11111                           ;incstack = 0
 11112                           ; Regs used in __Umul8_16: [wreg+status,2+status,0]
 11113                           ;__Umul8_16@multiplier stored from wreg
 11114  1A06  00F8               	movwf	__Umul8_16@multiplier
 11115  1A07                     l3628:	
 11116  1A07  01F4               	clrf	__Umul8_16@product
 11117  1A08  01F5               	clrf	__Umul8_16@product+1
 11118  1A09                     l3630:	
 11119  1A09  0870               	movf	__Umul8_16@multiplicand,w
 11120  1A0A  00F2               	movwf	??__Umul8_16
 11121  1A0B  01F3               	clrf	??__Umul8_16+1
 11122  1A0C  0872               	movf	??__Umul8_16,w
 11123  1A0D  00F6               	movwf	__Umul8_16@word_mpld
 11124  1A0E  0873               	movf	??__Umul8_16+1,w
 11125  1A0F  00F7               	movwf	__Umul8_16@word_mpld+1
 11126  1A10                     l3632:	
 11127  1A10  1C78               	btfss	__Umul8_16@multiplier,0
 11128  1A11  2A13               	goto	u4671
 11129  1A12  2A14               	goto	u4670
 11130  1A13                     u4671:	
 11131  1A13  2A1A               	goto	l770
 11132  1A14                     u4670:	
 11133  1A14                     l3634:	
 11134  1A14  0876               	movf	__Umul8_16@word_mpld,w
 11135  1A15  07F4               	addwf	__Umul8_16@product,f
 11136  1A16  1803               	skipnc
 11137  1A17  0AF5               	incf	__Umul8_16@product+1,f
 11138  1A18  0877               	movf	__Umul8_16@word_mpld+1,w
 11139  1A19  07F5               	addwf	__Umul8_16@product+1,f
 11140  1A1A                     l770:	
 11141  1A1A  3001               	movlw	1
 11142  1A1B                     u4685:	
 11143  1A1B  1003               	clrc
 11144  1A1C  0DF6               	rlf	__Umul8_16@word_mpld,f
 11145  1A1D  0DF7               	rlf	__Umul8_16@word_mpld+1,f
 11146  1A1E  3EFF               	addlw	-1
 11147  1A1F  1D03               	skipz
 11148  1A20  2A1B               	goto	u4685
 11149  1A21  1003               	clrc
 11150  1A22  0CF8               	rrf	__Umul8_16@multiplier,f
 11151  1A23                     l3636:	
 11152  1A23  0878               	movf	__Umul8_16@multiplier,w
 11153  1A24  1D03               	btfss	3,2
 11154  1A25  2A27               	goto	u4691
 11155  1A26  2A28               	goto	u4690
 11156  1A27                     u4691:	
 11157  1A27  2A10               	goto	l3632
 11158  1A28                     u4690:	
 11159  1A28                     l3638:	
 11160  1A28  0875               	movf	__Umul8_16@product+1,w
 11161  1A29  00F1               	movwf	?__Umul8_16+1
 11162  1A2A  0874               	movf	__Umul8_16@product,w
 11163  1A2B  00F0               	movwf	?__Umul8_16
 11164  1A2C                     l772:	
 11165  1A2C  0008               	return
 11166  1A2D                     __end_of__Umul8_16:	
 11167                           
 11168                           	psect	text45
 11169  01EA                     __ptext45:	
 11170 ;; *************** function ___fldiv *****************
 11171 ;; Defined at:
 11172 ;;		line 8 in file "C:\Program Files (x86)\Microchip\xc8\v2.10\pic\sources\c90\common\sprcdiv.c"
 11173 ;; Parameters:    Size  Location     Type
 11174 ;;  a               4   57[BANK0 ] unsigned int 
 11175 ;;  b               4   61[BANK0 ] unsigned int 
 11176 ;; Auto vars:     Size  Location     Type
 11177 ;;  grs             4    7[BANK1 ] unsigned long 
 11178 ;;  rem             4    0[BANK1 ] unsigned long 
 11179 ;;  new_exp         2    5[BANK1 ] int 
 11180 ;;  aexp            1   12[BANK1 ] unsigned char 
 11181 ;;  bexp            1   11[BANK1 ] unsigned char 
 11182 ;;  sign            1    4[BANK1 ] unsigned char 
 11183 ;; Return value:  Size  Location     Type
 11184 ;;                  4   57[BANK0 ] unsigned char 
 11185 ;; Registers used:
 11186 ;;		wreg, status,2, status,0, btemp+1
 11187 ;; Tracked objects:
 11188 ;;		On entry : 0/0
 11189 ;;		On exit  : 0/0
 11190 ;;		Unchanged: 0/0
 11191 ;; Data sizes:     COMMON   BANK0   BANK1   BANK3   BANK2
 11192 ;;      Params:         0       8       0       0       0
 11193 ;;      Locals:         0       0      13       0       0
 11194 ;;      Temps:          0       5       0       0       0
 11195 ;;      Totals:         0      13      13       0       0
 11196 ;;Total ram usage:       26 bytes
 11197 ;; Hardware stack levels used:    1
 11198 ;; This function calls:
 11199 ;;		Nothing
 11200 ;; This function is called by:
 11201 ;;		_lee1
 11202 ;;		_lee2
 11203 ;;		_lee3
 11204 ;;		_lee4
 11205 ;;		_ADCread3
 11206 ;;		_ADCread4
 11207 ;;		_exp
 11208 ;; This function uses a non-reentrant model
 11209 ;;
 11210                           
 11211                           
 11212                           ;psect for function ___fldiv
 11213  01EA                     ___fldiv:	
 11214  01EA                     l4110:	
 11215                           ;incstack = 0
 11216                           ; Regs used in ___fldiv: [wreg+status,2+status,0+btemp+1]
 11217                           
 11218  01EA  1283               	bcf	3,5	;RP0=0, select bank0
 11219  01EB  1303               	bcf	3,6	;RP1=0, select bank0
 11220  01EC  0860               	movf	___fldiv@b+3,w
 11221  01ED  3980               	andlw	128
 11222  01EE  00E1               	movwf	??___fldiv
 11223  01EF  0861               	movf	??___fldiv,w
 11224  01F0  1683               	bsf	3,5	;RP0=1, select bank1
 11225  01F1  1303               	bcf	3,6	;RP1=0, select bank1
 11226  01F2  00A4               	movwf	___fldiv@sign^(0+128)
 11227  01F3                     l4112:	
 11228  01F3  1283               	bcf	3,5	;RP0=0, select bank0
 11229  01F4  1303               	bcf	3,6	;RP1=0, select bank0
 11230  01F5  0860               	movf	___fldiv@b+3,w
 11231  01F6  00E1               	movwf	??___fldiv
 11232  01F7  0761               	addwf	??___fldiv,w
 11233  01F8  00E2               	movwf	??___fldiv+1
 11234  01F9  0862               	movf	??___fldiv+1,w
 11235  01FA  1683               	bsf	3,5	;RP0=1, select bank1
 11236  01FB  1303               	bcf	3,6	;RP1=0, select bank1
 11237  01FC  00AB               	movwf	___fldiv@bexp^(0+128)
 11238  01FD                     l4114:	
 11239  01FD  1283               	bcf	3,5	;RP0=0, select bank0
 11240  01FE  1303               	bcf	3,6	;RP1=0, select bank0
 11241  01FF  1FDF               	btfss	___fldiv@b+2,7
 11242  0200  2A02               	goto	u5861
 11243  0201  2A03               	goto	u5860
 11244  0202                     u5861:	
 11245  0202  2A06               	goto	l4118
 11246  0203                     u5860:	
 11247  0203                     l4116:	
 11248  0203  1683               	bsf	3,5	;RP0=1, select bank1
 11249  0204  1303               	bcf	3,6	;RP1=0, select bank1
 11250  0205  142B               	bsf	___fldiv@bexp^(0+128),0
 11251  0206                     l4118:	
 11252  0206  1683               	bsf	3,5	;RP0=1, select bank1
 11253  0207  1303               	bcf	3,6	;RP1=0, select bank1
 11254  0208  082B               	movf	___fldiv@bexp^(0+128),w
 11255  0209  1903               	btfsc	3,2
 11256  020A  2A0C               	goto	u5871
 11257  020B  2A0D               	goto	u5870
 11258  020C                     u5871:	
 11259  020C  2A20               	goto	l4128
 11260  020D                     u5870:	
 11261  020D                     l4120:	
 11262  020D  0A2B               	incf	___fldiv@bexp^(0+128),w
 11263  020E  1D03               	btfss	3,2
 11264  020F  2A11               	goto	u5881
 11265  0210  2A12               	goto	u5880
 11266  0211                     u5881:	
 11267  0211  2A1C               	goto	l4124
 11268  0212                     u5880:	
 11269  0212                     l4122:	
 11270  0212  3000               	movlw	0
 11271  0213  1283               	bcf	3,5	;RP0=0, select bank0
 11272  0214  1303               	bcf	3,6	;RP1=0, select bank0
 11273  0215  00E0               	movwf	___fldiv@b+3
 11274  0216  3000               	movlw	0
 11275  0217  00DF               	movwf	___fldiv@b+2
 11276  0218  3000               	movlw	0
 11277  0219  00DE               	movwf	___fldiv@b+1
 11278  021A  3000               	movlw	0
 11279  021B  00DD               	movwf	___fldiv@b
 11280  021C                     l4124:	
 11281  021C  1283               	bcf	3,5	;RP0=0, select bank0
 11282  021D  17DF               	bsf	___fldiv@b+2,7
 11283  021E                     l4126:	
 11284  021E  01E0               	clrf	___fldiv@b+3
 11285  021F  2A2A               	goto	l4130
 11286  0220                     l4128:	
 11287  0220  3000               	movlw	0
 11288  0221  1283               	bcf	3,5	;RP0=0, select bank0
 11289  0222  1303               	bcf	3,6	;RP1=0, select bank0
 11290  0223  00E0               	movwf	___fldiv@b+3
 11291  0224  3000               	movlw	0
 11292  0225  00DF               	movwf	___fldiv@b+2
 11293  0226  3000               	movlw	0
 11294  0227  00DE               	movwf	___fldiv@b+1
 11295  0228  3000               	movlw	0
 11296  0229  00DD               	movwf	___fldiv@b
 11297  022A                     l4130:	
 11298  022A  085C               	movf	___fldiv@a+3,w
 11299  022B  3980               	andlw	128
 11300  022C  00E1               	movwf	??___fldiv
 11301  022D  0861               	movf	??___fldiv,w
 11302  022E  1683               	bsf	3,5	;RP0=1, select bank1
 11303  022F  1303               	bcf	3,6	;RP1=0, select bank1
 11304  0230  06A4               	xorwf	___fldiv@sign^(0+128),f
 11305  0231                     l4132:	
 11306  0231  1283               	bcf	3,5	;RP0=0, select bank0
 11307  0232  1303               	bcf	3,6	;RP1=0, select bank0
 11308  0233  085C               	movf	___fldiv@a+3,w
 11309  0234  00E1               	movwf	??___fldiv
 11310  0235  0761               	addwf	??___fldiv,w
 11311  0236  00E2               	movwf	??___fldiv+1
 11312  0237  0862               	movf	??___fldiv+1,w
 11313  0238  1683               	bsf	3,5	;RP0=1, select bank1
 11314  0239  1303               	bcf	3,6	;RP1=0, select bank1
 11315  023A  00AC               	movwf	___fldiv@aexp^(0+128)
 11316  023B                     l4134:	
 11317  023B  1283               	bcf	3,5	;RP0=0, select bank0
 11318  023C  1303               	bcf	3,6	;RP1=0, select bank0
 11319  023D  1FDB               	btfss	___fldiv@a+2,7
 11320  023E  2A40               	goto	u5891
 11321  023F  2A41               	goto	u5890
 11322  0240                     u5891:	
 11323  0240  2A44               	goto	l4138
 11324  0241                     u5890:	
 11325  0241                     l4136:	
 11326  0241  1683               	bsf	3,5	;RP0=1, select bank1
 11327  0242  1303               	bcf	3,6	;RP1=0, select bank1
 11328  0243  142C               	bsf	___fldiv@aexp^(0+128),0
 11329  0244                     l4138:	
 11330  0244  1683               	bsf	3,5	;RP0=1, select bank1
 11331  0245  1303               	bcf	3,6	;RP1=0, select bank1
 11332  0246  082C               	movf	___fldiv@aexp^(0+128),w
 11333  0247  1903               	btfsc	3,2
 11334  0248  2A4A               	goto	u5901
 11335  0249  2A4B               	goto	u5900
 11336  024A                     u5901:	
 11337  024A  2A5E               	goto	l4148
 11338  024B                     u5900:	
 11339  024B                     l4140:	
 11340  024B  0A2C               	incf	___fldiv@aexp^(0+128),w
 11341  024C  1D03               	btfss	3,2
 11342  024D  2A4F               	goto	u5911
 11343  024E  2A50               	goto	u5910
 11344  024F                     u5911:	
 11345  024F  2A5A               	goto	l4144
 11346  0250                     u5910:	
 11347  0250                     l4142:	
 11348  0250  3000               	movlw	0
 11349  0251  1283               	bcf	3,5	;RP0=0, select bank0
 11350  0252  1303               	bcf	3,6	;RP1=0, select bank0
 11351  0253  00DC               	movwf	___fldiv@a+3
 11352  0254  3000               	movlw	0
 11353  0255  00DB               	movwf	___fldiv@a+2
 11354  0256  3000               	movlw	0
 11355  0257  00DA               	movwf	___fldiv@a+1
 11356  0258  3000               	movlw	0
 11357  0259  00D9               	movwf	___fldiv@a
 11358  025A                     l4144:	
 11359  025A  1283               	bcf	3,5	;RP0=0, select bank0
 11360  025B  17DB               	bsf	___fldiv@a+2,7
 11361  025C                     l4146:	
 11362  025C  01DC               	clrf	___fldiv@a+3
 11363  025D  2A68               	goto	l644
 11364  025E                     l4148:	
 11365  025E  3000               	movlw	0
 11366  025F  1283               	bcf	3,5	;RP0=0, select bank0
 11367  0260  1303               	bcf	3,6	;RP1=0, select bank0
 11368  0261  00DC               	movwf	___fldiv@a+3
 11369  0262  3000               	movlw	0
 11370  0263  00DB               	movwf	___fldiv@a+2
 11371  0264  3000               	movlw	0
 11372  0265  00DA               	movwf	___fldiv@a+1
 11373  0266  3000               	movlw	0
 11374  0267  00D9               	movwf	___fldiv@a
 11375  0268                     l644:	
 11376  0268  085C               	movf	___fldiv@a+3,w
 11377  0269  045B               	iorwf	___fldiv@a+2,w
 11378  026A  045A               	iorwf	___fldiv@a+1,w
 11379  026B  0459               	iorwf	___fldiv@a,w
 11380  026C  1D03               	skipz
 11381  026D  2A6F               	goto	u5921
 11382  026E  2A70               	goto	u5920
 11383  026F                     u5921:	
 11384  026F  2A8D               	goto	l4158
 11385  0270                     u5920:	
 11386  0270                     l4150:	
 11387  0270  3000               	movlw	0
 11388  0271  00E0               	movwf	___fldiv@b+3
 11389  0272  3000               	movlw	0
 11390  0273  00DF               	movwf	___fldiv@b+2
 11391  0274  3000               	movlw	0
 11392  0275  00DE               	movwf	___fldiv@b+1
 11393  0276  3000               	movlw	0
 11394  0277  00DD               	movwf	___fldiv@b
 11395  0278  3080               	movlw	128
 11396  0279  04DF               	iorwf	___fldiv@b+2,f
 11397  027A  307F               	movlw	127
 11398  027B  04E0               	iorwf	___fldiv@b+3,f
 11399  027C                     l4152:	
 11400  027C  1683               	bsf	3,5	;RP0=1, select bank1
 11401  027D  1303               	bcf	3,6	;RP1=0, select bank1
 11402  027E  0824               	movf	___fldiv@sign^(0+128),w
 11403  027F  1283               	bcf	3,5	;RP0=0, select bank0
 11404  0280  1303               	bcf	3,6	;RP1=0, select bank0
 11405  0281  00E1               	movwf	??___fldiv
 11406  0282  0861               	movf	??___fldiv,w
 11407  0283  04E0               	iorwf	___fldiv@b+3,f
 11408  0284                     l4154:	
 11409  0284  0860               	movf	___fldiv@b+3,w
 11410  0285  00DC               	movwf	?___fldiv+3
 11411  0286  085F               	movf	___fldiv@b+2,w
 11412  0287  00DB               	movwf	?___fldiv+2
 11413  0288  085E               	movf	___fldiv@b+1,w
 11414  0289  00DA               	movwf	?___fldiv+1
 11415  028A  085D               	movf	___fldiv@b,w
 11416  028B  00D9               	movwf	?___fldiv
 11417  028C  2C89               	goto	l646
 11418  028D                     l4158:	
 11419  028D  1683               	bsf	3,5	;RP0=1, select bank1
 11420  028E  1303               	bcf	3,6	;RP1=0, select bank1
 11421  028F  082B               	movf	___fldiv@bexp^(0+128),w
 11422  0290  1D03               	btfss	3,2
 11423  0291  2A93               	goto	u5931
 11424  0292  2A94               	goto	u5930
 11425  0293                     u5931:	
 11426  0293  2A9F               	goto	l4164
 11427  0294                     u5930:	
 11428  0294                     l4160:	
 11429  0294  3000               	movlw	0
 11430  0295  1283               	bcf	3,5	;RP0=0, select bank0
 11431  0296  1303               	bcf	3,6	;RP1=0, select bank0
 11432  0297  00DC               	movwf	?___fldiv+3
 11433  0298  3000               	movlw	0
 11434  0299  00DB               	movwf	?___fldiv+2
 11435  029A  3000               	movlw	0
 11436  029B  00DA               	movwf	?___fldiv+1
 11437  029C  3000               	movlw	0
 11438  029D  00D9               	movwf	?___fldiv
 11439  029E  2C89               	goto	l646
 11440  029F                     l4164:	
 11441  029F  082B               	movf	___fldiv@bexp^(0+128),w
 11442  02A0  1283               	bcf	3,5	;RP0=0, select bank0
 11443  02A1  1303               	bcf	3,6	;RP1=0, select bank0
 11444  02A2  00E1               	movwf	??___fldiv
 11445  02A3  01E2               	clrf	??___fldiv+1
 11446  02A4  0862               	movf	??___fldiv+1,w
 11447  02A5  00E4               	movwf	??___fldiv+3
 11448  02A6  1683               	bsf	3,5	;RP0=1, select bank1
 11449  02A7  1303               	bcf	3,6	;RP1=0, select bank1
 11450  02A8  082C               	movf	___fldiv@aexp^(0+128),w
 11451  02A9  1283               	bcf	3,5	;RP0=0, select bank0
 11452  02AA  1303               	bcf	3,6	;RP1=0, select bank0
 11453  02AB  0261               	subwf	??___fldiv,w
 11454  02AC  00E3               	movwf	??___fldiv+2
 11455  02AD  1C03               	skipc
 11456  02AE  03E4               	decf	??___fldiv+3,f
 11457  02AF  0863               	movf	??___fldiv+2,w
 11458  02B0  3E7F               	addlw	127
 11459  02B1  1683               	bsf	3,5	;RP0=1, select bank1
 11460  02B2  1303               	bcf	3,6	;RP1=0, select bank1
 11461  02B3  00A5               	movwf	___fldiv@new_exp^(0+128)
 11462  02B4  1283               	bcf	3,5	;RP0=0, select bank0
 11463  02B5  1303               	bcf	3,6	;RP1=0, select bank0
 11464  02B6  0864               	movf	??___fldiv+3,w
 11465  02B7  1803               	skipnc
 11466  02B8  3E01               	addlw	1
 11467  02B9  3E00               	addlw	0
 11468  02BA  1683               	bsf	3,5	;RP0=1, select bank1
 11469  02BB  1303               	bcf	3,6	;RP1=0, select bank1
 11470  02BC  00A6               	movwf	(___fldiv@new_exp+1)^(0+128)
 11471  02BD                     l4166:	
 11472  02BD  1283               	bcf	3,5	;RP0=0, select bank0
 11473  02BE  1303               	bcf	3,6	;RP1=0, select bank0
 11474  02BF  0860               	movf	___fldiv@b+3,w
 11475  02C0  1683               	bsf	3,5	;RP0=1, select bank1
 11476  02C1  1303               	bcf	3,6	;RP1=0, select bank1
 11477  02C2  00A3               	movwf	(___fldiv@rem+3)^(0+128)
 11478  02C3  1283               	bcf	3,5	;RP0=0, select bank0
 11479  02C4  1303               	bcf	3,6	;RP1=0, select bank0
 11480  02C5  085F               	movf	___fldiv@b+2,w
 11481  02C6  1683               	bsf	3,5	;RP0=1, select bank1
 11482  02C7  1303               	bcf	3,6	;RP1=0, select bank1
 11483  02C8  00A2               	movwf	(___fldiv@rem+2)^(0+128)
 11484  02C9  1283               	bcf	3,5	;RP0=0, select bank0
 11485  02CA  1303               	bcf	3,6	;RP1=0, select bank0
 11486  02CB  085E               	movf	___fldiv@b+1,w
 11487  02CC  1683               	bsf	3,5	;RP0=1, select bank1
 11488  02CD  1303               	bcf	3,6	;RP1=0, select bank1
 11489  02CE  00A1               	movwf	(___fldiv@rem+1)^(0+128)
 11490  02CF  1283               	bcf	3,5	;RP0=0, select bank0
 11491  02D0  1303               	bcf	3,6	;RP1=0, select bank0
 11492  02D1  085D               	movf	___fldiv@b,w
 11493  02D2  1683               	bsf	3,5	;RP0=1, select bank1
 11494  02D3  1303               	bcf	3,6	;RP1=0, select bank1
 11495  02D4  00A0               	movwf	___fldiv@rem^(0+128)
 11496  02D5                     l4168:	
 11497  02D5  3000               	movlw	0
 11498  02D6  1283               	bcf	3,5	;RP0=0, select bank0
 11499  02D7  1303               	bcf	3,6	;RP1=0, select bank0
 11500  02D8  00E0               	movwf	___fldiv@b+3
 11501  02D9  3000               	movlw	0
 11502  02DA  00DF               	movwf	___fldiv@b+2
 11503  02DB  3000               	movlw	0
 11504  02DC  00DE               	movwf	___fldiv@b+1
 11505  02DD  3000               	movlw	0
 11506  02DE  00DD               	movwf	___fldiv@b
 11507  02DF                     l4170:	
 11508  02DF  3000               	movlw	0
 11509  02E0  1683               	bsf	3,5	;RP0=1, select bank1
 11510  02E1  1303               	bcf	3,6	;RP1=0, select bank1
 11511  02E2  00AA               	movwf	(___fldiv@grs+3)^(0+128)
 11512  02E3  3000               	movlw	0
 11513  02E4  00A9               	movwf	(___fldiv@grs+2)^(0+128)
 11514  02E5  3000               	movlw	0
 11515  02E6  00A8               	movwf	(___fldiv@grs+1)^(0+128)
 11516  02E7  3000               	movlw	0
 11517  02E8  00A7               	movwf	___fldiv@grs^(0+128)
 11518  02E9                     l4172:	
 11519  02E9  01AC               	clrf	___fldiv@aexp^(0+128)
 11520  02EA  2B71               	goto	l4192
 11521  02EB                     l4174:	
 11522  02EB  082C               	movf	___fldiv@aexp^(0+128),w
 11523  02EC  1903               	btfsc	3,2
 11524  02ED  2AEF               	goto	u5941
 11525  02EE  2AF0               	goto	u5940
 11526  02EF                     u5941:	
 11527  02EF  2B1F               	goto	l4184
 11528  02F0                     u5940:	
 11529  02F0                     l4176:	
 11530  02F0  3001               	movlw	1
 11531  02F1  1283               	bcf	3,5	;RP0=0, select bank0
 11532  02F2  1303               	bcf	3,6	;RP1=0, select bank0
 11533  02F3  00E1               	movwf	??___fldiv
 11534  02F4                     u5955:	
 11535  02F4  1003               	clrc
 11536  02F5  1683               	bsf	3,5	;RP0=1, select bank1
 11537  02F6  1303               	bcf	3,6	;RP1=0, select bank1
 11538  02F7  0DA0               	rlf	___fldiv@rem^(0+128),f
 11539  02F8  0DA1               	rlf	(___fldiv@rem+1)^(0+128),f
 11540  02F9  0DA2               	rlf	(___fldiv@rem+2)^(0+128),f
 11541  02FA  0DA3               	rlf	(___fldiv@rem+3)^(0+128),f
 11542  02FB  1283               	bcf	3,5	;RP0=0, select bank0
 11543  02FC  1303               	bcf	3,6	;RP1=0, select bank0
 11544  02FD  0BE1               	decfsz	??___fldiv,f
 11545  02FE  2AF4               	goto	u5955
 11546  02FF  3001               	movlw	1
 11547  0300  00E1               	movwf	??___fldiv
 11548  0301                     u5965:	
 11549  0301  1003               	clrc
 11550  0302  0DDD               	rlf	___fldiv@b,f
 11551  0303  0DDE               	rlf	___fldiv@b+1,f
 11552  0304  0DDF               	rlf	___fldiv@b+2,f
 11553  0305  0DE0               	rlf	___fldiv@b+3,f
 11554  0306  0BE1               	decfsz	??___fldiv,f
 11555  0307  2B01               	goto	u5965
 11556  0308                     l4178:	
 11557  0308  1683               	bsf	3,5	;RP0=1, select bank1
 11558  0309  1303               	bcf	3,6	;RP1=0, select bank1
 11559  030A  1FAA               	btfss	(___fldiv@grs+3)^(0+128),7
 11560  030B  2B0D               	goto	u5971
 11561  030C  2B0E               	goto	u5970
 11562  030D                     u5971:	
 11563  030D  2B11               	goto	l4182
 11564  030E                     u5970:	
 11565  030E                     l4180:	
 11566  030E  1283               	bcf	3,5	;RP0=0, select bank0
 11567  030F  1303               	bcf	3,6	;RP1=0, select bank0
 11568  0310  145D               	bsf	___fldiv@b,0
 11569  0311                     l4182:	
 11570  0311  3001               	movlw	1
 11571  0312  1283               	bcf	3,5	;RP0=0, select bank0
 11572  0313  00E1               	movwf	??___fldiv
 11573  0314                     u5985:	
 11574  0314  1003               	clrc
 11575  0315  1683               	bsf	3,5	;RP0=1, select bank1
 11576  0316  1303               	bcf	3,6	;RP1=0, select bank1
 11577  0317  0DA7               	rlf	___fldiv@grs^(0+128),f
 11578  0318  0DA8               	rlf	(___fldiv@grs+1)^(0+128),f
 11579  0319  0DA9               	rlf	(___fldiv@grs+2)^(0+128),f
 11580  031A  0DAA               	rlf	(___fldiv@grs+3)^(0+128),f
 11581  031B  1283               	bcf	3,5	;RP0=0, select bank0
 11582  031C  1303               	bcf	3,6	;RP1=0, select bank0
 11583  031D  0BE1               	decfsz	??___fldiv,f
 11584  031E  2B14               	goto	u5985
 11585  031F                     l4184:	
 11586  031F  1283               	bcf	3,5	;RP0=0, select bank0
 11587  0320  085C               	movf	___fldiv@a+3,w
 11588  0321  1683               	bsf	3,5	;RP0=1, select bank1
 11589  0322  1303               	bcf	3,6	;RP1=0, select bank1
 11590  0323  0223               	subwf	(___fldiv@rem+3)^(0+128),w
 11591  0324  1D03               	skipz
 11592  0325  2B3C               	goto	u5995
 11593  0326  1283               	bcf	3,5	;RP0=0, select bank0
 11594  0327  1303               	bcf	3,6	;RP1=0, select bank0
 11595  0328  085B               	movf	___fldiv@a+2,w
 11596  0329  1683               	bsf	3,5	;RP0=1, select bank1
 11597  032A  1303               	bcf	3,6	;RP1=0, select bank1
 11598  032B  0222               	subwf	(___fldiv@rem+2)^(0+128),w
 11599  032C  1D03               	skipz
 11600  032D  2B3C               	goto	u5995
 11601  032E  1283               	bcf	3,5	;RP0=0, select bank0
 11602  032F  1303               	bcf	3,6	;RP1=0, select bank0
 11603  0330  085A               	movf	___fldiv@a+1,w
 11604  0331  1683               	bsf	3,5	;RP0=1, select bank1
 11605  0332  1303               	bcf	3,6	;RP1=0, select bank1
 11606  0333  0221               	subwf	(___fldiv@rem+1)^(0+128),w
 11607  0334  1D03               	skipz
 11608  0335  2B3C               	goto	u5995
 11609  0336  1283               	bcf	3,5	;RP0=0, select bank0
 11610  0337  1303               	bcf	3,6	;RP1=0, select bank0
 11611  0338  0859               	movf	___fldiv@a,w
 11612  0339  1683               	bsf	3,5	;RP0=1, select bank1
 11613  033A  1303               	bcf	3,6	;RP1=0, select bank1
 11614  033B  0220               	subwf	___fldiv@rem^(0+128),w
 11615  033C                     u5995:	
 11616  033C  1C03               	skipc
 11617  033D  2B3F               	goto	u5991
 11618  033E  2B40               	goto	u5990
 11619  033F                     u5991:	
 11620  033F  2B69               	goto	l4190
 11621  0340                     u5990:	
 11622  0340                     l4186:	
 11623  0340  172A               	bsf	(___fldiv@grs^(0+128)+3),6
 11624  0341                     l4188:	
 11625  0341  1283               	bcf	3,5	;RP0=0, select bank0
 11626  0342  1303               	bcf	3,6	;RP1=0, select bank0
 11627  0343  0859               	movf	___fldiv@a,w
 11628  0344  1683               	bsf	3,5	;RP0=1, select bank1
 11629  0345  1303               	bcf	3,6	;RP1=0, select bank1
 11630  0346  02A0               	subwf	___fldiv@rem^(0+128),f
 11631  0347  1283               	bcf	3,5	;RP0=0, select bank0
 11632  0348  1303               	bcf	3,6	;RP1=0, select bank0
 11633  0349  085A               	movf	___fldiv@a+1,w
 11634  034A  1C03               	skipc
 11635  034B  0F5A               	incfsz	___fldiv@a+1,w
 11636  034C  2B4E               	goto	u6005
 11637  034D  2B51               	goto	u6006
 11638  034E                     u6005:	
 11639  034E  1683               	bsf	3,5	;RP0=1, select bank1
 11640  034F  1303               	bcf	3,6	;RP1=0, select bank1
 11641  0350  02A1               	subwf	(___fldiv@rem+1)^(0+128),f
 11642  0351                     u6006:	
 11643  0351  1283               	bcf	3,5	;RP0=0, select bank0
 11644  0352  1303               	bcf	3,6	;RP1=0, select bank0
 11645  0353  085B               	movf	___fldiv@a+2,w
 11646  0354  1C03               	skipc
 11647  0355  0F5B               	incfsz	___fldiv@a+2,w
 11648  0356  2B58               	goto	u6007
 11649  0357  2B5B               	goto	u6008
 11650  0358                     u6007:	
 11651  0358  1683               	bsf	3,5	;RP0=1, select bank1
 11652  0359  1303               	bcf	3,6	;RP1=0, select bank1
 11653  035A  02A2               	subwf	(___fldiv@rem+2)^(0+128),f
 11654  035B                     u6008:	
 11655  035B  1283               	bcf	3,5	;RP0=0, select bank0
 11656  035C  1303               	bcf	3,6	;RP1=0, select bank0
 11657  035D  085C               	movf	___fldiv@a+3,w
 11658  035E  1C03               	skipc
 11659  035F  0F5C               	incfsz	___fldiv@a+3,w
 11660  0360  2B62               	goto	u6009
 11661  0361  2B65               	goto	u6000
 11662  0362                     u6009:	
 11663  0362  1683               	bsf	3,5	;RP0=1, select bank1
 11664  0363  1303               	bcf	3,6	;RP1=0, select bank1
 11665  0364  02A3               	subwf	(___fldiv@rem+3)^(0+128),f
 11666  0365                     u6000:	
 11667  0365  1283               	bcf	3,5	;RP0=0, select bank0
 11668  0366  1303               	bcf	3,6	;RP1=0, select bank0
 11669  0367  1683               	bsf	3,5	;RP0=1, select bank1
 11670  0368  1303               	bcf	3,6	;RP1=0, select bank1
 11671  0369                     l4190:	
 11672  0369  3001               	movlw	1
 11673  036A  1283               	bcf	3,5	;RP0=0, select bank0
 11674  036B  1303               	bcf	3,6	;RP1=0, select bank0
 11675  036C  00E1               	movwf	??___fldiv
 11676  036D  0861               	movf	??___fldiv,w
 11677  036E  1683               	bsf	3,5	;RP0=1, select bank1
 11678  036F  1303               	bcf	3,6	;RP1=0, select bank1
 11679  0370  07AC               	addwf	___fldiv@aexp^(0+128),f
 11680  0371                     l4192:	
 11681  0371  301A               	movlw	26
 11682  0372  022C               	subwf	___fldiv@aexp^(0+128),w
 11683  0373  1C03               	skipc
 11684  0374  2B76               	goto	u6011
 11685  0375  2B77               	goto	u6010
 11686  0376                     u6011:	
 11687  0376  2AEB               	goto	l4174
 11688  0377                     u6010:	
 11689  0377                     l4194:	
 11690  0377  0823               	movf	(___fldiv@rem+3)^(0+128),w
 11691  0378  0422               	iorwf	(___fldiv@rem+2)^(0+128),w
 11692  0379  0421               	iorwf	(___fldiv@rem+1)^(0+128),w
 11693  037A  0420               	iorwf	___fldiv@rem^(0+128),w
 11694  037B  1903               	skipnz
 11695  037C  2B7E               	goto	u6021
 11696  037D  2B7F               	goto	u6020
 11697  037E                     u6021:	
 11698  037E  2BA9               	goto	l4208
 11699  037F                     u6020:	
 11700  037F                     l4196:	
 11701  037F  1427               	bsf	___fldiv@grs^(0+128),0
 11702  0380  2BA9               	goto	l4208
 11703  0381                     l4198:	
 11704  0381  3001               	movlw	1
 11705  0382  00E1               	movwf	??___fldiv
 11706  0383                     u6035:	
 11707  0383  1003               	clrc
 11708  0384  0DDD               	rlf	___fldiv@b,f
 11709  0385  0DDE               	rlf	___fldiv@b+1,f
 11710  0386  0DDF               	rlf	___fldiv@b+2,f
 11711  0387  0DE0               	rlf	___fldiv@b+3,f
 11712  0388  0BE1               	decfsz	??___fldiv,f
 11713  0389  2B83               	goto	u6035
 11714  038A                     l4200:	
 11715  038A  1683               	bsf	3,5	;RP0=1, select bank1
 11716  038B  1303               	bcf	3,6	;RP1=0, select bank1
 11717  038C  1FAA               	btfss	(___fldiv@grs+3)^(0+128),7
 11718  038D  2B8F               	goto	u6041
 11719  038E  2B90               	goto	u6040
 11720  038F                     u6041:	
 11721  038F  2B93               	goto	l4204
 11722  0390                     u6040:	
 11723  0390                     l4202:	
 11724  0390  1283               	bcf	3,5	;RP0=0, select bank0
 11725  0391  1303               	bcf	3,6	;RP1=0, select bank0
 11726  0392  145D               	bsf	___fldiv@b,0
 11727  0393                     l4204:	
 11728  0393  3001               	movlw	1
 11729  0394  1283               	bcf	3,5	;RP0=0, select bank0
 11730  0395  00E1               	movwf	??___fldiv
 11731  0396                     u6055:	
 11732  0396  1003               	clrc
 11733  0397  1683               	bsf	3,5	;RP0=1, select bank1
 11734  0398  1303               	bcf	3,6	;RP1=0, select bank1
 11735  0399  0DA7               	rlf	___fldiv@grs^(0+128),f
 11736  039A  0DA8               	rlf	(___fldiv@grs+1)^(0+128),f
 11737  039B  0DA9               	rlf	(___fldiv@grs+2)^(0+128),f
 11738  039C  0DAA               	rlf	(___fldiv@grs+3)^(0+128),f
 11739  039D  1283               	bcf	3,5	;RP0=0, select bank0
 11740  039E  1303               	bcf	3,6	;RP1=0, select bank0
 11741  039F  0BE1               	decfsz	??___fldiv,f
 11742  03A0  2B96               	goto	u6055
 11743  03A1                     l4206:	
 11744  03A1  30FF               	movlw	255
 11745  03A2  1683               	bsf	3,5	;RP0=1, select bank1
 11746  03A3  1303               	bcf	3,6	;RP1=0, select bank1
 11747  03A4  07A5               	addwf	___fldiv@new_exp^(0+128),f
 11748  03A5  1803               	skipnc
 11749  03A6  0AA6               	incf	(___fldiv@new_exp+1)^(0+128),f
 11750  03A7  30FF               	movlw	255
 11751  03A8  07A6               	addwf	(___fldiv@new_exp+1)^(0+128),f
 11752  03A9                     l4208:	
 11753  03A9  1283               	bcf	3,5	;RP0=0, select bank0
 11754  03AA  1303               	bcf	3,6	;RP1=0, select bank0
 11755  03AB  1FDF               	btfss	___fldiv@b+2,7
 11756  03AC  2BAE               	goto	u6061
 11757  03AD  2BAF               	goto	u6060
 11758  03AE                     u6061:	
 11759  03AE  2B81               	goto	l4198
 11760  03AF                     u6060:	
 11761  03AF                     l4210:	
 11762  03AF  1683               	bsf	3,5	;RP0=1, select bank1
 11763  03B0  1303               	bcf	3,6	;RP1=0, select bank1
 11764  03B1  01AC               	clrf	___fldiv@aexp^(0+128)
 11765  03B2                     l4212:	
 11766  03B2  1FAA               	btfss	(___fldiv@grs+3)^(0+128),7
 11767  03B3  2BB5               	goto	u6071
 11768  03B4  2BB6               	goto	u6070
 11769  03B5                     u6071:	
 11770  03B5  2BE2               	goto	l4220
 11771  03B6                     u6070:	
 11772  03B6                     l4214:	
 11773  03B6  30FF               	movlw	255
 11774  03B7  0527               	andwf	___fldiv@grs^(0+128),w
 11775  03B8  1283               	bcf	3,5	;RP0=0, select bank0
 11776  03B9  1303               	bcf	3,6	;RP1=0, select bank0
 11777  03BA  00E1               	movwf	??___fldiv
 11778  03BB  30FF               	movlw	255
 11779  03BC  1683               	bsf	3,5	;RP0=1, select bank1
 11780  03BD  1303               	bcf	3,6	;RP1=0, select bank1
 11781  03BE  0528               	andwf	(___fldiv@grs+1)^(0+128),w
 11782  03BF  1283               	bcf	3,5	;RP0=0, select bank0
 11783  03C0  1303               	bcf	3,6	;RP1=0, select bank0
 11784  03C1  00E2               	movwf	??___fldiv+1
 11785  03C2  30FF               	movlw	255
 11786  03C3  1683               	bsf	3,5	;RP0=1, select bank1
 11787  03C4  1303               	bcf	3,6	;RP1=0, select bank1
 11788  03C5  0529               	andwf	(___fldiv@grs+2)^(0+128),w
 11789  03C6  1283               	bcf	3,5	;RP0=0, select bank0
 11790  03C7  1303               	bcf	3,6	;RP1=0, select bank0
 11791  03C8  00E3               	movwf	??___fldiv+2
 11792  03C9  307F               	movlw	127
 11793  03CA  1683               	bsf	3,5	;RP0=1, select bank1
 11794  03CB  1303               	bcf	3,6	;RP1=0, select bank1
 11795  03CC  052A               	andwf	(___fldiv@grs+3)^(0+128),w
 11796  03CD  1283               	bcf	3,5	;RP0=0, select bank0
 11797  03CE  1303               	bcf	3,6	;RP1=0, select bank0
 11798  03CF  00E4               	movwf	??___fldiv+3
 11799  03D0  0864               	movf	??___fldiv+3,w
 11800  03D1  0463               	iorwf	??___fldiv+2,w
 11801  03D2  0462               	iorwf	??___fldiv+1,w
 11802  03D3  0461               	iorwf	??___fldiv,w
 11803  03D4  1903               	skipnz
 11804  03D5  2BD7               	goto	u6081
 11805  03D6  2BD8               	goto	u6080
 11806  03D7                     u6081:	
 11807  03D7  2BDD               	goto	l660
 11808  03D8                     u6080:	
 11809  03D8                     l4216:	
 11810  03D8  1683               	bsf	3,5	;RP0=1, select bank1
 11811  03D9  1303               	bcf	3,6	;RP1=0, select bank1
 11812  03DA  01AC               	clrf	___fldiv@aexp^(0+128)
 11813  03DB  0AAC               	incf	___fldiv@aexp^(0+128),f
 11814  03DC  2BE2               	goto	l4220
 11815  03DD                     l660:	
 11816  03DD  1C5D               	btfss	___fldiv@b,0
 11817  03DE  2BE0               	goto	u6091
 11818  03DF  2BE1               	goto	u6090
 11819  03E0                     u6091:	
 11820  03E0  2BE2               	goto	l4220
 11821  03E1                     u6090:	
 11822  03E1  2BD8               	goto	l4216
 11823  03E2                     l4220:	
 11824  03E2  1683               	bsf	3,5	;RP0=1, select bank1
 11825  03E3  1303               	bcf	3,6	;RP1=0, select bank1
 11826  03E4  082C               	movf	___fldiv@aexp^(0+128),w
 11827  03E5  1903               	btfsc	3,2
 11828  03E6  2BE8               	goto	u6101
 11829  03E7  2BE9               	goto	u6100
 11830  03E8                     u6101:	
 11831  03E8  2C1E               	goto	l4230
 11832  03E9                     u6100:	
 11833  03E9                     l4222:	
 11834  03E9  3001               	movlw	1
 11835  03EA  1283               	bcf	3,5	;RP0=0, select bank0
 11836  03EB  1303               	bcf	3,6	;RP1=0, select bank0
 11837  03EC  07DD               	addwf	___fldiv@b,f
 11838  03ED  3000               	movlw	0
 11839  03EE  1803               	skipnc
 11840  03EF  3001               	movlw	1
 11841  03F0  07DE               	addwf	___fldiv@b+1,f
 11842  03F1  3000               	movlw	0
 11843  03F2  1803               	skipnc
 11844  03F3  3001               	movlw	1
 11845  03F4  07DF               	addwf	___fldiv@b+2,f
 11846  03F5  3000               	movlw	0
 11847  03F6  1803               	skipnc
 11848  03F7  3001               	movlw	1
 11849  03F8  07E0               	addwf	___fldiv@b+3,f
 11850  03F9                     l4224:	
 11851  03F9  1C60               	btfss	___fldiv@b+3,0
 11852  03FA  2BFC               	goto	u6111
 11853  03FB  2BFD               	goto	u6110
 11854  03FC                     u6111:	
 11855  03FC  2C1E               	goto	l4230
 11856  03FD                     u6110:	
 11857  03FD                     l4226:	
 11858  03FD  085D               	movf	___fldiv@b,w
 11859  03FE  00E1               	movwf	??___fldiv
 11860  03FF  085E               	movf	___fldiv@b+1,w
 11861  0400  00E2               	movwf	??___fldiv+1
 11862  0401  085F               	movf	___fldiv@b+2,w
 11863  0402  00E3               	movwf	??___fldiv+2
 11864  0403  0860               	movf	___fldiv@b+3,w
 11865  0404  00E4               	movwf	??___fldiv+3
 11866  0405  3001               	movlw	1
 11867  0406  00E5               	movwf	??___fldiv+4
 11868  0407                     u6125:	
 11869  0407  0D64               	rlf	??___fldiv+3,w
 11870  0408  0CE4               	rrf	??___fldiv+3,f
 11871  0409  0CE3               	rrf	??___fldiv+2,f
 11872  040A  0CE2               	rrf	??___fldiv+1,f
 11873  040B  0CE1               	rrf	??___fldiv,f
 11874  040C                     u6120:	
 11875  040C  0BE5               	decfsz	??___fldiv+4,f
 11876  040D  2C07               	goto	u6125
 11877  040E  0864               	movf	??___fldiv+3,w
 11878  040F  00E0               	movwf	___fldiv@b+3
 11879  0410  0863               	movf	??___fldiv+2,w
 11880  0411  00DF               	movwf	___fldiv@b+2
 11881  0412  0862               	movf	??___fldiv+1,w
 11882  0413  00DE               	movwf	___fldiv@b+1
 11883  0414  0861               	movf	??___fldiv,w
 11884  0415  00DD               	movwf	___fldiv@b
 11885  0416                     l4228:	
 11886  0416  3001               	movlw	1
 11887  0417  1683               	bsf	3,5	;RP0=1, select bank1
 11888  0418  1303               	bcf	3,6	;RP1=0, select bank1
 11889  0419  07A5               	addwf	___fldiv@new_exp^(0+128),f
 11890  041A  1803               	skipnc
 11891  041B  0AA6               	incf	(___fldiv@new_exp+1)^(0+128),f
 11892  041C  3000               	movlw	0
 11893  041D  07A6               	addwf	(___fldiv@new_exp+1)^(0+128),f
 11894  041E                     l4230:	
 11895  041E  1683               	bsf	3,5	;RP0=1, select bank1
 11896  041F  1303               	bcf	3,6	;RP1=0, select bank1
 11897  0420  0826               	movf	(___fldiv@new_exp+1)^(0+128),w
 11898  0421  3A80               	xorlw	128
 11899  0422  00FF               	movwf	btemp+1
 11900  0423  3080               	movlw	128
 11901  0424  027F               	subwf	btemp+1,w
 11902  0425  1D03               	skipz
 11903  0426  2C29               	goto	u6135
 11904  0427  30FF               	movlw	255
 11905  0428  0225               	subwf	___fldiv@new_exp^(0+128),w
 11906  0429                     u6135:	
 11907  0429  1C03               	skipc
 11908  042A  2C2C               	goto	u6131
 11909  042B  2C2D               	goto	u6130
 11910  042C                     u6131:	
 11911  042C  2C3D               	goto	l4234
 11912  042D                     u6130:	
 11913  042D                     l4232:	
 11914  042D  30FF               	movlw	255
 11915  042E  1683               	bsf	3,5	;RP0=1, select bank1
 11916  042F  1303               	bcf	3,6	;RP1=0, select bank1
 11917  0430  00A5               	movwf	___fldiv@new_exp^(0+128)
 11918  0431  3000               	movlw	0
 11919  0432  00A6               	movwf	(___fldiv@new_exp^(0+128)+1)
 11920  0433  3000               	movlw	0
 11921  0434  1283               	bcf	3,5	;RP0=0, select bank0
 11922  0435  1303               	bcf	3,6	;RP1=0, select bank0
 11923  0436  00E0               	movwf	___fldiv@b+3
 11924  0437  3000               	movlw	0
 11925  0438  00DF               	movwf	___fldiv@b+2
 11926  0439  3000               	movlw	0
 11927  043A  00DE               	movwf	___fldiv@b+1
 11928  043B  3000               	movlw	0
 11929  043C  00DD               	movwf	___fldiv@b
 11930  043D                     l4234:	
 11931  043D  1683               	bsf	3,5	;RP0=1, select bank1
 11932  043E  1303               	bcf	3,6	;RP1=0, select bank1
 11933  043F  0826               	movf	(___fldiv@new_exp+1)^(0+128),w
 11934  0440  3A80               	xorlw	128
 11935  0441  00FF               	movwf	btemp+1
 11936  0442  3080               	movlw	128
 11937  0443  027F               	subwf	btemp+1,w
 11938  0444  1D03               	skipz
 11939  0445  2C48               	goto	u6145
 11940  0446  3001               	movlw	1
 11941  0447  0225               	subwf	___fldiv@new_exp^(0+128),w
 11942  0448                     u6145:	
 11943  0448  1803               	skipnc
 11944  0449  2C4B               	goto	u6141
 11945  044A  2C4C               	goto	u6140
 11946  044B                     u6141:	
 11947  044B  2C5D               	goto	l666
 11948  044C                     u6140:	
 11949  044C                     l4236:	
 11950  044C  1683               	bsf	3,5	;RP0=1, select bank1
 11951  044D  1303               	bcf	3,6	;RP1=0, select bank1
 11952  044E  01A5               	clrf	___fldiv@new_exp^(0+128)
 11953  044F  01A6               	clrf	(___fldiv@new_exp+1)^(0+128)
 11954  0450                     l4238:	
 11955  0450  3000               	movlw	0
 11956  0451  1283               	bcf	3,5	;RP0=0, select bank0
 11957  0452  1303               	bcf	3,6	;RP1=0, select bank0
 11958  0453  00E0               	movwf	___fldiv@b+3
 11959  0454  3000               	movlw	0
 11960  0455  00DF               	movwf	___fldiv@b+2
 11961  0456  3000               	movlw	0
 11962  0457  00DE               	movwf	___fldiv@b+1
 11963  0458  3000               	movlw	0
 11964  0459  00DD               	movwf	___fldiv@b
 11965  045A                     l4240:	
 11966  045A  1683               	bsf	3,5	;RP0=1, select bank1
 11967  045B  1303               	bcf	3,6	;RP1=0, select bank1
 11968  045C  01A4               	clrf	___fldiv@sign^(0+128)
 11969  045D                     l666:	
 11970  045D  1683               	bsf	3,5	;RP0=1, select bank1
 11971  045E  1303               	bcf	3,6	;RP1=0, select bank1
 11972  045F  0825               	movf	___fldiv@new_exp^(0+128),w
 11973  0460  1283               	bcf	3,5	;RP0=0, select bank0
 11974  0461  1303               	bcf	3,6	;RP1=0, select bank0
 11975  0462  00E1               	movwf	??___fldiv
 11976  0463  0861               	movf	??___fldiv,w
 11977  0464  1683               	bsf	3,5	;RP0=1, select bank1
 11978  0465  1303               	bcf	3,6	;RP1=0, select bank1
 11979  0466  00AB               	movwf	___fldiv@bexp^(0+128)
 11980  0467                     l4242:	
 11981  0467  1C2B               	btfss	___fldiv@bexp^(0+128),0
 11982  0468  2C6A               	goto	u6151
 11983  0469  2C6B               	goto	u6150
 11984  046A                     u6151:	
 11985  046A  2C6F               	goto	l4246
 11986  046B                     u6150:	
 11987  046B                     l4244:	
 11988  046B  1283               	bcf	3,5	;RP0=0, select bank0
 11989  046C  1303               	bcf	3,6	;RP1=0, select bank0
 11990  046D  17DF               	bsf	___fldiv@b+2,7
 11991  046E  2C75               	goto	l668
 11992  046F                     l4246:	
 11993  046F  307F               	movlw	127
 11994  0470  1283               	bcf	3,5	;RP0=0, select bank0
 11995  0471  1303               	bcf	3,6	;RP1=0, select bank0
 11996  0472  00E1               	movwf	??___fldiv
 11997  0473  0861               	movf	??___fldiv,w
 11998  0474  05DF               	andwf	___fldiv@b+2,f
 11999  0475                     l668:	
 12000  0475  1683               	bsf	3,5	;RP0=1, select bank1
 12001  0476  1303               	bcf	3,6	;RP1=0, select bank1
 12002  0477  082B               	movf	___fldiv@bexp^(0+128),w
 12003  0478  1283               	bcf	3,5	;RP0=0, select bank0
 12004  0479  1303               	bcf	3,6	;RP1=0, select bank0
 12005  047A  00E1               	movwf	??___fldiv
 12006  047B  1003               	clrc
 12007  047C  0C61               	rrf	??___fldiv,w
 12008  047D  00E2               	movwf	??___fldiv+1
 12009  047E  0862               	movf	??___fldiv+1,w
 12010  047F  00E0               	movwf	___fldiv@b+3
 12011  0480  1683               	bsf	3,5	;RP0=1, select bank1
 12012  0481  1303               	bcf	3,6	;RP1=0, select bank1
 12013  0482  0824               	movf	___fldiv@sign^(0+128),w
 12014  0483  1283               	bcf	3,5	;RP0=0, select bank0
 12015  0484  1303               	bcf	3,6	;RP1=0, select bank0
 12016  0485  00E1               	movwf	??___fldiv
 12017  0486  0861               	movf	??___fldiv,w
 12018  0487  04E0               	iorwf	___fldiv@b+3,f
 12019  0488  2A84               	goto	l4154
 12020  0489                     l646:	
 12021  0489  0008               	return
 12022  048A                     __end_of___fldiv:	
 12023  007E                     btemp	set	126	;btemp
 12024  007E                     wtemp0	set	126


Data Sizes:
    Strings     11
    Constant    76
    Data        0
    BSS         36
    Persistent  0
    Stack       0

Auto Spaces:
    Space          Size  Autos    Used
    COMMON           14     14      14
    BANK0            80     80      80
    BANK1            80     72      78
    BANK3            96     16      46
    BANK2            96      0       0

Pointer List with Targets:

    eval_poly@d	PTR const  size(1) Largest target is 40
		 -> log@coeff(CODE[36]), exp@coeff(CODE[40]), 

    frexp@eptr	PTR int  size(1) Largest target is 2
		 -> log@exponent(BANK0[2]), floor@expon(BANK1[2]), 

    utoa@buf	PTR unsigned char  size(1) Largest target is 20
		 -> guardar2(BANK3[10]), guardar(BANK3[10]), 

    sp__utoa	PTR unsigned char  size(1) Largest target is 20
		 -> guardar2(BANK3[10]), guardar(BANK3[10]), 

    itoa@buf	PTR unsigned char  size(1) Largest target is 20
		 -> guardar2(BANK3[10]), guardar(BANK3[10]), 

    itoa@cp	PTR unsigned char  size(1) Largest target is 20
		 -> guardar2(BANK3[10]), guardar(BANK3[10]), 

    ftoa2@Q	PTR unsigned char  size(1) Largest target is 20
		 -> guardar2(BANK3[10]), guardar(BANK3[10]), 

    Dtr@zpr	PTR unsigned char  size(1) Largest target is 20
		 -> guardar2(BANK3[10]), guardar(BANK3[10]), 

    reverse@zpr	PTR unsigned char  size(1) Largest target is 20
		 -> guardar2(BANK3[10]), guardar(BANK3[10]), 

    guardar2	PTR unsigned char [10] size(1) Largest target is 0

    sp__itoa	PTR unsigned char  size(1) Largest target is 20
		 -> guardar2(BANK3[10]), guardar(BANK3[10]), 

    guardar	PTR unsigned char [10] size(1) Largest target is 0

    word@a	PTR unsigned char  size(2) Largest target is 20
		 -> STR_5(CODE[2]), STR_4(CODE[2]), STR_3(CODE[3]), STR_2(CODE[3]), 
		 -> STR_1(CODE[3]), guardar2(BANK3[10]), guardar(BANK3[10]), 


Critical Paths under _main in COMMON

    _setup->_spiInit
    _lee4->_itoa
    _lee2->_itoa
    _lcd_init->_com
    _lcd_clear->_com
    _cur->_com
    _com->_port
    _ftoa2->_Dtr
    _pow->_log
    _log->_frexp
    _exp->_floor
    _exp->_log
    _floor->_frexp
    ___fladd->_frexp
    _Dtr->_reverse
    _ADCread3->_itoa
    _word->_letra
    _letra->_port
    _itoa->_utoa
    _utoa->___lwdiv
    ___xxtofl->___fltol
    ___flmul->_frexp

Critical Paths under _main in BANK0

    _lee4->___fldiv
    _lee2->___fldiv
    _pow->_exp
    _log->___fladd
    _exp->_ldexp
    _exp->_log
    _floor->___fladd
    _frexp->___fleq
    ___fleq->___xxtofl
    _eval_poly->___fladd
    ___flsub->___fladd
    ___fladd->___flmul
    _ADCread3->___fldiv
    _itoa->_utoa
    ___flmul->_frexp
    ___fldiv->___flmul

Critical Paths under _main in BANK1

    _main->_Recieve
    _main->_lee1
    _main->_lee3
    _lee4->___fldiv
    _lee3->_ftoa2
    _lee2->___fldiv
    _lee1->_ftoa2
    _Recieve->_ADCread4
    _ADCread4->_ftoa2
    _ftoa2->_pow
    _pow->_exp
    _log->_eval_poly
    _exp->_ldexp
    _ldexp->_eval_poly
    _ADCread3->___fldiv

Critical Paths under _main in BANK3

    _lee3->_ftoa2
    _lee1->_ftoa2
    _ADCread4->_ftoa2

Critical Paths under _main in BANK2

    None.

Call Graph Tables:

 ---------------------------------------------------------------------------------
 (Depth) Function   	        Calls       Base Space   Used Autos Params    Refs
 ---------------------------------------------------------------------------------
 (0) _main                                                 3     3      0  383146
                                             69 BANK1      3     3      0
                            _Recieve
                                _cur
                          _lcd_clear
                           _lcd_init
                               _lee1
                               _lee2
                               _lee3
                               _lee4
                              _setup
                            _spiRead
                           _spiWrite
                               _word
 ---------------------------------------------------------------------------------
 (1) _spiWrite                                             1     1      0      22
                                              0 COMMON     1     1      0
 ---------------------------------------------------------------------------------
 (1) _spiRead                                              0     0      0       0
                     _spiReceiveWait
 ---------------------------------------------------------------------------------
 (2) _spiReceiveWait                                       0     0      0       0
 ---------------------------------------------------------------------------------
 (1) _setup                                                0     0      0     360
                            _spiInit
 ---------------------------------------------------------------------------------
 (2) _spiInit                                              4     1      3     360
                                              0 COMMON     4     1      3
 ---------------------------------------------------------------------------------
 (1) _lee4                                                 5     5      0   14224
                                             70 BANK0      5     5      0
                            ___fldiv
                            ___flmul
                            ___fltol
                           ___xxtofl
                               _itoa
                               _word
 ---------------------------------------------------------------------------------
 (1) _lee3                                                 5     5      0  112120
                                             64 BANK1      5     5      0
                            ___fldiv
                            ___flmul
                           ___xxtofl
                              _ftoa2
                               _word
 ---------------------------------------------------------------------------------
 (1) _lee2                                                 5     5      0   14224
                                             70 BANK0      5     5      0
                            ___fldiv
                            ___flmul
                            ___fltol
                           ___xxtofl
                               _itoa
                               _word
 ---------------------------------------------------------------------------------
 (1) _lee1                                                 5     5      0  112120
                                             64 BANK1      5     5      0
                            ___fldiv
                            ___flmul
                           ___xxtofl
                              _ftoa2
                               _word
 ---------------------------------------------------------------------------------
 (1) _lcd_init                                             2     2      0      62
                                              3 COMMON     2     2      0
                                _com
 ---------------------------------------------------------------------------------
 (1) _lcd_clear                                            0     0      0      62
                                _com
 ---------------------------------------------------------------------------------
 (1) _Recieve                                              1     1      0  127526
                                             68 BANK1      1     1      0
                           _ADCread3
                           _ADCread4
                                _cur
 ---------------------------------------------------------------------------------
 (1) _cur                                                  5     4      1    1244
                                              3 COMMON     5     4      1
                                _com
 ---------------------------------------------------------------------------------
 (2) _com                                                  2     2      0      62
                                              1 COMMON     2     2      0
                               _port
 ---------------------------------------------------------------------------------
 (2) _ADCread4                                             4     4      0  112089
                                             64 BANK1      4     4      0
                            ___fldiv
                            ___flmul
                           ___xxtofl
                              _ftoa2
                               _word
 ---------------------------------------------------------------------------------
 (2) _ftoa2                                               25    18      7  100935
                                             55 BANK1      9     2      7
                                              0 BANK3     16    16      0
                                _Dtr
                            ___flmul
                            ___flsub
                            ___fltol
                           ___xxtofl
                                _pow
 ---------------------------------------------------------------------------------
 (3) _pow                                                 22    14      8   84552
                                             33 BANK1     22    14      8
                             ___fleq
                             ___flge
                            ___flmul
                            ___flneg
                            ___fltol
                           ___xxtofl
                                _exp
                                _log
 ---------------------------------------------------------------------------------
 (4) _log                                                  7     3      4   27098
                                             13 COMMON     1     1      0
                                             77 BANK0      2     2      0
                                             16 BANK1      4     0      4
                            ___fladd
                             ___fleq
                             ___flge
                            ___flmul
                           ___xxtofl
                          _eval_poly
                              _frexp
 ---------------------------------------------------------------------------------
 (4) _exp                                                 12     8      4   44880
                                             79 BANK0      1     1      0
                                             22 BANK1     11     7      4
                            ___fldiv
                             ___fleq
                             ___flge
                            ___flmul
                            ___flneg
                            ___flsub
                            ___fltol
                           ___xxtofl
                          _eval_poly
                              _floor
                              _ldexp
                                _log (ARG)
 ---------------------------------------------------------------------------------
 (5) _ldexp                                                8     2      6    3995
                                             77 BANK0      2     2      0
                                             16 BANK1      6     0      6
                             ___fleq
                             ___flge
                          _eval_poly (ARG)
 ---------------------------------------------------------------------------------
 (5) _floor                                               11     7      4   11051
                                             13 COMMON     1     1      0
                                              0 BANK1     10     6      4
                            ___fladd
                             ___flge
                            ___fltol
                           ___xxtofl
                              _frexp
 ---------------------------------------------------------------------------------
 (5) _frexp                                                7     2      5    2252
                                             11 COMMON     2     2      0
                                             26 BANK0      5     0      5
                             ___fleq
 ---------------------------------------------------------------------------------
 (6) ___fleq                                              12     4      8    1570
                                             14 BANK0     12     4      8
                           ___xxtofl (ARG)
 ---------------------------------------------------------------------------------
 (5) ___flge                                              12     4      8    1886
                                              0 COMMON    12     4      8
 ---------------------------------------------------------------------------------
 (5) _eval_poly                                           16     9      7   10109
                                              0 BANK1     16     9      7
                            ___fladd
                            ___flmul
 ---------------------------------------------------------------------------------
 (5) ___flsub                                              8     0      8    4267
                                              0 BANK1      8     0      8
                            ___fladd
                           ___xxtofl (ARG)
 ---------------------------------------------------------------------------------
 (6) ___fladd                                             20    12      8    3842
                                             57 BANK0     20    12      8
                            ___flmul (ARG)
                           ___xxtofl (ARG)
                              _frexp (ARG)
 ---------------------------------------------------------------------------------
 (5) ___flneg                                              4     0      4     335
                                              0 COMMON     4     0      4
 ---------------------------------------------------------------------------------
 (3) _Dtr                                                  9     4      5    2737
                                             12 COMMON     2     2      0
                                              0 BANK0      7     2      5
                            ___awdiv
                            ___awmod
                            ___fltol (ARG)
                            _reverse
 ---------------------------------------------------------------------------------
 (4) _reverse                                             12    10      2     513
                                              0 COMMON    12    10      2
 ---------------------------------------------------------------------------------
 (4) ___awmod                                              7     3      4     613
                                              0 COMMON     7     3      4
 ---------------------------------------------------------------------------------
 (4) ___awdiv                                              9     5      4     625
                                              0 COMMON     9     5      4
 ---------------------------------------------------------------------------------
 (2) _ADCread3                                             4     4      0   14193
                                             70 BANK0      4     4      0
                            ___fldiv
                            ___flmul
                            ___fltol
                           ___xxtofl
                               _itoa
                               _word
 ---------------------------------------------------------------------------------
 (1) _word                                                 7     5      2    1182
                                              3 COMMON     7     5      2
                              _letra
 ---------------------------------------------------------------------------------
 (2) _letra                                                2     2      0      62
                                              1 COMMON     2     2      0
                               _port
 ---------------------------------------------------------------------------------
 (3) _port                                                 1     1      0      31
                                              0 COMMON     1     1      0
 ---------------------------------------------------------------------------------
 (2) _itoa                                                 7     3      4    1982
                                             13 COMMON     1     1      0
                                              4 BANK0      6     2      4
                            ___fltol (ARG)
                               _utoa
 ---------------------------------------------------------------------------------
 (3) _utoa                                                 9     5      4    1264
                                              8 COMMON     5     1      4
                                              0 BANK0      4     4      0
                            ___lwdiv
                            ___lwmod
 ---------------------------------------------------------------------------------
 (4) ___lwmod                                              6     2      4     311
                                              0 COMMON     6     2      4
 ---------------------------------------------------------------------------------
 (4) ___lwdiv                                              8     4      4     466
                                              0 COMMON     8     4      4
 ---------------------------------------------------------------------------------
 (2) ___xxtofl                                            14    10      4    1556
                                              0 BANK0     14    10      4
                            ___fltol (ARG)
 ---------------------------------------------------------------------------------
 (2) ___fltol                                             11     7      4    1057
                                              0 COMMON    11     7      4
 ---------------------------------------------------------------------------------
 (2) ___flmul                                             26    18      8    5473
                                             31 BANK0     26    18      8
                          __Umul8_16
                           ___xxtofl (ARG)
                              _frexp (ARG)
 ---------------------------------------------------------------------------------
 (3) __Umul8_16                                            9     7      2     980
                                              0 COMMON     9     7      2
 ---------------------------------------------------------------------------------
 (2) ___fldiv                                             26    18      8    2943
                                             57 BANK0     13     5      8
                                              0 BANK1     13    13      0
                            ___flmul (ARG)
                           ___xxtofl (ARG)
 ---------------------------------------------------------------------------------
 Estimated maximum stack depth 6
 ---------------------------------------------------------------------------------

 Call Graph Graphs:

 _main (ROOT)
   _Recieve
     _ADCread3
       ___fldiv
         ___flmul (ARG)
           __Umul8_16
           ___xxtofl (ARG)
             ___fltol (ARG)
           _frexp (ARG)
             ___fleq
               ___xxtofl (ARG)
                 ___fltol (ARG)
         ___xxtofl (ARG)
           ___fltol (ARG)
       ___flmul
         __Umul8_16
         ___xxtofl (ARG)
           ___fltol (ARG)
         _frexp (ARG)
           ___fleq
             ___xxtofl (ARG)
               ___fltol (ARG)
       ___fltol
       ___xxtofl
         ___fltol (ARG)
       _itoa
         ___fltol (ARG)
         _utoa (ARG)
           ___lwdiv
           ___lwmod
       _word
         _letra
           _port
     _ADCread4
       ___fldiv
         ___flmul (ARG)
           __Umul8_16
           ___xxtofl (ARG)
             ___fltol (ARG)
           _frexp (ARG)
             ___fleq
               ___xxtofl (ARG)
                 ___fltol (ARG)
         ___xxtofl (ARG)
           ___fltol (ARG)
       ___flmul
         __Umul8_16
         ___xxtofl (ARG)
           ___fltol (ARG)
         _frexp (ARG)
           ___fleq
             ___xxtofl (ARG)
               ___fltol (ARG)
       ___xxtofl
         ___fltol (ARG)
       _ftoa2
         _Dtr
           ___awdiv
           ___awmod
           ___fltol (ARG)
           _reverse (ARG)
         ___flmul
           __Umul8_16
           ___xxtofl (ARG)
             ___fltol (ARG)
           _frexp (ARG)
             ___fleq
               ___xxtofl (ARG)
                 ___fltol (ARG)
         ___flsub
           ___fladd
             ___flmul (ARG)
               __Umul8_16
               ___xxtofl (ARG)
                 ___fltol (ARG)
               _frexp (ARG)
                 ___fleq
                   ___xxtofl (ARG)
                     ___fltol (ARG)
             ___xxtofl (ARG)
               ___fltol (ARG)
             _frexp (ARG)
               ___fleq
                 ___xxtofl (ARG)
                   ___fltol (ARG)
           ___xxtofl (ARG)
             ___fltol (ARG)
         ___fltol
         ___xxtofl
           ___fltol (ARG)
         _pow
           ___fleq
             ___xxtofl (ARG)
               ___fltol (ARG)
           ___flge
           ___flmul
             __Umul8_16
             ___xxtofl (ARG)
               ___fltol (ARG)
             _frexp (ARG)
               ___fleq
                 ___xxtofl (ARG)
                   ___fltol (ARG)
           ___flneg
           ___fltol
           ___xxtofl
             ___fltol (ARG)
           _exp
             ___fldiv
               ___flmul (ARG)
                 __Umul8_16
                 ___xxtofl (ARG)
                   ___fltol (ARG)
                 _frexp (ARG)
                   ___fleq
                     ___xxtofl (ARG)
                       ___fltol (ARG)
               ___xxtofl (ARG)
                 ___fltol (ARG)
             ___fleq
               ___xxtofl (ARG)
                 ___fltol (ARG)
             ___flge
             ___flmul
               __Umul8_16
               ___xxtofl (ARG)
                 ___fltol (ARG)
               _frexp (ARG)
                 ___fleq
                   ___xxtofl (ARG)
                     ___fltol (ARG)
             ___flneg
             ___flsub
               ___fladd
                 ___flmul (ARG)
                   __Umul8_16
                   ___xxtofl (ARG)
                     ___fltol (ARG)
                   _frexp (ARG)
                     ___fleq
                       ___xxtofl (ARG)
                         ___fltol (ARG)
                 ___xxtofl (ARG)
                   ___fltol (ARG)
                 _frexp (ARG)
                   ___fleq
                     ___xxtofl (ARG)
                       ___fltol (ARG)
               ___xxtofl (ARG)
                 ___fltol (ARG)
             ___fltol
             ___xxtofl
               ___fltol (ARG)
             _eval_poly
               ___fladd
                 ___flmul (ARG)
                   __Umul8_16
                   ___xxtofl (ARG)
                     ___fltol (ARG)
                   _frexp (ARG)
                     ___fleq
                       ___xxtofl (ARG)
                         ___fltol (ARG)
                 ___xxtofl (ARG)
                   ___fltol (ARG)
                 _frexp (ARG)
                   ___fleq
                     ___xxtofl (ARG)
                       ___fltol (ARG)
               ___flmul
                 __Umul8_16
                 ___xxtofl (ARG)
                   ___fltol (ARG)
                 _frexp (ARG)
                   ___fleq
                     ___xxtofl (ARG)
                       ___fltol (ARG)
             _floor
               ___fladd
                 ___flmul (ARG)
                   __Umul8_16
                   ___xxtofl (ARG)
                     ___fltol (ARG)
                   _frexp (ARG)
                     ___fleq
                       ___xxtofl (ARG)
                         ___fltol (ARG)
                 ___xxtofl (ARG)
                   ___fltol (ARG)
                 _frexp (ARG)
                   ___fleq
                     ___xxtofl (ARG)
                       ___fltol (ARG)
               ___flge
               ___fltol
               ___xxtofl
                 ___fltol (ARG)
               _frexp
                 ___fleq
                   ___xxtofl (ARG)
                     ___fltol (ARG)
             _ldexp
               ___fleq
                 ___xxtofl (ARG)
                   ___fltol (ARG)
               ___flge
               _eval_poly (ARG)
                 ___fladd
                   ___flmul (ARG)
                     __Umul8_16
                     ___xxtofl (ARG)
                       ___fltol (ARG)
                     _frexp (ARG)
                       ___fleq
                         ___xxtofl (ARG)
                           ___fltol (ARG)
                   ___xxtofl (ARG)
                     ___fltol (ARG)
                   _frexp (ARG)
                     ___fleq
                       ___xxtofl (ARG)
                         ___fltol (ARG)
                 ___flmul
                   __Umul8_16
                   ___xxtofl (ARG)
                     ___fltol (ARG)
                   _frexp (ARG)
                     ___fleq
                       ___xxtofl (ARG)
                         ___fltol (ARG)
             _log (ARG)
               ___fladd
                 ___flmul (ARG)
                   __Umul8_16
                   ___xxtofl (ARG)
                     ___fltol (ARG)
                   _frexp (ARG)
                     ___fleq
                       ___xxtofl (ARG)
                         ___fltol (ARG)
                 ___xxtofl (ARG)
                   ___fltol (ARG)
                 _frexp (ARG)
                   ___fleq
                     ___xxtofl (ARG)
                       ___fltol (ARG)
               ___fleq
                 ___xxtofl (ARG)
                   ___fltol (ARG)
               ___flge
               ___flmul
                 __Umul8_16
                 ___xxtofl (ARG)
                   ___fltol (ARG)
                 _frexp (ARG)
                   ___fleq
                     ___xxtofl (ARG)
                       ___fltol (ARG)
               ___xxtofl
                 ___fltol (ARG)
               _eval_poly
                 ___fladd
                   ___flmul (ARG)
                     __Umul8_16
                     ___xxtofl (ARG)
                       ___fltol (ARG)
                     _frexp (ARG)
                       ___fleq
                         ___xxtofl (ARG)
                           ___fltol (ARG)
                   ___xxtofl (ARG)
                     ___fltol (ARG)
                   _frexp (ARG)
                     ___fleq
                       ___xxtofl (ARG)
                         ___fltol (ARG)
                 ___flmul
                   __Umul8_16
                   ___xxtofl (ARG)
                     ___fltol (ARG)
                   _frexp (ARG)
                     ___fleq
                       ___xxtofl (ARG)
                         ___fltol (ARG)
               _frexp
                 ___fleq
                   ___xxtofl (ARG)
                     ___fltol (ARG)
           _log
             ___fladd
               ___flmul (ARG)
                 __Umul8_16
                 ___xxtofl (ARG)
                   ___fltol (ARG)
                 _frexp (ARG)
                   ___fleq
                     ___xxtofl (ARG)
                       ___fltol (ARG)
               ___xxtofl (ARG)
                 ___fltol (ARG)
               _frexp (ARG)
                 ___fleq
                   ___xxtofl (ARG)
                     ___fltol (ARG)
             ___fleq
               ___xxtofl (ARG)
                 ___fltol (ARG)
             ___flge
             ___flmul
               __Umul8_16
               ___xxtofl (ARG)
                 ___fltol (ARG)
               _frexp (ARG)
                 ___fleq
                   ___xxtofl (ARG)
                     ___fltol (ARG)
             ___xxtofl
               ___fltol (ARG)
             _eval_poly
               ___fladd
                 ___flmul (ARG)
                   __Umul8_16
                   ___xxtofl (ARG)
                     ___fltol (ARG)
                   _frexp (ARG)
                     ___fleq
                       ___xxtofl (ARG)
                         ___fltol (ARG)
                 ___xxtofl (ARG)
                   ___fltol (ARG)
                 _frexp (ARG)
                   ___fleq
                     ___xxtofl (ARG)
                       ___fltol (ARG)
               ___flmul
                 __Umul8_16
                 ___xxtofl (ARG)
                   ___fltol (ARG)
                 _frexp (ARG)
                   ___fleq
                     ___xxtofl (ARG)
                       ___fltol (ARG)
             _frexp
               ___fleq
                 ___xxtofl (ARG)
                   ___fltol (ARG)
       _word
         _letra
           _port
     _cur
       _com
         _port
   _cur
     _com
       _port
   _lcd_clear
     _com
       _port
   _lcd_init
     _com
       _port
   _lee1
     ___fldiv
       ___flmul (ARG)
         __Umul8_16
         ___xxtofl (ARG)
           ___fltol (ARG)
         _frexp (ARG)
           ___fleq
             ___xxtofl (ARG)
               ___fltol (ARG)
       ___xxtofl (ARG)
         ___fltol (ARG)
     ___flmul
       __Umul8_16
       ___xxtofl (ARG)
         ___fltol (ARG)
       _frexp (ARG)
         ___fleq
           ___xxtofl (ARG)
             ___fltol (ARG)
     ___xxtofl
       ___fltol (ARG)
     _ftoa2
       _Dtr
         ___awdiv
         ___awmod
         ___fltol (ARG)
         _reverse (ARG)
       ___flmul
         __Umul8_16
         ___xxtofl (ARG)
           ___fltol (ARG)
         _frexp (ARG)
           ___fleq
             ___xxtofl (ARG)
               ___fltol (ARG)
       ___flsub
         ___fladd
           ___flmul (ARG)
             __Umul8_16
             ___xxtofl (ARG)
               ___fltol (ARG)
             _frexp (ARG)
               ___fleq
                 ___xxtofl (ARG)
                   ___fltol (ARG)
           ___xxtofl (ARG)
             ___fltol (ARG)
           _frexp (ARG)
             ___fleq
               ___xxtofl (ARG)
                 ___fltol (ARG)
         ___xxtofl (ARG)
           ___fltol (ARG)
       ___fltol
       ___xxtofl
         ___fltol (ARG)
       _pow
         ___fleq
           ___xxtofl (ARG)
             ___fltol (ARG)
         ___flge
         ___flmul
           __Umul8_16
           ___xxtofl (ARG)
             ___fltol (ARG)
           _frexp (ARG)
             ___fleq
               ___xxtofl (ARG)
                 ___fltol (ARG)
         ___flneg
         ___fltol
         ___xxtofl
           ___fltol (ARG)
         _exp
           ___fldiv
             ___flmul (ARG)
               __Umul8_16
               ___xxtofl (ARG)
                 ___fltol (ARG)
               _frexp (ARG)
                 ___fleq
                   ___xxtofl (ARG)
                     ___fltol (ARG)
             ___xxtofl (ARG)
               ___fltol (ARG)
           ___fleq
             ___xxtofl (ARG)
               ___fltol (ARG)
           ___flge
           ___flmul
             __Umul8_16
             ___xxtofl (ARG)
               ___fltol (ARG)
             _frexp (ARG)
               ___fleq
                 ___xxtofl (ARG)
                   ___fltol (ARG)
           ___flneg
           ___flsub
             ___fladd
               ___flmul (ARG)
                 __Umul8_16
                 ___xxtofl (ARG)
                   ___fltol (ARG)
                 _frexp (ARG)
                   ___fleq
                     ___xxtofl (ARG)
                       ___fltol (ARG)
               ___xxtofl (ARG)
                 ___fltol (ARG)
               _frexp (ARG)
                 ___fleq
                   ___xxtofl (ARG)
                     ___fltol (ARG)
             ___xxtofl (ARG)
               ___fltol (ARG)
           ___fltol
           ___xxtofl
             ___fltol (ARG)
           _eval_poly
             ___fladd
               ___flmul (ARG)
                 __Umul8_16
                 ___xxtofl (ARG)
                   ___fltol (ARG)
                 _frexp (ARG)
                   ___fleq
                     ___xxtofl (ARG)
                       ___fltol (ARG)
               ___xxtofl (ARG)
                 ___fltol (ARG)
               _frexp (ARG)
                 ___fleq
                   ___xxtofl (ARG)
                     ___fltol (ARG)
             ___flmul
               __Umul8_16
               ___xxtofl (ARG)
                 ___fltol (ARG)
               _frexp (ARG)
                 ___fleq
                   ___xxtofl (ARG)
                     ___fltol (ARG)
           _floor
             ___fladd
               ___flmul (ARG)
                 __Umul8_16
                 ___xxtofl (ARG)
                   ___fltol (ARG)
                 _frexp (ARG)
                   ___fleq
                     ___xxtofl (ARG)
                       ___fltol (ARG)
               ___xxtofl (ARG)
                 ___fltol (ARG)
               _frexp (ARG)
                 ___fleq
                   ___xxtofl (ARG)
                     ___fltol (ARG)
             ___flge
             ___fltol
             ___xxtofl
               ___fltol (ARG)
             _frexp
               ___fleq
                 ___xxtofl (ARG)
                   ___fltol (ARG)
           _ldexp
             ___fleq
               ___xxtofl (ARG)
                 ___fltol (ARG)
             ___flge
             _eval_poly (ARG)
               ___fladd
                 ___flmul (ARG)
                   __Umul8_16
                   ___xxtofl (ARG)
                     ___fltol (ARG)
                   _frexp (ARG)
                     ___fleq
                       ___xxtofl (ARG)
                         ___fltol (ARG)
                 ___xxtofl (ARG)
                   ___fltol (ARG)
                 _frexp (ARG)
                   ___fleq
                     ___xxtofl (ARG)
                       ___fltol (ARG)
               ___flmul
                 __Umul8_16
                 ___xxtofl (ARG)
                   ___fltol (ARG)
                 _frexp (ARG)
                   ___fleq
                     ___xxtofl (ARG)
                       ___fltol (ARG)
           _log (ARG)
             ___fladd
               ___flmul (ARG)
                 __Umul8_16
                 ___xxtofl (ARG)
                   ___fltol (ARG)
                 _frexp (ARG)
                   ___fleq
                     ___xxtofl (ARG)
                       ___fltol (ARG)
               ___xxtofl (ARG)
                 ___fltol (ARG)
               _frexp (ARG)
                 ___fleq
                   ___xxtofl (ARG)
                     ___fltol (ARG)
             ___fleq
               ___xxtofl (ARG)
                 ___fltol (ARG)
             ___flge
             ___flmul
               __Umul8_16
               ___xxtofl (ARG)
                 ___fltol (ARG)
               _frexp (ARG)
                 ___fleq
                   ___xxtofl (ARG)
                     ___fltol (ARG)
             ___xxtofl
               ___fltol (ARG)
             _eval_poly
               ___fladd
                 ___flmul (ARG)
                   __Umul8_16
                   ___xxtofl (ARG)
                     ___fltol (ARG)
                   _frexp (ARG)
                     ___fleq
                       ___xxtofl (ARG)
                         ___fltol (ARG)
                 ___xxtofl (ARG)
                   ___fltol (ARG)
                 _frexp (ARG)
                   ___fleq
                     ___xxtofl (ARG)
                       ___fltol (ARG)
               ___flmul
                 __Umul8_16
                 ___xxtofl (ARG)
                   ___fltol (ARG)
                 _frexp (ARG)
                   ___fleq
                     ___xxtofl (ARG)
                       ___fltol (ARG)
             _frexp
               ___fleq
                 ___xxtofl (ARG)
                   ___fltol (ARG)
         _log
           ___fladd
             ___flmul (ARG)
               __Umul8_16
               ___xxtofl (ARG)
                 ___fltol (ARG)
               _frexp (ARG)
                 ___fleq
                   ___xxtofl (ARG)
                     ___fltol (ARG)
             ___xxtofl (ARG)
               ___fltol (ARG)
             _frexp (ARG)
               ___fleq
                 ___xxtofl (ARG)
                   ___fltol (ARG)
           ___fleq
             ___xxtofl (ARG)
               ___fltol (ARG)
           ___flge
           ___flmul
             __Umul8_16
             ___xxtofl (ARG)
               ___fltol (ARG)
             _frexp (ARG)
               ___fleq
                 ___xxtofl (ARG)
                   ___fltol (ARG)
           ___xxtofl
             ___fltol (ARG)
           _eval_poly
             ___fladd
               ___flmul (ARG)
                 __Umul8_16
                 ___xxtofl (ARG)
                   ___fltol (ARG)
                 _frexp (ARG)
                   ___fleq
                     ___xxtofl (ARG)
                       ___fltol (ARG)
               ___xxtofl (ARG)
                 ___fltol (ARG)
               _frexp (ARG)
                 ___fleq
                   ___xxtofl (ARG)
                     ___fltol (ARG)
             ___flmul
               __Umul8_16
               ___xxtofl (ARG)
                 ___fltol (ARG)
               _frexp (ARG)
                 ___fleq
                   ___xxtofl (ARG)
                     ___fltol (ARG)
           _frexp
             ___fleq
               ___xxtofl (ARG)
                 ___fltol (ARG)
     _word
       _letra
         _port
   _lee2
     ___fldiv
       ___flmul (ARG)
         __Umul8_16
         ___xxtofl (ARG)
           ___fltol (ARG)
         _frexp (ARG)
           ___fleq
             ___xxtofl (ARG)
               ___fltol (ARG)
       ___xxtofl (ARG)
         ___fltol (ARG)
     ___flmul
       __Umul8_16
       ___xxtofl (ARG)
         ___fltol (ARG)
       _frexp (ARG)
         ___fleq
           ___xxtofl (ARG)
             ___fltol (ARG)
     ___fltol
     ___xxtofl
       ___fltol (ARG)
     _itoa
       ___fltol (ARG)
       _utoa (ARG)
         ___lwdiv
         ___lwmod
     _word
       _letra
         _port
   _lee3
     ___fldiv
       ___flmul (ARG)
         __Umul8_16
         ___xxtofl (ARG)
           ___fltol (ARG)
         _frexp (ARG)
           ___fleq
             ___xxtofl (ARG)
               ___fltol (ARG)
       ___xxtofl (ARG)
         ___fltol (ARG)
     ___flmul
       __Umul8_16
       ___xxtofl (ARG)
         ___fltol (ARG)
       _frexp (ARG)
         ___fleq
           ___xxtofl (ARG)
             ___fltol (ARG)
     ___xxtofl
       ___fltol (ARG)
     _ftoa2
       _Dtr
         ___awdiv
         ___awmod
         ___fltol (ARG)
         _reverse (ARG)
       ___flmul
         __Umul8_16
         ___xxtofl (ARG)
           ___fltol (ARG)
         _frexp (ARG)
           ___fleq
             ___xxtofl (ARG)
               ___fltol (ARG)
       ___flsub
         ___fladd
           ___flmul (ARG)
             __Umul8_16
             ___xxtofl (ARG)
               ___fltol (ARG)
             _frexp (ARG)
               ___fleq
                 ___xxtofl (ARG)
                   ___fltol (ARG)
           ___xxtofl (ARG)
             ___fltol (ARG)
           _frexp (ARG)
             ___fleq
               ___xxtofl (ARG)
                 ___fltol (ARG)
         ___xxtofl (ARG)
           ___fltol (ARG)
       ___fltol
       ___xxtofl
         ___fltol (ARG)
       _pow
         ___fleq
           ___xxtofl (ARG)
             ___fltol (ARG)
         ___flge
         ___flmul
           __Umul8_16
           ___xxtofl (ARG)
             ___fltol (ARG)
           _frexp (ARG)
             ___fleq
               ___xxtofl (ARG)
                 ___fltol (ARG)
         ___flneg
         ___fltol
         ___xxtofl
           ___fltol (ARG)
         _exp
           ___fldiv
             ___flmul (ARG)
               __Umul8_16
               ___xxtofl (ARG)
                 ___fltol (ARG)
               _frexp (ARG)
                 ___fleq
                   ___xxtofl (ARG)
                     ___fltol (ARG)
             ___xxtofl (ARG)
               ___fltol (ARG)
           ___fleq
             ___xxtofl (ARG)
               ___fltol (ARG)
           ___flge
           ___flmul
             __Umul8_16
             ___xxtofl (ARG)
               ___fltol (ARG)
             _frexp (ARG)
               ___fleq
                 ___xxtofl (ARG)
                   ___fltol (ARG)
           ___flneg
           ___flsub
             ___fladd
               ___flmul (ARG)
                 __Umul8_16
                 ___xxtofl (ARG)
                   ___fltol (ARG)
                 _frexp (ARG)
                   ___fleq
                     ___xxtofl (ARG)
                       ___fltol (ARG)
               ___xxtofl (ARG)
                 ___fltol (ARG)
               _frexp (ARG)
                 ___fleq
                   ___xxtofl (ARG)
                     ___fltol (ARG)
             ___xxtofl (ARG)
               ___fltol (ARG)
           ___fltol
           ___xxtofl
             ___fltol (ARG)
           _eval_poly
             ___fladd
               ___flmul (ARG)
                 __Umul8_16
                 ___xxtofl (ARG)
                   ___fltol (ARG)
                 _frexp (ARG)
                   ___fleq
                     ___xxtofl (ARG)
                       ___fltol (ARG)
               ___xxtofl (ARG)
                 ___fltol (ARG)
               _frexp (ARG)
                 ___fleq
                   ___xxtofl (ARG)
                     ___fltol (ARG)
             ___flmul
               __Umul8_16
               ___xxtofl (ARG)
                 ___fltol (ARG)
               _frexp (ARG)
                 ___fleq
                   ___xxtofl (ARG)
                     ___fltol (ARG)
           _floor
             ___fladd
               ___flmul (ARG)
                 __Umul8_16
                 ___xxtofl (ARG)
                   ___fltol (ARG)
                 _frexp (ARG)
                   ___fleq
                     ___xxtofl (ARG)
                       ___fltol (ARG)
               ___xxtofl (ARG)
                 ___fltol (ARG)
               _frexp (ARG)
                 ___fleq
                   ___xxtofl (ARG)
                     ___fltol (ARG)
             ___flge
             ___fltol
             ___xxtofl
               ___fltol (ARG)
             _frexp
               ___fleq
                 ___xxtofl (ARG)
                   ___fltol (ARG)
           _ldexp
             ___fleq
               ___xxtofl (ARG)
                 ___fltol (ARG)
             ___flge
             _eval_poly (ARG)
               ___fladd
                 ___flmul (ARG)
                   __Umul8_16
                   ___xxtofl (ARG)
                     ___fltol (ARG)
                   _frexp (ARG)
                     ___fleq
                       ___xxtofl (ARG)
                         ___fltol (ARG)
                 ___xxtofl (ARG)
                   ___fltol (ARG)
                 _frexp (ARG)
                   ___fleq
                     ___xxtofl (ARG)
                       ___fltol (ARG)
               ___flmul
                 __Umul8_16
                 ___xxtofl (ARG)
                   ___fltol (ARG)
                 _frexp (ARG)
                   ___fleq
                     ___xxtofl (ARG)
                       ___fltol (ARG)
           _log (ARG)
             ___fladd
               ___flmul (ARG)
                 __Umul8_16
                 ___xxtofl (ARG)
                   ___fltol (ARG)
                 _frexp (ARG)
                   ___fleq
                     ___xxtofl (ARG)
                       ___fltol (ARG)
               ___xxtofl (ARG)
                 ___fltol (ARG)
               _frexp (ARG)
                 ___fleq
                   ___xxtofl (ARG)
                     ___fltol (ARG)
             ___fleq
               ___xxtofl (ARG)
                 ___fltol (ARG)
             ___flge
             ___flmul
               __Umul8_16
               ___xxtofl (ARG)
                 ___fltol (ARG)
               _frexp (ARG)
                 ___fleq
                   ___xxtofl (ARG)
                     ___fltol (ARG)
             ___xxtofl
               ___fltol (ARG)
             _eval_poly
               ___fladd
                 ___flmul (ARG)
                   __Umul8_16
                   ___xxtofl (ARG)
                     ___fltol (ARG)
                   _frexp (ARG)
                     ___fleq
                       ___xxtofl (ARG)
                         ___fltol (ARG)
                 ___xxtofl (ARG)
                   ___fltol (ARG)
                 _frexp (ARG)
                   ___fleq
                     ___xxtofl (ARG)
                       ___fltol (ARG)
               ___flmul
                 __Umul8_16
                 ___xxtofl (ARG)
                   ___fltol (ARG)
                 _frexp (ARG)
                   ___fleq
                     ___xxtofl (ARG)
                       ___fltol (ARG)
             _frexp
               ___fleq
                 ___xxtofl (ARG)
                   ___fltol (ARG)
         _log
           ___fladd
             ___flmul (ARG)
               __Umul8_16
               ___xxtofl (ARG)
                 ___fltol (ARG)
               _frexp (ARG)
                 ___fleq
                   ___xxtofl (ARG)
                     ___fltol (ARG)
             ___xxtofl (ARG)
               ___fltol (ARG)
             _frexp (ARG)
               ___fleq
                 ___xxtofl (ARG)
                   ___fltol (ARG)
           ___fleq
             ___xxtofl (ARG)
               ___fltol (ARG)
           ___flge
           ___flmul
             __Umul8_16
             ___xxtofl (ARG)
               ___fltol (ARG)
             _frexp (ARG)
               ___fleq
                 ___xxtofl (ARG)
                   ___fltol (ARG)
           ___xxtofl
             ___fltol (ARG)
           _eval_poly
             ___fladd
               ___flmul (ARG)
                 __Umul8_16
                 ___xxtofl (ARG)
                   ___fltol (ARG)
                 _frexp (ARG)
                   ___fleq
                     ___xxtofl (ARG)
                       ___fltol (ARG)
               ___xxtofl (ARG)
                 ___fltol (ARG)
               _frexp (ARG)
                 ___fleq
                   ___xxtofl (ARG)
                     ___fltol (ARG)
             ___flmul
               __Umul8_16
               ___xxtofl (ARG)
                 ___fltol (ARG)
               _frexp (ARG)
                 ___fleq
                   ___xxtofl (ARG)
                     ___fltol (ARG)
           _frexp
             ___fleq
               ___xxtofl (ARG)
                 ___fltol (ARG)
     _word
       _letra
         _port
   _lee4
     ___fldiv
       ___flmul (ARG)
         __Umul8_16
         ___xxtofl (ARG)
           ___fltol (ARG)
         _frexp (ARG)
           ___fleq
             ___xxtofl (ARG)
               ___fltol (ARG)
       ___xxtofl (ARG)
         ___fltol (ARG)
     ___flmul
       __Umul8_16
       ___xxtofl (ARG)
         ___fltol (ARG)
       _frexp (ARG)
         ___fleq
           ___xxtofl (ARG)
             ___fltol (ARG)
     ___fltol
     ___xxtofl
       ___fltol (ARG)
     _itoa
       ___fltol (ARG)
       _utoa (ARG)
         ___lwdiv
         ___lwmod
     _word
       _letra
         _port
   _setup
     _spiInit
   _spiRead
     _spiReceiveWait
   _spiWrite
   _word
     _letra
       _port

 Address spaces:
Name               Size   Autos  Total    Cost      Usage
BITCOMMON            E      0       0       0        0.0%
EEDATA             100      0       0       0        0.0%
NULL                 0      0       0       0        0.0%
CODE                 0      0       0       0        0.0%
COMMON               E      E       E       1      100.0%
BITSFR0              0      0       0       1        0.0%
SFR0                 0      0       0       1        0.0%
BITSFR1              0      0       0       2        0.0%
SFR1                 0      0       0       2        0.0%
STACK                0      0       0       2        0.0%
ABS                  0      0      DA       3        0.0%
BITBANK0            50      0       0       4        0.0%
BITSFR3              0      0       0       4        0.0%
SFR3                 0      0       0       4        0.0%
BANK0               50     50      50       5      100.0%
BITSFR2              0      0       0       5        0.0%
SFR2                 0      0       0       5        0.0%
BITBANK1            50      0       0       6        0.0%
BANK1               50     48      4E       7       97.5%
BITBANK3            60      0       0       8        0.0%
BANK3               60     10      2E       9       47.9%
BITBANK2            60      0       0      10        0.0%
BANK2               60      0       0      11        0.0%
DATA                 0      0      DA      12        0.0%


Microchip Technology PIC Macro Assembler V2.10 build 88905656 
Symbol Table                                                                                   Mon Feb 24 07:25:49 2020

            ___fldiv@aexp 00AC              ___fldiv@bexp 00AB                         _i 00ED  
                       pc 0002              ___fldiv@sign 00A4               __CFG_CP$OFF 0000  
             _SSPSTATbits 0094                        l90 1996                        l84 1968  
                      l87 19AB                        l96 1A59                        l99 1ED1  
            ___awdiv@sign 0076                        fsr 0004       __Umul8_16@word_mpld 0076  
                     l102 19C1                       l120 114E                       l201 196E  
                     l123 135D                       l108 1AD5                       l132 1FFF  
                     l141 1BA7                       l117 12A8                       l126 11F3  
                     l129 1F5F                       l209 197E                       l154 0B52  
                     l164 1B18                       l149 1DDB                       l191 0017  
                     l175 19DF                       l192 001C                       l601 0FFF  
                     l195 196F                       l461 1CA0                       l613 0F71  
                     l630 0FF3                       l622 0FD1                       l198 1975  
                     l631 0FFF                       l448 1D63                       l472 1090  
                     l464 1C16                       l800 16D0                       l481 1E55  
                     l609 0F4D                       l473 10A9                       l465 1C32  
                     l722 1382                       l634 1BF7                       l466 1C47  
                     l491 1E55                       l619 0F93                       l660 03DD  
                     l644 0268                       l724 1419                       l812 15D7  
                     l477 1989                       l469 1024                       l646 0489  
                     l830 09CE                       l735 13E3                       l567 1B5C  
                     l751 0872                       l743 1A05                       l488 1E40  
                     l736 13EF                       l728 13C7                       l592 0E82  
                     l840 14F3                       l808 1CFC                       l577 1A93  
                     l761 0068                       l666 045D                       l770 1A1A  
                     l690 0756                       l594 0E59                       l762 01E9  
                     l668 0475                       l772 1A2C                       l684 07EA  
                     l588 0DDB                       l749 085B                       l766 01E9  
                     l696 07DE                       l792 0D77                       l788 0D77  
            __CFG_CPD$OFF 0000                       _Dtr 1D64                       _com 1997  
                     _cur 1A2D                       _exp 0B53                       _log 0873  
                     _pow 001D                       fsr0 0004                       indf 0000  
            ___awmod@sign 0076              ___flmul@aexp 004D              ___flmul@bexp 0052  
            ___flmul@sign 004C              ___flmul@temp 0057              ___flmul@prod 0053  
            __CFG_LVP$OFF 0000                      ?_Dtr 0020              ___fltol@exp1 007A  
                    l3100 1B21                      l3110 1B44                      l3102 1B24  
                    l4000 075B                      l3112 1B4A                      l3104 1B2B  
                    l4002 0760                      l4010 0791                      l3114 1B4B  
                    l3106 1B2F                      l3130 1A6E                      l3122 1A5A  
                    l4020 07C4                      l4012 079E                      l4004 076E  
                    l3116 1B52                      l3108 1B33                      l3132 1A72  
                    l3124 1A60                      l3140 1A8F                      l3300 083E  
                    l4100 1989                      l4110 01EA                      l4022 07D2  
                    l4014 07A9                      l4006 0772                      l3118 1B58  
                    l3134 1A7C                      l3126 1A63                      l3310 0868  
                    l3302 084F                      l4200 038A                      l4120 020D  
                    l4112 01F3                      l4024 07D6                      l4016 07B8  
                    l4008 078B                      l4040 138A                      l4032 1361  
                    l3136 1A82                      l3128 1A6A                      l3312 086E  
                    l3304 0857                      l4104 1BA8                      l3400 0011  
                    l4210 03AF                      l4202 0390                      l4130 022A  
                    l4122 0212                      l4114 01FD                      l4026 07D7  
                    l4018 07C2                      l4050 13AC                      l4034 1366  
                    l3138 1A89                      l3306 085F                      l4106 1BAC  
                    l3402 0013                      l4220 03E2                      l4212 03B2  
                    l4204 0393                      l4140 024B                      l4132 0231  
                    l4124 021C                      l4116 0203                      l4028 07E2  
                    l4060 13DD                      l4052 13B0                      l4044 1393  
                    l4036 136A                      l3308 0866                      l4300 1556  
                    l3404 0016                      l3500 19D5                      l4222 03E9  
                    l4230 041E                      l4214 03B6                      l4206 03A1  
                    l4150 0270                      l4142 0250                      l4134 023B  
                    l4126 021E                      l4118 0206                      l4070 1410  
                    l4062 13E7                      l4054 13BE                      l4046 1398  
                    l4038 137A                      l4310 157A                      l3502 19D6  
                    l3406 196F                      ?_com 0070                      l4240 045A  
                    l4232 042D                      l4224 03F9                      l4216 03D8  
                    l4208 03A9                      l4160 0294                      l4152 027C  
                    l4144 025A                      l4136 0241                      l4128 0220  
                    l4072 1411                      l4064 13F1                      l4056 13CE  
                    l4048 13A5                      l3096 1B19                      l3360 19F2  
                    l3352 19E3                      l4400 1C63                      l4080 1CC4  
                    l4312 1595                      l3504 196A                      l4242 0467  
                    l4234 043D                      l4226 03FD                      l4170 02DF  
                    l4154 0284                      l4146 025C                      l4138 0244  
                    l4066 1407                      l4058 13D9                      l3098 1B1B  
                    l3290 081B                      l3362 19F7                      l3354 19E3  
                    l4410 1C7F                      l4402 1C66                      l4330 1B5E  
                    l4090 1CFB                      l4322 15AB                      l4306 1567  
                    l3506 1976                      l4244 046B                      l4236 044C  
                    l4228 0416                      l4180 030E                      l4172 02E9  
                    l4164 029F                      l4148 025E                      l4068 140C  
                    l3292 081F                      l3356 19E7                      l4500 19BE  
                    l4420 1C9C                      l4412 1C85                      l4404 1C6D  
                    l4340 1B99                      l4332 1B60                      l3700 0D7F  
                    l3620 1C2A                      l4092 1CFC                      l4084 1CCD  
                    l4076 1CA1                      l4252 15D8                      l4324 15D7  
                    l4308 1574                      l3508 197B                      l4246 046F  
                    l4238 0450                      l4190 0369                      l4182 0311  
                    l4174 02EB                      l4166 02BD                      l4158 028D  
                    l3630 1A09                      l3294 0825                      l3286 0804  
                    l3358 19EE                      l4350 1D09                      l4342 1CFD  
                    l4414 1C8C                      l4406 1C71                      l4334 1B69  
                    l4510 1D9C                      l4502 1D64                      l3710 0D94  
                    l3702 0D85                      l3622 1C44                      l4086 1CEA  
                    l4078 1CBC                      l4270 1638                      l4262 1623  
                    l4254 15F9                      l4318 15A0                      l4430 089F  
                    l4176 02F0                      l4184 031F                      l4192 0371  
                    l4168 02D5                      l3632 1A10                      l3296 0829  
                    l3288 0808                      l4328 1964                      l4360 1D1E  
                    l4352 1D0D                      l4344 1CFE                      l4408 1C75  
                    l4416 1C92                      l4336 1B8D                      l4520 1DC8  
                    l4512 1DA3                      l4504 1D69                      l4096 197F  
                    l3720 0DAC                      l3712 0D9C                      l3704 0D89  
                    l4280 141A                      l3624 1C46                      l3616 1BF8  
                    l4088 1CF7                      l4272 1686                      l4256 15FF  
                    l4440 094A                      l4432 08C8                      l4424 0873  
                    l4600 0B25                      l4194 0377                      l4186 0340  
                    l4178 0308                      l3634 1A14                      l3298 082B  
                    l4370 1D41                      l4362 1D21                      l4354 1D12  
                    l4346 1D02                      l4418 1C97                      l4338 1B93  
                    l4514 1DAF                      l4506 1D83                      l4098 1987  
                    l3810 0EBC                      l3802 0E94                      l3730 0DBE  
                    l3722 0DB2                      l3714 0D9D                      l3706 0D8A  
                    l4282 1449                      l3650 1044                      l3642 1008  
                    l3618 1C0E                      l4258 1618                      l4266 162E  
                    l4290 14F4                      l4442 096B                      l4426 088E  
                    l4530 0047                      l4610 1A45                      l4602 1A2E  
                    l4196 037F                      l4188 0341                      l3636 1A23  
                    l3628 1A07                      l3900 049C                      l4620 1F39  
                    l4380 1D5A                      l4372 1D47                      l4364 1D28  
                    l4356 1D16                      l4348 1D07                      l4516 1DB5  
                    l4524 1DCD                      l4508 1D89                      l3812 0EBE  
                    l3804 0EAB                      l3820 0ED1                      l3732 0DC3  
                    l3740 0DD3                      l3724 0DB3                      l3708 0D8F  
                    l3716 0D9F                      l4284 14E5                      l3652 1068  
                    l3644 101C                      l4276 16C6                      l4268 1637  
                    l4292 151D                      l4460 0BCE                      l4452 0B87  
                    l4436 08D9                      l4532 0062                      l4612 1A4A  
                    l4604 1A33                      l4700 1ADD                      l3396 0008  
                    l4198 0381                      l3638 1A28                      l3910 04B8  
                    l3902 04A1                      l3670 1E05                      l3662 1DDC  
                    l4622 1F56                      l4382 1D5F                      l4374 1D48  
                    l4366 1D2C                      l4358 1D18                      l4390 1C4D  
                    l4518 1DBF                      l3822 0EE7                      l3830 0F3F  
                    l3814 0EC2                      l3806 0EAF                      l3750 0DF1  
                    l3742 0DE1                      l3734 0DC8                      l3726 0DB9  
                    l3718 0DA7                      l4286 14EB                      l3654 106C  
                    l3646 1038                      l4470 0C1F                      l4454 0BA2  
                    l4446 0B53                      l4438 0942                      l4550 0133  
                    l4542 00A7                      l4526 001D                      l4630 1FF6  
                    l4614 1A50                      l4606 1A38                      l4710 1B06  
                    l4702 1AE9                      l3398 000F                      l3920 04CD  
                    l3912 04BD                      l3904 04A6                      l3672 1E06  
                    l3664 1DE7                      l4616 1ED2                      l4376 1D4F  
                    l4368 1D30                      l4392 1C52                      l3840 0F6C  
                    l3832 0F55                      l3824 0F25                      l3816 0EC3  
                    l3808 0EB3                      l3760 0E05                      l3752 0DF5  
                    l3744 0DE5                      l3736 0DD0                      l3728 0DBD  
                    l3656 10A6                      l3648 1040                      l4296 1528  
                    l4480 0D02                      l4472 0C5E                      l4464 0BDF  
                    l4448 0B7C                      l4560 01CC                      l4552 013A  
                    l4544 00C2                      l4536 0073                      l4528 0020  
                    l4624 1F60                      l4608 1A3F                      l4712 1B0C  
                    l4704 1AEE                      l4632 198A                      l4640 1E74  
                    l3496 19C2                      l4800 17C2                      ?_cur 0073  
                    l3930 04E9                      l3922 04D2                      l3914 04C3  
                    l3906 04AE                      l3674 1E0E                      l4618 1EDA  
                    l4378 1D55                      l4394 1C54                      l4386 1C48  
                    l3850 0F7F                      l3842 0F70                      l3834 0F5A  
                    l3826 0F2B                      l3818 0ECC                      l3770 0E19  
                    l3762 0E09                      l3754 0DF9                      l3746 0DE9  
                    l3738 0DD1                      l3658 10A8                      l4298 1552  
                    l4482 0D07                      l4474 0C75                      l4466 0C03  
                    l4458 0BB3                      l4562 01D1                      l4546 0122  
                    l4554 0151                      l4538 009C                      l4626 1F68  
                    l4570 19A1                      l4714 1B0D                      l4706 1AFF  
                    l4650 1EA4                      l4642 1E78                      l4634 1E56  
                    l3498 19CC                      l4810 17F0                      l4802 17C8  
                    l4730 16DA                      l3940 0514                      l3932 04EE  
                    l3924 04DA                      l3916 04C7                      l3908 04B0  
                    l3692 1E35                      l3684 1E1C                      l3676 1E10  
                    l3668 1DF0                      l4492 19AD                      l4580 1AB3  
                    l4396 1C58                      l4388 1C49                      l3860 0F90  
                    l3844 0F75                      l3852 0F81                      l3828 0F30  
                    l3780 0E3D                      l3772 0E1D                      l3764 0E0D  
                    l3756 0DFD                      l3748 0DED                      l4484 0D2E  
                    l4476 0C88                      l4468 0C08                      l4556 016A  
                    l4628 1FD3                      l4572 19A4                      l4716 1B11  
                    l4708 1B02                      l4652 1EB3                      l4644 1E86  
                    l4636 1E5F                      l4660 1207                      l4812 17F8  
                    l4804 17D2                      l4740 16E6                      l4732 16DD  
                    l4724 16D1                      l3950 05B1                      l3942 0531  
                    l3926 04DC                      l3918 04C8                      l3694 1E45  
                    l3678 1E14                      l3686 1E2E                      l4494 19B0  
                    l4582 1AB9                      l4398 1C5D                      l3870 0FAF  
                    l3846 0F78                      l3838 0F63                      l3854 0F85  
                    l3790 0E6D                      l3782 0E5D                      l3774 0E21  
                    l3766 0E11                      l3758 0E01                      l4478 0CCC  
                    l4558 01B5                      l4590 0A5C                      l4574 19A8  
                    l4566 1998                      l4718 1B17                      l4654 1EB9  
                    l4646 1E8C                      l4638 1E65                      l4662 1272  
                    l4670 10BF                      l4814 17FB                      l4806 17DC  
                    l4750 16EF                      l4742 16E7                      l4734 16E1  
                    l4726 16D6                      l3960 0614                      l3952 05BA  
                    l3944 054D                      l3936 04F7                      l3928 04E4  
                    l3696 1E4A                      l4496 19B6                      l4576 1A94  
                    l3880 0FE8                      l3872 0FCD                      l3864 0F98  
                    l3856 0F86                      l3848 0F7A                      l3792 0E76  
                    l3784 0E66                      l3768 0E15                      l3776 0E25  
                    l4488 0D39                      l4592 0A64                      l4584 09CF  
                    l4568 199B                      l4656 1EC8                      l4648 1E9B  
                    l4664 1295                      l4672 111E                      l4680 12BC  
                    l4808 17E4                      l4760 1718                      l4752 16F4  
                    l4744 16EA                      l4736 16E2                      l4728 16D9  
                    l3970 06B4                      l3962 062D                      l3954 05CA  
                    l3946 0579                      l3938 0507                      l4498 19B9  
                    l4578 1A97                      l3890 0FFE                      l3882 0FE9  
                    l3874 0FD6                      l3866 0F9D                      l3858 0F8A  
                    l3786 0E68                      l3794 0E7A                      l3778 0E26  
                    l3698 0D78                      l4594 0A72                      l4586 09E4  
                    l4666 129E                      l4658 11F7                      l4674 113B  
                    l4682 1327                      l4690 1164                      l4770 174E  
                    l4762 1724                      l4754 16F9                      l4746 16ED  
                    l4738 16E5                      l3980 0722                      l3972 06DA  
                    l3964 064A                      l3956 05E7                      l3948 0595  
                    l3892 048A                      l3884 0FED                      l3876 0FDB  
                    l3868 0FAB                      l3796 0E86                      l3788 0E6C  
                    l4596 0A9F                      l4588 0A36                      l4676 1144  
                    l4668 10AD                      l4684 134A                      l4692 11C3  
                    l4780 177B                      l4772 1757                      l4764 172D  
                    l4756 1707                      l4748 16EE                      ?_exp 00B6  
                    ?_log 00B0                      l3990 073A                      l3982 0726  
                    l3974 0702                      l3966 0677                      l3958 05F7  
                    l3894 0491                      l3886 0FEF                      l3878 0FE3  
                    l3798 0E8B                      l4598 0ADA                      l4686 1353  
                    l4678 12AC                      l4694 11E0                      l4790 179E  
                    l4782 177E                      l4774 1763                      l4766 1739  
                    l4758 170F                      l3992 073B                      l3984 0727  
                    l3976 070B                      l3968 0687                      l3896 0497  
                    l3888 0FFA                      l4696 11E9                      l4688 1152  
                    l4792 17AA                      l4784 1784                      l4776 176C  
                    l4768 1742                      l3994 073F                      l3986 0730  
                    l3978 0719                      l3898 049B                      l4698 1AD6  
                    l4794 17B2                      l4786 178E                      l4778 1771  
                    l3996 0753                      l3988 0736                      l4796 17B5  
                    l4788 1796                      l4798 17BF                      ?_pow 00C1  
                    STR_1 185C                      STR_2 185F                      STR_3 1862  
                    STR_4 1865                      STR_5 1865                      u4200 1B33  
                    u5000 0E6C                      u4201 1B32                      u5001 0E6B  
                    u4220 1B44                      u4300 1A8F                      u5100 0EE7  
                    u5020 0E82                      u4221 1B43                      u4301 1A8E  
                    u5101 0EE6                      u5021 0E81                      u5030 0E86  
                    u4215 1B34                      u5111 0EFE                      u5103 0EE3  
                    u5031 0E85                      u5015 0E6F                      u6000 0365  
                    u4240 1B58                      u5200 0F85                      u5120 0F12  
                    u5112 0EFF                      u5040 0E8B                      u4241 1B57  
                    u4225 1B40                      u5201 0F84                      u5121 0F13  
                    u5113 0F04                      u5041 0E8A                      u6010 0377  
                    u4250 1A60                      u5210 0F8A                      u5130 0F30  
                    u5122 0F18                      u5114 0F05                      u6011 0376  
                    u4235 1B4C                      u4251 1A5F                      u5211 0F89  
                    u5131 0F2F                      u5123 0F19                      u5115 0F0A  
                    u5051 0E9D                      u6100 03E9                      u6020 037F  
                    u4180 1B21                      u4500 0857                      u5300 0FE8  
                    u5220 0F90                      u5140 0F55                      u5116 0F0B  
                    u5060 0EAF                      u5052 0EA4                      u6101 03E8  
                    u6021 037E                      u6005 034E                      u4181 1B20  
                    u4501 0856                      u5301 0FE7                      u5221 0F8F  
                    u5141 0F54                      u5061 0EAE                      u5053 0EAB  
                    u6110 03FD                      u6006 0351                      u4270 1A72  
                    u4510 086E                      u5310 0FED                      u5230 0F97  
                    u5150 0F5A                      u5070 0EB3                      u6111 03FC  
                    u6007 0358                      u4271 1A71                      u4511 086D  
                    u5311 0FEC                      u5231 0F96                      u5151 0F59  
                    u5071 0EB2                      u6120 040C                      u6040 0390  
                    u6008 035B                      u5400 04EE                      u4280 1A7C  
                    u5320 0FFE                      u5240 0F9D                      u5080 0EC2  
                    u4600 1975                      u6041 038F                      u6009 0362  
                    u5401 04ED                      u4281 1A7B                      u4265 1A64  
                    u5321 0FFD                      u5241 0F9C                      u5081 0EC1  
                    u4601 1974                      u6130 042D                      u5330 049B  
                    u5250 0FAF                      u5170 0F70                      u6131 042C  
                    u6035 0383                      u5411 053F                      u5331 049A  
                    u4195 1B25                      u5251 0FAE                      u5171 0F6F  
                    u6140 044C                      u6060 03AF                      u5412 0546  
                    u5340 04A1                      u6300 1D1E                      u5260 0FBE  
                    u5180 0F75                      u6220 14EB                      u4700 101C  
                    u6141 044B                      u6125 0407                      u6061 03AE  
                    u5501 0669                      u5421 055B                      u5413 054D  
                    u5341 04A0                      u4285 1A78                      u6301 1D1D  
                    u5181 0F74                      u5165 0F65                      u6221 14EA  
                    u6205 141F                      u4701 101B                      u6150 046B  
                    u6070 03B6                      u5502 0670                      u5422 0562  
                    u5350 04A6                      u5270 0FCD                      u5190 0F7F  
                    u4710 1038                      u6230 151D                      u6151 046A  
                    u6135 0429                      u6071 03B5                      u6055 0396  
                    u5511 0696                      u5503 0677                      u5431 0587  
                    u5423 0569                      u5351 04A5                      u4295 1A83  
                    u5271 0FCC                      u5191 0F7E                      u5095 0EC5  
                    u6215 1452                      u4711 1037                      u6231 151C  
                    u6080 03D8                      u5600 073A                      u5520 06C0  
                    u5512 069D                      u5432 058E                      u5360 04C7  
                    u4800 1E1B                      u4560 19E7                      u6320 1D30  
                    u6400 1C63                      u5280 0FD6                      u4720 1044  
                    u4640 1C0E                      u6160 15FF                      u6240 1556  
                    u6145 0448                      u6081 03D7                      u5601 0739  
                    u5513 06A4                      u5441 05A3                      u5433 0595  
                    u5361 04C6                      u4801 1E1A                      u4561 19E6  
                    u6321 1D2F                      u6401 1C62                      u5281 0FD5  
                    u5265 0FB9                      u4721 1043                      u4641 1C0D  
                    u6161 15FE                      u6241 1555                      u6090 03E1  
                    u5610 073F                      u5442 05AA                      u5370 04CD  
                    u4490 0825                      u5290 0FDB                      u4650 1C2A  
                    u6170 1618                      u6250 1574                      u6091 03E0  
                    u5611 073E                      u5531 06CC                      u5443 05B1  
                    u5371 04CC                      u4491 0824                      u6315 1D22  
                    u5291 0FDA                      u4731 1053                      u4651 1C29  
                    u6171 1617                      u6251 1573                      u5620 0753  
                    u5540 06E8                      u5532 06D3                      u5380 04D2  
                    u4820 1E2D                      u5700 1366                      u6340 1D41  
                    u6420 1C75                      u4900 0DB2                      u4740 106C  
                    u4732 1054                      u4660 1C44                      u6180 1637  
                    u6260 1595                      u6500 0BA2                      u5621 0752  
                    u5533 06DA                      u5525 06BB                      u5461 05D9  
                    u5381 04D1                      u4821 1E2C                      u5701 1365  
                    u6341 1D40                      u6421 1C74                      u4901 0DB1  
                    u4741 106B                      u4733 1059                      u4661 1C43  
                    u6181 1636                      u6261 1594                      u6501 0BA1  
                    u4670 1A14                      u5630 075A                      u5462 05E0  
                    u5390 04E9                      u4830 1E34                      u5710 136A  
                    u6430 1C7F                      u6270 1BA7                      u4910 0DBD  
                    u4734 105A                      u6190 1686                      u6510 0BCE  
                    u4590 000F                      u4671 1A13                      u5631 0759  
                    u5551 06F4                      u5471 0606                      u5463 05E7  
                    u5455 05B3                      u5391 04E8                      u4831 1E33  
                    u4815 1E1D                      u5711 1369                      u6335 1D31  
                    u6431 1C7E                      u6415 1C67                      u6271 1BA6  
                    u4911 0DBC                      u4751 107B                      u4735 105F  
                    u6191 1685                      u6255 1570                      u6511 0BCD  
                    u4591 000E                      u5640 0760                      u5552 06FB  
                    u5472 060D                      u5800 13E7                      u5720 138A  
                    u6360 1D55                      u6280 1D02                      u4920 0DC3  
                    u4760 10A6                      u4752 107C                      u4736 1060  
                    u6520 0BFB                      u6600 0062                      u5641 075F  
                    u5553 0702                      u5545 06E3                      u5473 0614  
                    u5801 13E6                      u5721 1389                      u6361 1D54  
                    u6345 1D3D                      u6281 1D01                      u4921 0DC2  
                    u4761 10A5                      u4753 1081                      u4665 1C40  
                    u6521 0BF9                      u6601 0061                      u4690 1A28  
                    u5650 0772                      u4850 1E45                      u4770 1DE7  
                    u5810 13FC                      u6370 1D5A                      u6290 1D0D  
                    u6450 1C92                      u4930 0DC8                      u4754 1082  
                    u6530 0BFC                      u6610 009C                      u4691 1A27  
                    u5651 0771                      u5491 063C                      u4851 1E44  
                    u4771 1DE6                      u6371 1D59                      u6355 1D49  
                    u6291 1D0C                      u6451 1C91                      u6435 1C7B  
                    u6275 1BA3                      u4931 0DC7                      u4755 1087  
                    u6611 009B                      u5900 024B                      u5660 0781  
                    u5580 0726                      u5492 0643                      u4860 1E4A  
                    u4780 1DFE                      u5820 140C                      u5740 13AB  
                    u6460 1C97                      u6380 1C4D                      u4940 0DE1  
                    u4756 1088                      u6540 0C08                      u6620 00C2  
                    u6700 1A45                      u5901 024A                      u4685 1A1B  
                    u5581 0725                      u5565 0704                      u5493 064A  
                    u5485 0616                      u4861 1E49                      u4845 1E37  
                    u5821 140B                      u5741 13AA                      u6461 1C96  
                    u6445 1C86                      u6381 1C4C                      u4941 0DE0  
                    u4765 10A2                      u6541 0C07                      u6621 00C1  
                    u6701 1A44                      u5910 0250                      u5670 079E  
                    u4790 1E14                      u5830 1410                      u6390 1C58  
                    u4950 0DE5                      u4870 0D89                      u6550 0D07  
                    u6470 088E                      u6630 0122                      u6710 1ADD  
                    u5911 024F                      u5671 079D                      u5575 071B  
                    u4791 1E13                      u5831 140F                      u5815 13F7  
                    u5735 139D                      u6391 1C57                      u4951 0DE4  
                    u4871 0D88                      u6551 0D06                      u6471 088D  
                    u6631 0121                      u6711 1ADC                      u5920 0270  
                    u5680 07B8                      u5760 13CD                      u4960 0E3D  
                    u4880 0D8F                      u5840 1CBC                      u6560 0D2E  
                    u6480 08C8                      u6640 01D1                      u6720 1B06  
                    u5921 026F                      u5681 07B7                      u5665 077C  
                    u4785 1DF9                      u5761 13CC                      u4961 0E3C  
                    u4881 0D8E                      u5841 1CBB                      u6561 0D2D  
                    u6481 08C7                      u6641 01D0                      u6721 1B05  
                    u5930 0294                      u5690 07D6                      u6650 1AA1  
                    u6570 1DA2                      u5850 1987                      u4970 0E48  
                    u4890 0D94                      u6490 0B7C                      u6730 1B11  
                    u5931 0293                      u5691 07D5                      u5675 079A  
                    u5595 0729                      u5755 13BF                      u6571 1DA1  
                    u5851 1986                      u4971 0E46                      u4891 0D93  
                    u6491 0B7B                      u6731 1B10                      u5940 02F0  
                    u5860 0203                      u5780 13DD                      u6660 1AC3  
                    u6580 1DDB                      u4980 0E49                      u5941 02EF  
                    u5861 0202                      u5685 07B4                      u5781 13DC  
                    u6581 1DDA                      u4965 0E39                      u5870 020D  
                    u5790 13E3                      u6670 1AD5                      u4990 0E5D  
                    u6590 0047                      u5871 020C                      u5791 13E2  
                    u5775 13D2                      u6671 1AD4                      u4991 0E5C  
                    u6591 0046                      u6807 1359                      u5880 0212  
                    u6680 0A64                      Dtr@P 0023                      u5881 0211  
                    u6585 1DD7                      u6681 0A63                      u6817 10B3  
                    u5970 030E                      u5890 0241                      u6690 1A33  
                    u5971 030D                      u5955 02F4                      u5891 0240  
                    u6691 1A32                      u6907 1E9F                      u6827 114A  
                    u6747 1701                      u5965 0301                      u6917 1EAE  
                    u6837 11FD                      u6757 1777                      u5990 0340  
                    u5991 033F                      u6927 1EBD                      u6847 12A4  
                    u6767 17BB                      u5985 0314                      u6937 1ECC  
                    u6857 1E5A                      u6777 1158                      u5995 033C  
                    u6947 1A54                      u6867 1E69                      u6787 11EF  
                    u6957 19A6                      u6877 1E76                      u6797 12B2  
                    u6967 19BB                      u6887 1E82                      u6897 1E90  
                    Dtr@i 0025                      Dtr@y 0020              __CFG_WRT$OFF 0000  
                    _lee1 11F4                      _lee2 10AA                      _lee3 12A9  
                    _lee4 114F                      _main 16D1                      com@E 0072  
                    _itoa 19E0                      cur@a 0076                      cur@b 0073  
                    _port 1963                      btemp 007E                      _utoa 0801  
                    _word 1A94                      exp@x 00B6                      log@x 00B0  
                    pow@x 00C1                      pow@y 00C5                      start 0000  
             ftoa2@puntor 00DC             __CFG_IESO$OFF 0000           ___fldiv@new_exp 00A5  
        __end_of_ADCread3 1F60          __end_of_ADCread4 2000                     ??_Dtr 007C  
         __end_of_Recieve 1B19                     ??_com 0071                     ??_cur 0074  
                   ??_exp 006F                     ??_log 007D                     ??_pow 00C9  
                   ?_lee1 0070                     ?_lee2 0070                     ?_lee3 0070  
                   ?_lee4 0070             ___fltol@sign1 0079           __end_of___fladd 1000  
                   ?_main 0070           __end_of___fldiv 048A                     ?_itoa 0024  
         __end_of___awdiv 1D64           __end_of___flneg 198A             __CFG_WDTE$OFF 0000  
         __end_of___awmod 1CA1           __end_of___flmul 07EB           __end_of___flsub 1BF8  
                   ?_port 0070           __end_of___fltol 1E56                     _ANSEL 0188  
                   ?_utoa 0078                     ?_word 0073           ___awdiv@divisor 0070  
         __end_of___lwdiv 1B5D           __end_of___lwmod 1A94           ___awdiv@counter 0075  
                   _RCREG 001A                     _SPBRG 0099                     _PORTA 0005  
                   _PORTB 0006                     _PORTD 0008                     _TRISA 0085  
                   _TRISB 0086                     _TRISD 0088                     _TXREG 0019  
          __CFG_FCMEN$OFF 0000                     _Voldc 00EC                     _ftoa2 09CF  
                   _floor 15D8                     _ldexp 14F4                     _frexp 1CA1  
                   _errno 0198                     _letra 19AC                     _valor 00E9  
                   _setup 19C2            __CFG_BOREN$OFF 0000                     pclath 000A  
         __end_of_spiInit 001D           __end_of_spiRead 197F           __end_of_reverse 1BA8  
                   pow@yi 00D3                     port@E 0070                     utoa@c 0022  
                   word@a 0073                     utoa@v 0020                     status 0003  
                   word@i 0078                     wtemp0 007E               exp@exponent 00BE  
             ldexp@newexp 00B4            __CFG_MCLRE$OFF 0000           __initialization 07EB  
             log@exponent 006D              __end_of_lee1 12A9              __end_of_lee2 114F  
            __end_of_lee3 135E              __end_of_lee4 11F4              __end_of_main 1800  
            __end_of_itoa 1A06              __end_of_port 1969              __end_of_utoa 0873  
            __end_of_word 1AD6                    ??_lee1 00E0                    ??_lee2 0066  
                  ??_lee3 00E0                    ??_lee4 0066                    ??_main 00E5  
                  ??_itoa 007D                    ??_port 0070                    ??_utoa 007C  
                  ??_word 0075                    ?_ftoa2 00D7                    ?_floor 00A0  
                  ?_ldexp 00B0                    ?_frexp 003A                    ?_letra 0070  
        ___awdiv@dividend 0072                    ?_setup 0070                    _ANSELH 0189  
                  _SPBRGH 009A                    _TRISC2 043A                    _TRISC3 043B  
                  _TRISC5 043D                    _SSPCON 0014                    _SSPBUF 0013  
                  Dtr@zpr 0022          __end_of___xxtofl 141A            __CFG_PWRTE$OFF 0000  
               ??_Recieve 00E4          __end_of_lcd_init 1ED2                    _Voldc2 00EB  
                  ___flge 1008                    ___fleq 1BF8                 ??___fladd 0061  
               ??___fldiv 0061                 ??___awdiv 0074                 ??___flneg 0074  
               ??___awmod 0074                 ??___flmul 0047                 ??___flsub 007D  
               ??___fltol 0074                 ??___lwdiv 0074                 ??___lwmod 0074  
                  _enviar 00EA          ___awdiv@quotient 0077           ___awmod@divisor 0070  
                  _valor2 00E8           ___awmod@counter 0075                    ftoa2@Q 00DB  
                  ftoa2@i 01B6                    ftoa2@m 00D7                    floor@i 00A4  
                  floor@x 00A0                    letra@E 0072        __size_of__Umul8_16 0027  
        __end_of_spiWrite 196F                 ??_spiInit 0073                 ??_spiRead 0070  
               ??_reverse 0072                 ?_ADCread3 0070                 ?_ADCread4 0070  
              ___flge@ff1 0070                ___flge@ff2 0074              ___xxtofl@arg 002A  
        __end_ofexp@coeff 1838              ___xxtofl@exp 0029              ___xxtofl@val 0020  
              ___fleq@ff1 002E                ___fleq@ff2 0032          __end_oflog@coeff 185C  
 __end_of__initialization 07FC                ___flneg@f1 0070              eval_poly@res 00AC  
              ___fltol@f1 0070            __pcstackCOMMON 0070             __end_of_ftoa2 0B53  
           __end_of_floor 16D1             __end_of_ldexp 15D8             __end_of_frexp 1CFD  
           __end_of_letra 19C2             __end_of_setup 19E0        __size_of_lcd_clear 000D  
              ??_ADCread3 0066                ??_ADCread4 00E0                   ??_ftoa2 00DE  
                 ??_floor 007D                   ??_ldexp 006D                   ??_frexp 007B  
                 ??_letra 0071                   ??_setup 0074                __pbssBANK1 00E8  
              __pbssBANK3 0190        __size_of_eval_poly 00DA         __end_of__Umul8_16 1A2D  
              __pmaintext 16D1                   ?___flge 0070                   ?___fleq 002E  
 __size_of_spiReceiveWait 0007                _ftoa2$1420 01AE                _ftoa2$1421 01B2  
               ?___xxtofl 0020                 ?_lcd_init 0070                   _SSPSTAT 0094  
              __stringtab 1800                   _Recieve 1AD6         __end_of_lcd_clear 1997  
               ?_spiWrite 0070           __size_of___flge 00A2           __size_of___fleq 0050  
                 ___fladd 0D78                   ___fldiv 01EA                   ___awdiv 1CFD  
                 ___flneg 197F                   ___awmod 1C48                   ___flmul 048A  
                 ___flsub 1BA8                   ___fltol 1DDC                   ___lwdiv 1B19  
                 ___lwmod 1A5A         __end_of_eval_poly 14F4                   __ptext1 1969  
                 __ptext2 1976                   __ptext3 196F                   __ptext4 19C2  
                 __ptext5 0007                   __ptext6 114F                   __ptext7 12A9  
                 __ptext8 10AA                   __ptext9 11F4              __size_of_Dtr 0078  
                 _guardar 01A4              __size_of_com 0015              __size_of_cur 002D  
            __size_of_exp 0225              __size_of_log 015C              __size_of_pow 01CD  
              ??___xxtofl 0024          ___awmod@dividend 0072                   _spiInit 0007  
                 _spiRead 1976                   _reverse 1B5D                   clrloop0 1001  
              ??_lcd_init 0073                   _voltaje 0194      end_of_initialization 07FC  
                 exp@sign 00C0                   itoa@buf 0029                   itoa@val 0024  
                 pow@sign 00D2                 _RCSTAbits 0018                ??_spiWrite 0070  
                 utoa@buf 0023                   utoa@val 0078                 _PORTAbits 0005  
               _PORTBbits 0006                 _PORTCbits 0007                 _PORTDbits 0008  
             ___fladd@grs 006C             ___xxtofl@sign 0028               ___fldiv@grs 00A7  
             ___fldiv@rem 00A0               spiWrite@dat 0070         __size_of_ADCread3 008E  
       __size_of_ADCread4 00A0               ___flmul@grs 004E                 _TXSTAbits 0098  
              ftoa2@cosof 01BA            _spiReceiveWait 196F            __end_of___flge 10AA  
          __end_of___fleq 1C48               _BAUDCTLbits 0187                floor@expon 00A8  
     start_initialization 07EB                eval_poly@d 00A4                eval_poly@n 00A5  
              eval_poly@x 00A0                ldexp@value 00B0               __end_of_Dtr 1DDC  
             __end_of_com 19AC               __end_of_cur 1A5A               __end_of_exp 0D78  
             __end_of_log 09CF               __end_of_pow 01EA                frexp@value 003A  
__CFG_FOSC$INTRC_NOCLKOUT 0000    __end_of_spiReceiveWait 1976                  ??___flge 0078  
                ??___fleq 0036                 __Umul8_16 1A06                 ___fladd@a 005D  
               ___fladd@b 0059                 ___fldiv@a 0059                 ___fldiv@b 005D  
               ___flmul@a 0043                 ___flmul@b 003F                 ___flsub@a 00A0  
               ___flsub@b 00A4                 ___latbits 0002             __pcstackBANK0 0020  
           __pcstackBANK1 00A0             __pcstackBANK3 01AE         __size_of___xxtofl 00BC  
       __size_of_lcd_init 007C                  ?_Recieve 0070          ___lwdiv@dividend 0072  
         ?_spiReceiveWait 0070                  ?___fladd 0059                  ?___fldiv 0059  
                ?___awdiv 0070                  ?___flneg 0070                  ?___awmod 0070  
                ?___flmul 003F                  ?___flsub 00A0                  ?___fltol 0070  
              ?__Umul8_16 0070                  ?___lwdiv 0070                  ?___lwmod 0070  
               _lcd_clear 198A         __size_of_spiWrite 0006                 __pstrings 1800  
               _eval_poly 141A                 lee3@coso2 00E4                 lee4@coso2 006A  
                ?_spiInit 0070                  ?_spiRead 0070                  ?_reverse 0070  
                _ADCread3 1ED2                  _ADCread4 1F60          ___lwdiv@quotient 0075  
          __size_of_ftoa2 0184            __size_of_floor 00F9            __size_of_ldexp 00E4  
          __size_of_frexp 005C            __size_of_letra 0016            __size_of_setup 001E  
    spiInit@sTransmitEdge 0072                 clear_ram0 1000                reverse@len 0070  
              reverse@zpr 007B        spiInit@sDataSample 0070                  _PIR1bits 000C  
              ?_lcd_clear 0070                _ADCON0bits 001F               __stringbase 180F  
              _ADCON1bits 009F                 cur@tiempo 0077                ?_eval_poly 00A0  
               ftoa2@coso 01B8                 frexp@eptr 003E          __size_of_Recieve 0043  
             ??__Umul8_16 0072          __size_of___fladd 0288          __size_of___fldiv 02A0  
        __size_of___awdiv 0067          __size_of___flneg 000B          __size_of___awmod 0059  
        __size_of___flmul 0361          __size_of___flsub 0050          __size_of___fltol 007A  
        __size_of___lwdiv 0044          __size_of___lwmod 003A        __end_of__stringtab 1810  
                _exp$1424 00BA                  ___xxtofl 135E             reverse@tiempo 0075  
         ___lwdiv@divisor 0070           ___lwdiv@counter 0077                  __ptext10 1E56  
                __ptext11 198A                  __ptext20 14F4                  __ptext12 1AD6  
                __ptext21 15D8                  __ptext13 1A2D                  __ptext30 1B5D  
                __ptext22 1CA1                  __ptext14 1997                  __ptext31 1C48  
                __ptext23 1BF8                  __ptext15 1F60                  __ptext40 1B19  
                __ptext32 1CFD                  __ptext24 1008                  __ptext16 09CF  
                __ptext41 135E                  __ptext33 1ED2                  __ptext25 141A  
                __ptext17 001D                  __ptext42 1DDC                  __ptext34 1A94  
                __ptext26 1BA8                  __ptext18 0873                  __ptext43 048A  
                __ptext35 19AC                  __ptext27 0D78                  __ptext19 0B53  
                __ptext44 1A06                  __ptext36 1963                  __ptext28 197F  
                __ptext45 01EA                  __ptext37 19E0                  __ptext29 1D64  
                __ptext38 0801                  __ptext39 1A5A          __size_of_spiInit 0016  
        __size_of_spiRead 0009         __CFG_BOR4V$BOR40V 0000          __size_of_reverse 004B  
                _lcd_init 1E56                  _pow$1422 00CA                  _pow$1423 00CE  
                lee1@coso 00E4                  lee2@coso 006A                  _guardar2 019A  
           __size_of_lee1 00B5             __size_of_lee2 00A5             __size_of_lee3 00B5  
           __size_of_lee4 00A5             __size_of_main 012F             __size_of_itoa 0026  
           __size_of_port 0006             __size_of_utoa 0072             __size_of_word 0042  
                _spiWrite 1969              spiInit@sType 0073               ??_lcd_clear 0073  
       spiInit@sClockIdle 0071                  _voltaje2 0190                  exp@coeff 1810  
                log@coeff 1838               ??_eval_poly 00A7                  itoa@base 0026  
        ___lwmod@dividend 0072          ??_spiReceiveWait 0070                 stringcode 180A  
                reverse@i 0077                  reverse@j 0079                  utoa@base 007A  
  __Umul8_16@multiplicand 0070           ___lwmod@divisor 0070           ___lwmod@counter 0075  
                stringdir 180A                  stringtab 1800             ___fladd@signs 0069  
            ___fladd@aexp 006A              ___fladd@bexp 006B      __Umul8_16@multiplier 0078  
       __Umul8_16@product 0074  
